; Listing generated by Microsoft (R) Optimizing Compiler Version 16.00.30319.01 

; Generated by VC++ for Common Language Runtime
.file "C:\Users\aMotoo\Documents\MyProject\WordDicBT\WDDatas\WDDatas.cpp"
.global	
	.bss
.local	,4
; Function compile flags: /Ogtp
	.text
	.comdat	any, ??0WDRec@WDDatas@@$$FQ$AAM@XZ
.global	??0WDRec@WDDatas@@$$FQ$AAM@XZ			; WDDatas::WDRec::WDRec
??0WDRec@WDDatas@@$$FQ$AAM@XZ:				; WDDatas::WDRec::WDRec
;	.proc.def	D:V()

; Function Header:
; max stack depth = 1
; function size = 7 bytes
; local varsig tk = 0x0 
; Exception Information:
; 0 handlers, each consisting of filtered handlers

;	.formal.mptr 0,"this$" SIG: Optional C Binding Modifier(token:0x4E03ED).class (token:0x4E03EF)

;	.proc.beg
	ldarg.0				; this$
	call		??0Object@System@@$$FQ$AAM@XZ
	ret		
 .end ??0WDRec@WDDatas@@$$FQ$AAM@XZ			; WDDatas::WDRec::WDRec
;	.proc.end.void
.global	
	.bss
.local	,4
; Function compile flags: /Ogtp
	.text
	.comdat	any, ??0WDMeanGroup@WDDatas@@$$FQ$AAM@XZ
.global	??0WDMeanGroup@WDDatas@@$$FQ$AAM@XZ		; WDDatas::WDMeanGroup::WDMeanGroup
??0WDMeanGroup@WDDatas@@$$FQ$AAM@XZ:			; WDDatas::WDMeanGroup::WDMeanGroup
;	.proc.def	D:V()

; Function Header:
; max stack depth = 1
; function size = 7 bytes
; local varsig tk = 0x0 
; Exception Information:
; 0 handlers, each consisting of filtered handlers

;	.formal.mptr 0,"this$" SIG: Optional C Binding Modifier(token:0x4E0015).class (token:0x4E0017)

;	.proc.beg
	ldarg.0				; this$
	call		??0Object@System@@$$FQ$AAM@XZ
	ret		
 .end ??0WDMeanGroup@WDDatas@@$$FQ$AAM@XZ		; WDDatas::WDMeanGroup::WDMeanGroup
;	.proc.end.void
.global	
	.bss
.local	,4
; Function compile flags: /Ogtp
	.text
	.comdat	any, ??0WDMeanGrpComparer@WDDatas@@$$FQ$AAM@XZ
.global	??0WDMeanGrpComparer@WDDatas@@$$FQ$AAM@XZ	; WDDatas::WDMeanGrpComparer::WDMeanGrpComparer
??0WDMeanGrpComparer@WDDatas@@$$FQ$AAM@XZ:		; WDDatas::WDMeanGrpComparer::WDMeanGrpComparer
;	.proc.def	D:V()

; Function Header:
; max stack depth = 1
; function size = 7 bytes
; local varsig tk = 0x0 
; Exception Information:
; 0 handlers, each consisting of filtered handlers

;	.formal.mptr 0,"this$" SIG: Optional C Binding Modifier(token:0x4DFF7D).class (token:0x4DFF7F)

;	.proc.beg
	ldarg.0				; this$
	call		??0Object@System@@$$FQ$AAM@XZ
	ret		
 .end ??0WDMeanGrpComparer@WDDatas@@$$FQ$AAM@XZ		; WDDatas::WDMeanGrpComparer::WDMeanGrpComparer
;	.proc.end.void
.global	?WDMeanGrpComp@WDMean@WDDatas@@0P$AAVWDMeanGrpComparer@2@$AA ; WDDatas::WDMean::WDMeanGrpComp
	.bss
.local	?WDMeanGrpComp@WDMean@WDDatas@@0P$AAVWDMeanGrpComparer@2@$AA,4 ; WDDatas::WDMean::WDMeanGrpComp
; Function compile flags: /Ogtp
	.text
	.comdat	any, ?.cctor@WDMean@WDDatas@@$$FSMXXZ
.global	?.cctor@WDMean@WDDatas@@$$FSMXXZ		; ?.cctor@WDMean@WDDatas@@$$FSMXXZ
?.cctor@WDMean@WDDatas@@$$FSMXXZ:			; ?.cctor@WDMean@WDDatas@@$$FSMXXZ
;	.proc.def	D:V()

; Function Header:
; max stack depth = 1
; function size = 7 bytes
; local varsig tk = 0x0 
; Exception Information:
; 0 handlers, each consisting of filtered handlers


;	.proc.beg
	ldnull		0		; i32 0x0
	stsfld		?WDMeanGrpComp@WDMean@WDDatas@@0P$AAVWDMeanGrpComparer@2@$AA
	ret		
 .end ?.cctor@WDMean@WDDatas@@$$FSMXXZ			; ?.cctor@WDMean@WDDatas@@$$FSMXXZ
;	.proc.end.void
.global	?DataRec@WDRec@WDDatas@@3P$AAVDataRecord@FJIsam@@$AA ; WDDatas::WDRec::DataRec
	.bss
.local	$T11554,0
.local	?DataRec@WDRec@WDDatas@@3P$AAVDataRecord@FJIsam@@$AA,4 ; WDDatas::WDRec::DataRec
; Function compile flags: /Ogtp
	.text
	.comdat	noduplicate, ??1WDRec@WDDatas@@$$FA$AAM@XZ
.global	??1WDRec@WDDatas@@$$FA$AAM@XZ			; WDDatas::WDRec::~WDRec
??1WDRec@WDDatas@@$$FA$AAM@XZ:				; WDDatas::WDRec::~WDRec
;	.proc.def	D:V()

; Function Header:
; max stack depth = 1
; function size = 17 bytes
; local varsig tk = 0x11000004 
; Exception Information:
; 0 handlers, each consisting of filtered handlers

;	.formal.mptr 0,"this$" SIG: Optional C Binding Modifier(token:0x4E03ED).class (token:0x4E03EF)
;	.local.u4 0,"$T11553" SIG: class (token:0x4D8781)

;	.proc.beg
; File c:\users\amotoo\documents\myproject\worddicbt\wddatas\wddatas.cpp
; Line 36
	ldarg.0				; this$
	ldfld		?DataRec@WDRec@WDDatas@@3P$AAVDataRecord@FJIsam@@$AA
	stloc.0				; $T11553
	ldloc.0				; $T11553
	brfalse.s	$LN4@WDRec
	ldloc.0				; $T11553
	callvirt	?<Dispose>@IDisposable@System@@$$FU$AAMXXZ
$LN4@WDRec:
; Line 37
	ret		
 .end ??1WDRec@WDDatas@@$$FA$AAM@XZ			; WDDatas::WDRec::~WDRec
;	.proc.end.void
; Function compile flags: /Ogtp
	.text
	.comdat	noduplicate, ?getRecord@WDRec@WDDatas@@$$FU$AAMP$AAVDataRecord@FJIsam@@XZ
.global	?getRecord@WDRec@WDDatas@@$$FU$AAMP$AAVDataRecord@FJIsam@@XZ ; WDDatas::WDRec::getRecord
?getRecord@WDRec@WDDatas@@$$FU$AAMP$AAVDataRecord@FJIsam@@XZ: ; WDDatas::WDRec::getRecord
;	.proc.def	D:P()

; Function Header:
; max stack depth = 1
; function size = 7 bytes
; local varsig tk = 0x0 
; Exception Information:
; 0 handlers, each consisting of filtered handlers

;	.formal.mptr 0,"this$" SIG: Optional C Binding Modifier(token:0x4E03ED).class (token:0x4E03EF)

;	.proc.beg
; Line 45
	ldarg.0				; this$
	ldfld		?DataRec@WDRec@WDDatas@@3P$AAVDataRecord@FJIsam@@$AA
	ret		
 .end ?getRecord@WDRec@WDDatas@@$$FU$AAMP$AAVDataRecord@FJIsam@@XZ ; WDDatas::WDRec::getRecord
;	.proc.end.mptr
.global	
	.bss
.local	,4
; Function compile flags: /Ogtp
	.text
	.comdat	noduplicate, ?setRecord@WDRec@WDDatas@@$$FU$AAMXP$AAVDataRecord@FJIsam@@@Z
.global	?setRecord@WDRec@WDDatas@@$$FU$AAMXP$AAVDataRecord@FJIsam@@@Z ; WDDatas::WDRec::setRecord
?setRecord@WDRec@WDDatas@@$$FU$AAMXP$AAVDataRecord@FJIsam@@@Z: ; WDDatas::WDRec::setRecord
;	.proc.def	D:V(P)

; Function Header:
; max stack depth = 2
; function size = 11 bytes
; local varsig tk = 0x0 
; Exception Information:
; 0 handlers, each consisting of filtered handlers

;	.formal.mptr 0,"this$" SIG: Optional C Binding Modifier(token:0x4E03ED).class (token:0x4E03EF)
;	.formal.mptr 1,"inRec$" SIG: class (token:0x4D8661)

;	.proc.beg
; Line 51
	ldarg.1				; inRec$
	brfalse.s	$LN1@setRecord
; Line 53
	ldarg.0				; this$
	ldarg.1				; inRec$
	stfld		?DataRec@WDRec@WDDatas@@3P$AAVDataRecord@FJIsam@@$AA
$LN1@setRecord:
; Line 55
	ret		
 .end ?setRecord@WDRec@WDDatas@@$$FU$AAMXP$AAVDataRecord@FJIsam@@@Z ; WDDatas::WDRec::setRecord
;	.proc.end.void
.global	?ErrorCode2@WDDatasException@WDDatas@@3HA	; WDDatas::WDDatasException::ErrorCode2
.global	?ErrorCode@WDDatasException@WDDatas@@3HA	; WDDatas::WDDatasException::ErrorCode
.global	
.global	
.global	
	.bss
.local	$T11587,0
.local	$StringLiteralTok$??_C@_1CG@PFOLFNFI@0?G0?$PM0?$LP0?l0?$LD0?$PM0?I0nf?x?$IP?$LM0kY1eW0W0?$HO0W0_0?$AC?$AA?$AA@,4
.local	$StringLiteralTok$??_C@_1BM@LAKNIOBD@0?l0?$LD0?$PM0?IRJ?$JGd0o0g0M0?$HO0?$FL0?$JD0?$AC?$AA?$AA@,4
.local	?ErrorCode2@WDDatasException@WDDatas@@3HA,4	; WDDatas::WDDatasException::ErrorCode2
.local	?ErrorCode@WDDatasException@WDDatas@@3HA,4	; WDDatas::WDDatasException::ErrorCode
.local	$StringLiteralTok$??_C@_1BO@OEMADJDL@?$AAI?$AAS?$AAA?$AAM0?U0?$KB0?$KE0?k0LN?$ANkc0g0Y0?$AC?$AA?$AA@,4
.local	$TypeTok$11280448$,4
.local	,4
.local	,4
.local	,4
; Function compile flags: /Ogtp
	.text
	.comdat	noduplicate, ?Write@WDRec@WDDatas@@$$FU$AAMXXZ
.global	?Write@WDRec@WDDatas@@$$FU$AAMXXZ		; WDDatas::WDRec::Write
?Write@WDRec@WDDatas@@$$FU$AAMXXZ:			; WDDatas::WDRec::Write
;	.proc.def	D:V()

; Function Header:
; max stack depth = 4
; function size = 204 bytes
; local varsig tk = 0x11000009 
; Exception Information:
; 2 handlers, each consisting of filtered handlers

;	.formal.mptr 0,"this$" SIG: Optional C Binding Modifier(token:0x4E03ED).class (token:0x4E03EF)
;	.local.mptr 1,"tmpWDDataException$11473" SIG: class (token:0x4CE5C5)
;	.local.mptr 4,"exp$11472" SIG: class (token:0x4CE659)
;	.local.mptr 2,"tmpWDDataException$11469" SIG: class (token:0x4CE5C5)
;	.local.mptr 3,"tmpWDDataException$10932" SIG: class (token:0x4CE5C5)
;	.local.mptr 5,"exp$10930" SIG: class (token:0x4CE659)
;	.local.mptr 0,"tmpParent$" SIG: class (token:0x4CE6E5)

;	.proc.beg
; Line 59
	ldnull		0		; i32 0x0
	stloc.0				; tmpParent$
; Line 63
	ldarg.0				; this$
	ldfld		?DataRec@WDRec@WDDatas@@3P$AAVDataRecord@FJIsam@@$AA
	brfalse		$LN13@Write
$LN27@Write:
; Line 71
	ldarg.0				; this$
	ldfld		?DataRec@WDRec@WDDatas@@3P$AAVDataRecord@FJIsam@@$AA
	call		?getParentFile@DataRecord@FJIsam@@$$FQ$AAMP$AAVObject@System@@XZ
	castClass	$TypeTok$11280448$
	stloc.0				; tmpParent$
; Line 72
	ldloc.0				; tmpParent$
	brtrue.s	$LN6@Write
; Line 74
	leave		$LN13@Write
$LN6@Write:
	leave.s		$LN11@Write
__catch$?Write@WDRec@WDDatas@@$$FU$AAMXXZ$0:
; Line 76
	imp.push	
	stloc.s		5		; exp$10930
; Line 78
	ldstr		$StringLiteralTok$??_C@_1BO@OEMADJDL@?$AAI?$AAS?$AAA?$AAM0?U0?$KB0?$KE0?k0LN?$ANkc0g0Y0?$AC?$AA?$AA@
	ldloc.s		5		; exp$10930
	newobj		??0WDDatasException@WDDatas@@$$FQ$AAM@P$AAVString@System@@P$AAVException@3@@Z
	stloc.3				; tmpWDDataException$10932
; Line 79
	ldloc.3				; tmpWDDataException$10932
	ldc.i4		10001		; i32 0x2711
	stfld		?ErrorCode@WDDatasException@WDDatas@@3HA
; Line 80
	ldloc.3				; tmpWDDataException$10932
	ldc.i.1		1		; i32 0x1
	stfld		?ErrorCode2@WDDatasException@WDDatas@@3HA
; Line 81
	ldloc.3				; tmpWDDataException$10932
	throw.u2	
$LN18@Write:
	leave.s		$LN11@Write
$LN11@Write:
	nop		
$LN28@Write:
; Line 87
	ldarg.0				; this$
	ldfld		?DataRec@WDRec@WDDatas@@3P$AAVDataRecord@FJIsam@@$AA
	call		?getRecStat@DataRecord@FJIsam@@$$FQ$AAM?AW4DataRecStat_EN@2@XZ
	brtrue.s	$LN4@Write
; Line 89
	ldloc.0				; tmpParent$
	ldarg.0				; this$
	ldfld		?DataRec@WDRec@WDDatas@@3P$AAVDataRecord@FJIsam@@$AA
	call		?AddRecord@FIsam@FJIsam@@$$FQ$AAMXP$AAVDataRecord@2@@Z
	br.s		$LN1@Write
$LN4@Write:
; Line 90
	ldarg.0				; this$
	ldfld		?DataRec@WDRec@WDDatas@@3P$AAVDataRecord@FJIsam@@$AA
	call		?getRecStat@DataRecord@FJIsam@@$$FQ$AAM?AW4DataRecStat_EN@2@XZ
	ldc.i.1		1		; i32 0x1
	bne.un.s	$LN2@Write
; Line 91
	ldloc.0				; tmpParent$
	ldarg.0				; this$
	ldfld		?DataRec@WDRec@WDDatas@@3P$AAVDataRecord@FJIsam@@$AA
	call		?UpdateRecord@FIsam@FJIsam@@$$FQ$AAMXP$AAVDataRecord@2@@Z
$LN1@Write:
; Line 97
	leave.s		$LN13@Write
$LN2@Write:
; Line 94
	ldstr		$StringLiteralTok$??_C@_1BM@LAKNIOBD@0?l0?$LD0?$PM0?IRJ?$JGd0o0g0M0?$HO0?$FL0?$JD0?$AC?$AA?$AA@
	newobj		??0WDDatasException@WDDatas@@$$FQ$AAM@P$AAVString@System@@@Z
	stloc.2				; tmpWDDataException$11469
; Line 95
	ldloc.2				; tmpWDDataException$11469
	ldc.i4		10001		; i32 0x2711
	stfld		?ErrorCode@WDDatasException@WDDatas@@3HA
; Line 96
	ldloc.2				; tmpWDDataException$11469
	ldc.i.2		2		; i32 0x2
	stfld		?ErrorCode2@WDDatasException@WDDatas@@3HA
; Line 97
	ldloc.2				; tmpWDDataException$11469
	throw.u2	
$LN19@Write:
; Line 99
	leave.s		$LN13@Write
__catch$?Write@WDRec@WDDatas@@$$FU$AAMXXZ$2:
	imp.push	
	stloc.s		4		; exp$11472
; Line 101
	ldstr		$StringLiteralTok$??_C@_1CG@PFOLFNFI@0?G0?$PM0?$LP0?l0?$LD0?$PM0?I0nf?x?$IP?$LM0kY1eW0W0?$HO0W0_0?$AC?$AA?$AA@
	ldloc.s		4		; exp$11472
	newobj		??0WDDatasException@WDDatas@@$$FQ$AAM@P$AAVString@System@@P$AAVException@3@@Z
	stloc.1				; tmpWDDataException$11473
; Line 102
	ldloc.1				; tmpWDDataException$11473
	ldc.i4		10001		; i32 0x2711
	stfld		?ErrorCode@WDDatasException@WDDatas@@3HA
; Line 103
	ldloc.1				; tmpWDDataException$11473
	ldc.i.3		3		; i32 0x3
	stfld		?ErrorCode2@WDDatasException@WDDatas@@3HA
; Line 104
	ldloc.1				; tmpWDDataException$11473
	throw.u2	
$LN22@Write:
	leave.s		$LN13@Write
$LN13@Write:
; Line 106
	ret		
 .end ?Write@WDRec@WDDatas@@$$FU$AAMXXZ			; WDDatas::WDRec::Write
;	.proc.end.void
	.bss
.local	$T11613,0
.local	$StringLiteralTok$??_C@_1CG@NOMECGNF@0S0n0?G0?$PM0?$LP0?l0?$LD0?$PM0?I0oRJ?$JGd0g0M0?$HO0?$FL0?$JD0?$AC?$AA?$AA@,4
; Function compile flags: /Ogtp
	.text
	.comdat	noduplicate, ?Delete@WDRec@WDDatas@@$$FU$AAMXXZ
.global	?Delete@WDRec@WDDatas@@$$FU$AAMXXZ		; WDDatas::WDRec::Delete
?Delete@WDRec@WDDatas@@$$FU$AAMXXZ:			; WDDatas::WDRec::Delete
;	.proc.def	D:V()

; Function Header:
; max stack depth = 4
; function size = 219 bytes
; local varsig tk = 0x1100000A 
; Exception Information:
; 2 handlers, each consisting of filtered handlers

;	.formal.mptr 0,"this$" SIG: Optional C Binding Modifier(token:0x4E03ED).class (token:0x4E03EF)
;	.local.mptr 0,"tmpWDDataException$11501" SIG: class (token:0x4CE5C5)
;	.local.mptr 5,"exp$11500" SIG: class (token:0x4CE659)
;	.local.mptr 1,"tmpWDDataException$11497" SIG: class (token:0x4CE5C5)
;	.local.mptr 7,"$T11495" SIG: class (token:0x4D86F1)
;	.local.mptr 2,"$T11494" SIG: class (token:0x4D8661)
;	.local.mptr 3,"tmpWDDataException$11489" SIG: class (token:0x4CE5C5)
;	.local.mptr 6,"exp$11488" SIG: class (token:0x4CE659)
;	.local.mptr 4,"tmpParent$" SIG: class (token:0x4CE6E5)

;	.proc.beg
; Line 110
	ldnull		0		; i32 0x0
	stloc.s		4		; tmpParent$
; Line 114
	ldarg.0				; this$
	ldfld		?DataRec@WDRec@WDDatas@@3P$AAVDataRecord@FJIsam@@$AA
	brfalse		$LN14@Delete
$LN28@Delete:
; Line 122
	ldarg.0				; this$
	ldfld		?DataRec@WDRec@WDDatas@@3P$AAVDataRecord@FJIsam@@$AA
	call		?getParentFile@DataRecord@FJIsam@@$$FQ$AAMP$AAVObject@System@@XZ
	castClass	$TypeTok$11280448$
	stloc.s		4		; tmpParent$
; Line 123
	ldloc.s		4		; tmpParent$
	brtrue.s	$LN5@Delete
; Line 125
	leave		$LN14@Delete
$LN5@Delete:
	leave.s		$LN12@Delete
__catch$?Delete@WDRec@WDDatas@@$$FU$AAMXXZ$0:
; Line 127
	imp.push	
	stloc.s		6		; exp$11488
; Line 129
	ldstr		$StringLiteralTok$??_C@_1BO@OEMADJDL@?$AAI?$AAS?$AAA?$AAM0?U0?$KB0?$KE0?k0LN?$ANkc0g0Y0?$AC?$AA?$AA@
	ldloc.s		6		; exp$11488
	newobj		??0WDDatasException@WDDatas@@$$FQ$AAM@P$AAVString@System@@P$AAVException@3@@Z
	stloc.3				; tmpWDDataException$11489
; Line 130
	ldloc.3				; tmpWDDataException$11489
	ldc.i4		10002		; i32 0x2712
	stfld		?ErrorCode@WDDatasException@WDDatas@@3HA
; Line 131
	ldloc.3				; tmpWDDataException$11489
	ldc.i.1		1		; i32 0x1
	stfld		?ErrorCode2@WDDatasException@WDDatas@@3HA
; Line 132
	ldloc.3				; tmpWDDataException$11489
	throw.u2	
$LN19@Delete:
	leave.s		$LN12@Delete
$LN12@Delete:
	nop		
$LN29@Delete:
; Line 138
	ldarg.0				; this$
	ldfld		?DataRec@WDRec@WDDatas@@3P$AAVDataRecord@FJIsam@@$AA
	call		?getRecStat@DataRecord@FJIsam@@$$FQ$AAM?AW4DataRecStat_EN@2@XZ
	pop		
; Line 141
	ldarg.0				; this$
	ldfld		?DataRec@WDRec@WDDatas@@3P$AAVDataRecord@FJIsam@@$AA
	call		?getRecStat@DataRecord@FJIsam@@$$FQ$AAM?AW4DataRecStat_EN@2@XZ
	ldc.i.1		1		; i32 0x1
	bne.un.s	$LN2@Delete
; Line 143
	ldloc.s		4		; tmpParent$
	ldarg.0				; this$
	ldfld		?DataRec@WDRec@WDDatas@@3P$AAVDataRecord@FJIsam@@$AA
	call		?DeleteRecord@FIsam@FJIsam@@$$FQ$AAMXP$AAVDataRecord@2@@Z
; Line 144
	ldarg.0				; this$
	ldfld		?DataRec@WDRec@WDDatas@@3P$AAVDataRecord@FJIsam@@$AA
	stloc.2				; $T11494
	ldloc.2				; $T11494
	stloc.s		7		; $T11495
	ldloc.2				; $T11494
	brfalse.s	$LN10@Delete
	ldloc.2				; $T11494
	callvirt	?<Dispose>@IDisposable@System@@$$FU$AAMXXZ
$LN10@Delete:
; Line 145
	ldarg.0				; this$
	ldnull		0		; i32 0x0
	stfld		?DataRec@WDRec@WDDatas@@3P$AAVDataRecord@FJIsam@@$AA
; Line 151
	leave.s		$LN14@Delete
$LN2@Delete:
; Line 148
	ldstr		$StringLiteralTok$??_C@_1CG@NOMECGNF@0S0n0?G0?$PM0?$LP0?l0?$LD0?$PM0?I0oRJ?$JGd0g0M0?$HO0?$FL0?$JD0?$AC?$AA?$AA@
	newobj		??0WDDatasException@WDDatas@@$$FQ$AAM@P$AAVString@System@@@Z
	stloc.1				; tmpWDDataException$11497
; Line 149
	ldloc.1				; tmpWDDataException$11497
	ldc.i4		10002		; i32 0x2712
	stfld		?ErrorCode@WDDatasException@WDDatas@@3HA
; Line 150
	ldloc.1				; tmpWDDataException$11497
	ldc.i.2		2		; i32 0x2
	stfld		?ErrorCode2@WDDatasException@WDDatas@@3HA
; Line 151
	ldloc.1				; tmpWDDataException$11497
	throw.u2	
$LN20@Delete:
; Line 153
	leave.s		$LN14@Delete
__catch$?Delete@WDRec@WDDatas@@$$FU$AAMXXZ$2:
	imp.push	
	stloc.s		5		; exp$11500
; Line 155
	ldstr		$StringLiteralTok$??_C@_1CG@PFOLFNFI@0?G0?$PM0?$LP0?l0?$LD0?$PM0?I0nf?x?$IP?$LM0kY1eW0W0?$HO0W0_0?$AC?$AA?$AA@
	ldloc.s		5		; exp$11500
	newobj		??0WDDatasException@WDDatas@@$$FQ$AAM@P$AAVString@System@@P$AAVException@3@@Z
	stloc.0				; tmpWDDataException$11501
; Line 156
	ldloc.0				; tmpWDDataException$11501
	ldc.i4		10002		; i32 0x2712
	stfld		?ErrorCode@WDDatasException@WDDatas@@3HA
; Line 157
	ldloc.0				; tmpWDDataException$11501
	ldc.i.3		3		; i32 0x3
	stfld		?ErrorCode2@WDDatasException@WDDatas@@3HA
; Line 158
	ldloc.0				; tmpWDDataException$11501
	throw.u2	
$LN23@Delete:
	leave.s		$LN14@Delete
$LN14@Delete:
; Line 160
	ret		
 .end ?Delete@WDRec@WDDatas@@$$FU$AAMXXZ		; WDDatas::WDRec::Delete
;	.proc.end.void
; Function compile flags: /Ogtp
	.text
	.comdat	noduplicate, ?Length@WDRec@WDDatas@@$$FSMHXZ
.global	?Length@WDRec@WDDatas@@$$FSMHXZ			; WDDatas::WDRec::Length
?Length@WDRec@WDDatas@@$$FSMHXZ:			; WDDatas::WDRec::Length
;	.proc.def	D:I()

; Function Header:
; max stack depth = 1
; function size = 2 bytes
; local varsig tk = 0x0 
; Exception Information:
; 0 handlers, each consisting of filtered handlers


;	.proc.beg
; Line 168
	ldc.i.0		0		; i32 0x0
	ret		
 .end ?Length@WDRec@WDDatas@@$$FSMHXZ			; WDDatas::WDRec::Length
;	.proc.end.i4
	.bss
.local	$T11620,0
; Function compile flags: /Ogtp
	.text
	.comdat	noduplicate, ?RecLength@WDRec@WDDatas@@$$FU$AAMHXZ
.global	?RecLength@WDRec@WDDatas@@$$FU$AAMHXZ		; WDDatas::WDRec::RecLength
?RecLength@WDRec@WDDatas@@$$FU$AAMHXZ:			; WDDatas::WDRec::RecLength
;	.proc.def	D:I()

; Function Header:
; max stack depth = 1
; function size = 19 bytes
; local varsig tk = 0x11000004 
; Exception Information:
; 0 handlers, each consisting of filtered handlers

;	.formal.mptr 0,"this$" SIG: Optional C Binding Modifier(token:0x4E03ED).class (token:0x4E03EF)
;	.local.u4 0,"$T11619" SIG: class (token:0x4D8781)

;	.proc.beg
; Line 174
	ldarg.0				; this$
	ldfld		?DataRec@WDRec@WDDatas@@3P$AAVDataRecord@FJIsam@@$AA
	stloc.0				; $T11619
	ldloc.0				; $T11619
	brtrue.s	$LN2@RecLength
; Line 176
	ldc.i.0		0		; i32 0x0
	ret		
$LN2@RecLength:
; Line 178
	ldloc.0				; $T11619
	call		?getRecLength@DataRecord@FJIsam@@$$FQ$AAMHXZ
	ret		
 .end ?RecLength@WDRec@WDDatas@@$$FU$AAMHXZ		; WDDatas::WDRec::RecLength
;	.proc.end.i4
	.bss
.local	$T11634,0
; Function compile flags: /Ogtp
	.text
	.comdat	any, ?<Dispose>@WDRec@WDDatas@@$$FM$AAMX_N@Z
.global	?<Dispose>@WDRec@WDDatas@@$$FM$AAMX_N@Z		; WDDatas::WDRec::<Dispose>
?<Dispose>@WDRec@WDDatas@@$$FM$AAMX_N@Z:		; WDDatas::WDRec::<Dispose>
;	.proc.def	D:V(I)

; Function Header:
; max stack depth = 1
; function size = 28 bytes
; local varsig tk = 0x11000004 
; Exception Information:
; 0 handlers, each consisting of filtered handlers

;	.formal.mptr 0,"this$" SIG: Optional C Binding Modifier(token:0x4E03ED).class (token:0x4E03EF)
;	.formal.u1 1,"disposing$" SIG: bool
;	.local.u4 0,"$T11633" SIG: class (token:0x4D8781)

;	.proc.beg
	ldarg.1				; disposing$
	brfalse.s	$LN2@
	ldarg.0				; this$
	ldfld		?DataRec@WDRec@WDDatas@@3P$AAVDataRecord@FJIsam@@$AA
	stloc.0				; $T11633
	ldloc.0				; $T11633
	brfalse.s	$LN1@
	ldloc.0				; $T11633
	callvirt	?<Dispose>@IDisposable@System@@$$FU$AAMXXZ
	br.s		$LN1@
$LN2@:
	ldarg.0				; this$
	call		?<Finalize>@Object@System@@$$FM$AAMXXZ
$LN1@:
	ret		
 .end ?<Dispose>@WDRec@WDDatas@@$$FM$AAMX_N@Z		; WDDatas::WDRec::<Dispose>
;	.proc.end.void
.global	
	.bss
.local	,4
; Function compile flags: /Ogtp
	.text
	.comdat	any, ?<Dispose>@WDWord@WDDatas@@$$FM$AAMX_N@Z
.global	?<Dispose>@WDWord@WDDatas@@$$FM$AAMX_N@Z	; WDDatas::WDWord::<Dispose>
?<Dispose>@WDWord@WDDatas@@$$FM$AAMX_N@Z:		; WDDatas::WDWord::<Dispose>
;	.proc.def	D:V(I)

; Function Header:
; max stack depth = 2
; function size = 27 bytes
; local varsig tk = 0x0 
; Exception Information:
; 1 handlers, each consisting of filtered handlers

;	.formal.mptr 0,"this$" SIG: Optional C Binding Modifier(token:0x4E00A5).class (token:0x4E00A7)
;	.formal.u1 1,"disposing$" SIG: bool

;	.proc.beg
	ldarg.1				; disposing$
	brfalse.s	$LN3@
$LN13@:
	ldarg.0				; this$
	call		??1WDWord@WDDatas@@$$FA$AAM@XZ
$LN2@:
	leave.s		$LN12@
$LN7@:
	ldarg.0				; this$
	ldc.i.1		1		; u8 0x1
	call		?<Dispose>@WDRec@WDDatas@@$$FM$AAMX_N@Z
$LN9@:
	endfinally	
$LN3@:
	ldarg.0				; this$
	ldc.i.0		0		; u8 0x0
	call		?<Dispose>@WDRec@WDDatas@@$$FM$AAMX_N@Z
$LN12@:
	ret		
 .end ?<Dispose>@WDWord@WDDatas@@$$FM$AAMX_N@Z		; WDDatas::WDWord::<Dispose>
;	.proc.end.void
.global	
	.bss
.local	,4
; Function compile flags: /Ogtp
	.text
	.comdat	any, ?<Dispose>@WDMean@WDDatas@@$$FM$AAMX_N@Z
.global	?<Dispose>@WDMean@WDDatas@@$$FM$AAMX_N@Z	; WDDatas::WDMean::<Dispose>
?<Dispose>@WDMean@WDDatas@@$$FM$AAMX_N@Z:		; WDDatas::WDMean::<Dispose>
;	.proc.def	D:V(I)

; Function Header:
; max stack depth = 2
; function size = 27 bytes
; local varsig tk = 0x0 
; Exception Information:
; 1 handlers, each consisting of filtered handlers

;	.formal.mptr 0,"this$" SIG: Optional C Binding Modifier(token:0x4DFE39).class (token:0x4DFE3B)
;	.formal.u1 1,"disposing$" SIG: bool

;	.proc.beg
	ldarg.1				; disposing$
	brfalse.s	$LN3@
$LN13@:
	ldarg.0				; this$
	call		??1WDMean@WDDatas@@$$FA$AAM@XZ
$LN2@:
	leave.s		$LN12@
$LN7@:
	ldarg.0				; this$
	ldc.i.1		1		; u8 0x1
	call		?<Dispose>@WDRec@WDDatas@@$$FM$AAMX_N@Z
$LN9@:
	endfinally	
$LN3@:
	ldarg.0				; this$
	ldc.i.0		0		; u8 0x0
	call		?<Dispose>@WDRec@WDDatas@@$$FM$AAMX_N@Z
$LN12@:
	ret		
 .end ?<Dispose>@WDMean@WDDatas@@$$FM$AAMX_N@Z		; WDDatas::WDMean::<Dispose>
;	.proc.end.void
.global	
	.bss
.local	,4
; Function compile flags: /Ogtp
	.text
	.comdat	any, ?<Dispose>@WDTrans@WDDatas@@$$FM$AAMX_N@Z
.global	?<Dispose>@WDTrans@WDDatas@@$$FM$AAMX_N@Z	; WDDatas::WDTrans::<Dispose>
?<Dispose>@WDTrans@WDDatas@@$$FM$AAMX_N@Z:		; WDDatas::WDTrans::<Dispose>
;	.proc.def	D:V(I)

; Function Header:
; max stack depth = 2
; function size = 27 bytes
; local varsig tk = 0x0 
; Exception Information:
; 1 handlers, each consisting of filtered handlers

;	.formal.mptr 0,"this$" SIG: Optional C Binding Modifier(token:0x4DFC49).class (token:0x4DFC4B)
;	.formal.u1 1,"disposing$" SIG: bool

;	.proc.beg
	ldarg.1				; disposing$
	brfalse.s	$LN3@
$LN13@:
	ldarg.0				; this$
	call		??1WDTrans@WDDatas@@$$FA$AAM@XZ
$LN2@:
	leave.s		$LN12@
$LN7@:
	ldarg.0				; this$
	ldc.i.1		1		; u8 0x1
	call		?<Dispose>@WDRec@WDDatas@@$$FM$AAMX_N@Z
$LN9@:
	endfinally	
$LN3@:
	ldarg.0				; this$
	ldc.i.0		0		; u8 0x0
	call		?<Dispose>@WDRec@WDDatas@@$$FM$AAMX_N@Z
$LN12@:
	ret		
 .end ?<Dispose>@WDTrans@WDDatas@@$$FM$AAMX_N@Z		; WDDatas::WDTrans::<Dispose>
;	.proc.end.void
.global	
	.bss
.local	,4
; Function compile flags: /Ogtp
	.text
	.comdat	any, ?<Dispose>@WDRelation@WDDatas@@$$FM$AAMX_N@Z
.global	?<Dispose>@WDRelation@WDDatas@@$$FM$AAMX_N@Z	; WDDatas::WDRelation::<Dispose>
?<Dispose>@WDRelation@WDDatas@@$$FM$AAMX_N@Z:		; WDDatas::WDRelation::<Dispose>
;	.proc.def	D:V(I)

; Function Header:
; max stack depth = 2
; function size = 27 bytes
; local varsig tk = 0x0 
; Exception Information:
; 1 handlers, each consisting of filtered handlers

;	.formal.mptr 0,"this$" SIG: Optional C Binding Modifier(token:0x4DFAFD).class (token:0x4DFAFF)
;	.formal.u1 1,"disposing$" SIG: bool

;	.proc.beg
	ldarg.1				; disposing$
	brfalse.s	$LN3@
$LN13@:
	ldarg.0				; this$
	call		??1WDRelation@WDDatas@@$$FA$AAM@XZ
$LN2@:
	leave.s		$LN12@
$LN7@:
	ldarg.0				; this$
	ldc.i.1		1		; u8 0x1
	call		?<Dispose>@WDRec@WDDatas@@$$FM$AAMX_N@Z
$LN9@:
	endfinally	
$LN3@:
	ldarg.0				; this$
	ldc.i.0		0		; u8 0x0
	call		?<Dispose>@WDRec@WDDatas@@$$FM$AAMX_N@Z
$LN12@:
	ret		
 .end ?<Dispose>@WDRelation@WDDatas@@$$FM$AAMX_N@Z	; WDDatas::WDRelation::<Dispose>
;	.proc.end.void
.global	
	.bss
.local	,4
; Function compile flags: /Ogtp
	.text
	.comdat	any, ?<Dispose>@WDGroup@WDDatas@@$$FM$AAMX_N@Z
.global	?<Dispose>@WDGroup@WDDatas@@$$FM$AAMX_N@Z	; WDDatas::WDGroup::<Dispose>
?<Dispose>@WDGroup@WDDatas@@$$FM$AAMX_N@Z:		; WDDatas::WDGroup::<Dispose>
;	.proc.def	D:V(I)

; Function Header:
; max stack depth = 2
; function size = 27 bytes
; local varsig tk = 0x0 
; Exception Information:
; 1 handlers, each consisting of filtered handlers

;	.formal.mptr 0,"this$" SIG: Optional C Binding Modifier(token:0x4D8971).class (token:0x4D8973)
;	.formal.u1 1,"disposing$" SIG: bool

;	.proc.beg
	ldarg.1				; disposing$
	brfalse.s	$LN3@
$LN13@:
	ldarg.0				; this$
	call		??1WDGroup@WDDatas@@$$FA$AAM@XZ
$LN2@:
	leave.s		$LN12@
$LN7@:
	ldarg.0				; this$
	ldc.i.1		1		; u8 0x1
	call		?<Dispose>@WDRec@WDDatas@@$$FM$AAMX_N@Z
$LN9@:
	endfinally	
$LN3@:
	ldarg.0				; this$
	ldc.i.0		0		; u8 0x0
	call		?<Dispose>@WDRec@WDDatas@@$$FM$AAMX_N@Z
$LN12@:
	ret		
 .end ?<Dispose>@WDGroup@WDDatas@@$$FM$AAMX_N@Z		; WDDatas::WDGroup::<Dispose>
;	.proc.end.void
.global	
	.bss
.local	,4
; Function compile flags: /Ogtp
	.text
	.comdat	any, ?<Dispose>@WDSegment@WDDatas@@$$FM$AAMX_N@Z
.global	?<Dispose>@WDSegment@WDDatas@@$$FM$AAMX_N@Z	; WDDatas::WDSegment::<Dispose>
?<Dispose>@WDSegment@WDDatas@@$$FM$AAMX_N@Z:		; WDDatas::WDSegment::<Dispose>
;	.proc.def	D:V(I)

; Function Header:
; max stack depth = 2
; function size = 27 bytes
; local varsig tk = 0x0 
; Exception Information:
; 1 handlers, each consisting of filtered handlers

;	.formal.mptr 0,"this$" SIG: Optional C Binding Modifier(token:0x4D8825).class (token:0x4D8827)
;	.formal.u1 1,"disposing$" SIG: bool

;	.proc.beg
	ldarg.1				; disposing$
	brfalse.s	$LN3@
$LN13@:
	ldarg.0				; this$
	call		??1WDSegment@WDDatas@@$$FA$AAM@XZ
$LN2@:
	leave.s		$LN12@
$LN7@:
	ldarg.0				; this$
	ldc.i.1		1		; u8 0x1
	call		?<Dispose>@WDRec@WDDatas@@$$FM$AAMX_N@Z
$LN9@:
	endfinally	
$LN3@:
	ldarg.0				; this$
	ldc.i.0		0		; u8 0x0
	call		?<Dispose>@WDRec@WDDatas@@$$FM$AAMX_N@Z
$LN12@:
	ret		
 .end ?<Dispose>@WDSegment@WDDatas@@$$FM$AAMX_N@Z	; WDDatas::WDSegment::<Dispose>
;	.proc.end.void
; Function compile flags: /Ogtp
	.text
	.comdat	any, ?<Dispose>@WDRec@WDDatas@@$$FU$AAMXXZ
.global	?<Dispose>@WDRec@WDDatas@@$$FU$AAMXXZ		; WDDatas::WDRec::<Dispose>
?<Dispose>@WDRec@WDDatas@@$$FU$AAMXXZ:			; WDDatas::WDRec::<Dispose>
;	.proc.def	D:V()

; Function Header:
; max stack depth = 2
; function size = 14 bytes
; local varsig tk = 0x0 
; Exception Information:
; 0 handlers, each consisting of filtered handlers

;	.formal.mptr 0,"this$" SIG: Optional C Binding Modifier(token:0x4E03ED).class (token:0x4E03EF)

;	.proc.beg
	ldarg.0				; this$
	ldc.i.1		1		; u8 0x1
	callvirt	?<Dispose>@WDRec@WDDatas@@$$FM$AAMX_N@Z
	ldarg.0				; this$
	call		?SuppressFinalize@GC@System@@$$FSMXP$AAVObject@2@@Z
	ret		
 .end ?<Dispose>@WDRec@WDDatas@@$$FU$AAMXXZ		; WDDatas::WDRec::<Dispose>
;	.proc.end.void
