; Listing generated by Microsoft (R) Optimizing Compiler Version 16.00.30319.01 

; Generated by VC++ for Common Language Runtime
.file "C:\Users\aMotoo\Documents\MyProject\WordDicBT\WDDatas\WDGroup.cpp"
.global	
	.bss
.local	,4
; Function compile flags: /Ogtp
	.text
	.comdat	any, ??0WDRec@WDDatas@@$$FQ$AAM@XZ
.global	??0WDRec@WDDatas@@$$FQ$AAM@XZ			; WDDatas::WDRec::WDRec
??0WDRec@WDDatas@@$$FQ$AAM@XZ:				; WDDatas::WDRec::WDRec
;	.proc.def	D:V()

; Function Header:
; max stack depth = 1
; function size = 7 bytes
; local varsig tk = 0x0 
; Exception Information:
; 0 handlers, each consisting of filtered handlers

;	.formal.mptr 0,"this$" SIG: Optional C Binding Modifier(token:0x446025).class (token:0x446027)

;	.proc.beg
	ldarg.0				; this$
	call		??0Object@System@@$$FQ$AAM@XZ
	ret		
 .end ??0WDRec@WDDatas@@$$FQ$AAM@XZ			; WDDatas::WDRec::WDRec
;	.proc.end.void
; Function compile flags: /Ogtp
	.text
	.comdat	any, ?<Dispose>@WDRec@WDDatas@@$$FM$AAMX_N@Z
.global	?<Dispose>@WDRec@WDDatas@@$$FM$AAMX_N@Z		; WDDatas::WDRec::<Dispose>
?<Dispose>@WDRec@WDDatas@@$$FM$AAMX_N@Z:		; WDDatas::WDRec::<Dispose>
;	.proc.def	D:V(I)

; Function Header:
; max stack depth = 1
; function size = 18 bytes
; local varsig tk = 0x0 
; Exception Information:
; 0 handlers, each consisting of filtered handlers

;	.formal.mptr 0,"this$" SIG: Optional C Binding Modifier(token:0x446025).class (token:0x446027)
;	.formal.u1 1,"disposing$" SIG: bool

;	.proc.beg
	ldarg.1				; disposing$
	brfalse.s	$LN2@
	ldarg.0				; this$
	call		??1WDRec@WDDatas@@$$FA$AAM@XZ
	br.s		$LN1@
$LN2@:
	ldarg.0				; this$
	call		?<Finalize>@Object@System@@$$FM$AAMXXZ
$LN1@:
	ret		
 .end ?<Dispose>@WDRec@WDDatas@@$$FM$AAMX_N@Z		; WDDatas::WDRec::<Dispose>
;	.proc.end.void
.global	
	.bss
.local	,4
; Function compile flags: /Ogtp
	.text
	.comdat	any, ?<Dispose>@WDWord@WDDatas@@$$FM$AAMX_N@Z
.global	?<Dispose>@WDWord@WDDatas@@$$FM$AAMX_N@Z	; WDDatas::WDWord::<Dispose>
?<Dispose>@WDWord@WDDatas@@$$FM$AAMX_N@Z:		; WDDatas::WDWord::<Dispose>
;	.proc.def	D:V(I)

; Function Header:
; max stack depth = 2
; function size = 27 bytes
; local varsig tk = 0x0 
; Exception Information:
; 1 handlers, each consisting of filtered handlers

;	.formal.mptr 0,"this$" SIG: Optional C Binding Modifier(token:0x445C25).class (token:0x445C27)
;	.formal.u1 1,"disposing$" SIG: bool

;	.proc.beg
	ldarg.1				; disposing$
	brfalse.s	$LN3@
$LN13@:
	ldarg.0				; this$
	call		??1WDWord@WDDatas@@$$FA$AAM@XZ
$LN2@:
	leave.s		$LN12@
$LN7@:
	ldarg.0				; this$
	ldc.i.1		1		; u8 0x1
	call		?<Dispose>@WDRec@WDDatas@@$$FM$AAMX_N@Z
$LN9@:
	endfinally	
$LN3@:
	ldarg.0				; this$
	ldc.i.0		0		; u8 0x0
	call		?<Dispose>@WDRec@WDDatas@@$$FM$AAMX_N@Z
$LN12@:
	ret		
 .end ?<Dispose>@WDWord@WDDatas@@$$FM$AAMX_N@Z		; WDDatas::WDWord::<Dispose>
;	.proc.end.void
.global	
	.bss
.local	,4
; Function compile flags: /Ogtp
	.text
	.comdat	any, ??0WDMeanGroup@WDDatas@@$$FQ$AAM@XZ
.global	??0WDMeanGroup@WDDatas@@$$FQ$AAM@XZ		; WDDatas::WDMeanGroup::WDMeanGroup
??0WDMeanGroup@WDDatas@@$$FQ$AAM@XZ:			; WDDatas::WDMeanGroup::WDMeanGroup
;	.proc.def	D:V()

; Function Header:
; max stack depth = 1
; function size = 7 bytes
; local varsig tk = 0x0 
; Exception Information:
; 0 handlers, each consisting of filtered handlers

;	.formal.mptr 0,"this$" SIG: Optional C Binding Modifier(token:0x445B95).class (token:0x445B97)

;	.proc.beg
	ldarg.0				; this$
	call		??0Object@System@@$$FQ$AAM@XZ
	ret		
 .end ??0WDMeanGroup@WDDatas@@$$FQ$AAM@XZ		; WDDatas::WDMeanGroup::WDMeanGroup
;	.proc.end.void
.global	
	.bss
.local	,4
; Function compile flags: /Ogtp
	.text
	.comdat	any, ??0WDMeanGrpComparer@WDDatas@@$$FQ$AAM@XZ
.global	??0WDMeanGrpComparer@WDDatas@@$$FQ$AAM@XZ	; WDDatas::WDMeanGrpComparer::WDMeanGrpComparer
??0WDMeanGrpComparer@WDDatas@@$$FQ$AAM@XZ:		; WDDatas::WDMeanGrpComparer::WDMeanGrpComparer
;	.proc.def	D:V()

; Function Header:
; max stack depth = 1
; function size = 7 bytes
; local varsig tk = 0x0 
; Exception Information:
; 0 handlers, each consisting of filtered handlers

;	.formal.mptr 0,"this$" SIG: Optional C Binding Modifier(token:0x445AFD).class (token:0x445AFF)

;	.proc.beg
	ldarg.0				; this$
	call		??0Object@System@@$$FQ$AAM@XZ
	ret		
 .end ??0WDMeanGrpComparer@WDDatas@@$$FQ$AAM@XZ		; WDDatas::WDMeanGrpComparer::WDMeanGrpComparer
;	.proc.end.void
.global	
	.bss
.local	,4
; Function compile flags: /Ogtp
	.text
	.comdat	any, ?<Dispose>@WDMean@WDDatas@@$$FM$AAMX_N@Z
.global	?<Dispose>@WDMean@WDDatas@@$$FM$AAMX_N@Z	; WDDatas::WDMean::<Dispose>
?<Dispose>@WDMean@WDDatas@@$$FM$AAMX_N@Z:		; WDDatas::WDMean::<Dispose>
;	.proc.def	D:V(I)

; Function Header:
; max stack depth = 2
; function size = 27 bytes
; local varsig tk = 0x0 
; Exception Information:
; 1 handlers, each consisting of filtered handlers

;	.formal.mptr 0,"this$" SIG: Optional C Binding Modifier(token:0x4459B9).class (token:0x4459BB)
;	.formal.u1 1,"disposing$" SIG: bool

;	.proc.beg
	ldarg.1				; disposing$
	brfalse.s	$LN3@
$LN13@:
	ldarg.0				; this$
	call		??1WDMean@WDDatas@@$$FA$AAM@XZ
$LN2@:
	leave.s		$LN12@
$LN7@:
	ldarg.0				; this$
	ldc.i.1		1		; u8 0x1
	call		?<Dispose>@WDRec@WDDatas@@$$FM$AAMX_N@Z
$LN9@:
	endfinally	
$LN3@:
	ldarg.0				; this$
	ldc.i.0		0		; u8 0x0
	call		?<Dispose>@WDRec@WDDatas@@$$FM$AAMX_N@Z
$LN12@:
	ret		
 .end ?<Dispose>@WDMean@WDDatas@@$$FM$AAMX_N@Z		; WDDatas::WDMean::<Dispose>
;	.proc.end.void
.global	?WDMeanGrpComp@WDMean@WDDatas@@0P$AAVWDMeanGrpComparer@2@$AA ; WDDatas::WDMean::WDMeanGrpComp
	.bss
.local	?WDMeanGrpComp@WDMean@WDDatas@@0P$AAVWDMeanGrpComparer@2@$AA,4 ; WDDatas::WDMean::WDMeanGrpComp
; Function compile flags: /Ogtp
	.text
	.comdat	any, ?.cctor@WDMean@WDDatas@@$$FSMXXZ
.global	?.cctor@WDMean@WDDatas@@$$FSMXXZ		; ?.cctor@WDMean@WDDatas@@$$FSMXXZ
?.cctor@WDMean@WDDatas@@$$FSMXXZ:			; ?.cctor@WDMean@WDDatas@@$$FSMXXZ
;	.proc.def	D:V()

; Function Header:
; max stack depth = 1
; function size = 7 bytes
; local varsig tk = 0x0 
; Exception Information:
; 0 handlers, each consisting of filtered handlers


;	.proc.beg
	ldnull		0		; i32 0x0
	stsfld		?WDMeanGrpComp@WDMean@WDDatas@@0P$AAVWDMeanGrpComparer@2@$AA
	ret		
 .end ?.cctor@WDMean@WDDatas@@$$FSMXXZ			; ?.cctor@WDMean@WDDatas@@$$FSMXXZ
;	.proc.end.void
.global	
	.bss
.local	,4
; Function compile flags: /Ogtp
	.text
	.comdat	any, ?<Dispose>@WDTrans@WDDatas@@$$FM$AAMX_N@Z
.global	?<Dispose>@WDTrans@WDDatas@@$$FM$AAMX_N@Z	; WDDatas::WDTrans::<Dispose>
?<Dispose>@WDTrans@WDDatas@@$$FM$AAMX_N@Z:		; WDDatas::WDTrans::<Dispose>
;	.proc.def	D:V(I)

; Function Header:
; max stack depth = 2
; function size = 27 bytes
; local varsig tk = 0x0 
; Exception Information:
; 1 handlers, each consisting of filtered handlers

;	.formal.mptr 0,"this$" SIG: Optional C Binding Modifier(token:0x4457C9).class (token:0x4457CB)
;	.formal.u1 1,"disposing$" SIG: bool

;	.proc.beg
	ldarg.1				; disposing$
	brfalse.s	$LN3@
$LN13@:
	ldarg.0				; this$
	call		??1WDTrans@WDDatas@@$$FA$AAM@XZ
$LN2@:
	leave.s		$LN12@
$LN7@:
	ldarg.0				; this$
	ldc.i.1		1		; u8 0x1
	call		?<Dispose>@WDRec@WDDatas@@$$FM$AAMX_N@Z
$LN9@:
	endfinally	
$LN3@:
	ldarg.0				; this$
	ldc.i.0		0		; u8 0x0
	call		?<Dispose>@WDRec@WDDatas@@$$FM$AAMX_N@Z
$LN12@:
	ret		
 .end ?<Dispose>@WDTrans@WDDatas@@$$FM$AAMX_N@Z		; WDDatas::WDTrans::<Dispose>
;	.proc.end.void
.global	
	.bss
.local	,4
; Function compile flags: /Ogtp
	.text
	.comdat	any, ?<Dispose>@WDRelation@WDDatas@@$$FM$AAMX_N@Z
.global	?<Dispose>@WDRelation@WDDatas@@$$FM$AAMX_N@Z	; WDDatas::WDRelation::<Dispose>
?<Dispose>@WDRelation@WDDatas@@$$FM$AAMX_N@Z:		; WDDatas::WDRelation::<Dispose>
;	.proc.def	D:V(I)

; Function Header:
; max stack depth = 2
; function size = 27 bytes
; local varsig tk = 0x0 
; Exception Information:
; 1 handlers, each consisting of filtered handlers

;	.formal.mptr 0,"this$" SIG: Optional C Binding Modifier(token:0x44567D).class (token:0x44567F)
;	.formal.u1 1,"disposing$" SIG: bool

;	.proc.beg
	ldarg.1				; disposing$
	brfalse.s	$LN3@
$LN13@:
	ldarg.0				; this$
	call		??1WDRelation@WDDatas@@$$FA$AAM@XZ
$LN2@:
	leave.s		$LN12@
$LN7@:
	ldarg.0				; this$
	ldc.i.1		1		; u8 0x1
	call		?<Dispose>@WDRec@WDDatas@@$$FM$AAMX_N@Z
$LN9@:
	endfinally	
$LN3@:
	ldarg.0				; this$
	ldc.i.0		0		; u8 0x0
	call		?<Dispose>@WDRec@WDDatas@@$$FM$AAMX_N@Z
$LN12@:
	ret		
 .end ?<Dispose>@WDRelation@WDDatas@@$$FM$AAMX_N@Z	; WDDatas::WDRelation::<Dispose>
;	.proc.end.void
.global	
	.bss
.local	,4
; Function compile flags: /Ogtp
	.text
	.comdat	any, ?<Dispose>@WDSegment@WDDatas@@$$FM$AAMX_N@Z
.global	?<Dispose>@WDSegment@WDDatas@@$$FM$AAMX_N@Z	; WDDatas::WDSegment::<Dispose>
?<Dispose>@WDSegment@WDDatas@@$$FM$AAMX_N@Z:		; WDDatas::WDSegment::<Dispose>
;	.proc.def	D:V(I)

; Function Header:
; max stack depth = 2
; function size = 27 bytes
; local varsig tk = 0x0 
; Exception Information:
; 1 handlers, each consisting of filtered handlers

;	.formal.mptr 0,"this$" SIG: Optional C Binding Modifier(token:0x4454A5).class (token:0x4454A7)
;	.formal.u1 1,"disposing$" SIG: bool

;	.proc.beg
	ldarg.1				; disposing$
	brfalse.s	$LN3@
$LN13@:
	ldarg.0				; this$
	call		??1WDSegment@WDDatas@@$$FA$AAM@XZ
$LN2@:
	leave.s		$LN12@
$LN7@:
	ldarg.0				; this$
	ldc.i.1		1		; u8 0x1
	call		?<Dispose>@WDRec@WDDatas@@$$FM$AAMX_N@Z
$LN9@:
	endfinally	
$LN3@:
	ldarg.0				; this$
	ldc.i.0		0		; u8 0x0
	call		?<Dispose>@WDRec@WDDatas@@$$FM$AAMX_N@Z
$LN12@:
	ret		
 .end ?<Dispose>@WDSegment@WDDatas@@$$FM$AAMX_N@Z	; WDDatas::WDSegment::<Dispose>
;	.proc.end.void
.global	?GroupLt@WDGroup@WDDatas@@3P$01AEA		; WDDatas::WDGroup::GroupLt
.global	?GroupGt@WDGroup@WDDatas@@3P$01AEA		; WDDatas::WDGroup::GroupGt
.global	
	.bss
.local	?GroupLt@WDGroup@WDDatas@@3P$01AEA,4		; WDDatas::WDGroup::GroupLt
.local	?GroupGt@WDGroup@WDDatas@@3P$01AEA,4		; WDDatas::WDGroup::GroupGt
.local	$TypeTok$110DD6FC$,4
.local	,4
; Function compile flags: /Ogtp
	.text
	.comdat	noduplicate, ??0WDGroup@WDDatas@@$$FQ$AAM@XZ
.global	??0WDGroup@WDDatas@@$$FQ$AAM@XZ			; WDDatas::WDGroup::WDGroup
??0WDGroup@WDDatas@@$$FQ$AAM@XZ:			; WDDatas::WDGroup::WDGroup
;	.proc.def	D:V()

; Function Header:
; max stack depth = 2
; function size = 41 bytes
; local varsig tk = 0x0 
; Exception Information:
; 1 handlers, each consisting of filtered handlers

;	.formal.mptr 0,"this$" SIG: Optional C Binding Modifier(token:0x4455F1).class (token:0x4455F3)

;	.proc.beg
; File c:\users\amotoo\documents\myproject\worddicbt\wddatas\wdgroup.cpp
; Line 23
	ldarg.0				; this$
	call		??0Object@System@@$$FQ$AAM@XZ
$LN6@WDGroup:
; Line 25
	ldarg.0				; this$
	ldc.i.2		2		; i32 0x2
	newarr		$TypeTok$110DD6FC$
	stfld		?GroupGt@WDGroup@WDDatas@@3P$01AEA
; Line 26
	ldarg.0				; this$
	ldc.i.2		2		; i32 0x2
	newarr		$TypeTok$110DD6FC$
	stfld		?GroupLt@WDGroup@WDDatas@@3P$01AEA
	leave.s		$LN7@WDGroup
$LN8@WDGroup:
	ldarg.0				; this$
	ldc.i.1		1		; u8 0x1
	call		?<Dispose>@WDRec@WDDatas@@$$FM$AAMX_N@Z
	endfinally	
$LN7@WDGroup:
; Line 28
	ret		
 .end ??0WDGroup@WDDatas@@$$FQ$AAM@XZ			; WDDatas::WDGroup::WDGroup
;	.proc.end.void
.global	?ShortName@WDGroup@WDDatas@@3P$AAVString@System@@$AA ; WDDatas::WDGroup::ShortName
.global	?Name@WDGroup@WDDatas@@3P$AAVString@System@@$AA	; WDDatas::WDGroup::Name
	.bss
.local	?ShortName@WDGroup@WDDatas@@3P$AAVString@System@@$AA,4 ; WDDatas::WDGroup::ShortName
.local	?Name@WDGroup@WDDatas@@3P$AAVString@System@@$AA,4 ; WDDatas::WDGroup::Name
; Function compile flags: /Ogtp
	.text
	.comdat	noduplicate, ??1WDGroup@WDDatas@@$$FA$AAM@XZ
.global	??1WDGroup@WDDatas@@$$FA$AAM@XZ			; WDDatas::WDGroup::~WDGroup
??1WDGroup@WDDatas@@$$FA$AAM@XZ:			; WDDatas::WDGroup::~WDGroup
;	.proc.def	D:V()

; Function Header:
; max stack depth = 2
; function size = 41 bytes
; local varsig tk = 0x0 
; Exception Information:
; 0 handlers, each consisting of filtered handlers

;	.formal.mptr 0,"this$" SIG: Optional C Binding Modifier(token:0x4455F1).class (token:0x4455F3)

;	.proc.beg
; Line 73
	ldarg.0				; this$
	ldnull		0		; i32 0x0
	stfld		?GroupGt@WDGroup@WDDatas@@3P$01AEA
; Line 74
	ldarg.0				; this$
	ldnull		0		; i32 0x0
	stfld		?GroupLt@WDGroup@WDDatas@@3P$01AEA
; Line 75
	ldarg.0				; this$
	ldfld		?Name@WDGroup@WDDatas@@3P$AAVString@System@@$AA
	ldnull		0		; i32 0x0
	call		??9String@System@@$$FSM_NP$AAV01@0@Z
	pop		
; Line 76
	ldarg.0				; this$
	ldfld		?ShortName@WDGroup@WDDatas@@3P$AAVString@System@@$AA
	ldnull		0		; i32 0x0
	call		??9String@System@@$$FSM_NP$AAV01@0@Z
	pop		
; Line 77
	ret		
 .end ??1WDGroup@WDDatas@@$$FA$AAM@XZ			; WDDatas::WDGroup::~WDGroup
;	.proc.end.void
; Function compile flags: /Ogtp
	.text
	.comdat	noduplicate, ?Length@WDGroup@WDDatas@@$$FSMHXZ
.global	?Length@WDGroup@WDDatas@@$$FSMHXZ		; WDDatas::WDGroup::Length
?Length@WDGroup@WDDatas@@$$FSMHXZ:			; WDDatas::WDGroup::Length
;	.proc.def	D:I()

; Function Header:
; max stack depth = 1
; function size = 3 bytes
; local varsig tk = 0x0 
; Exception Information:
; 0 handlers, each consisting of filtered handlers


;	.proc.beg
; Line 313
	ldc.i4.s	100		; i32 0x64
	ret		
 .end ?Length@WDGroup@WDDatas@@$$FSMHXZ			; WDDatas::WDGroup::Length
;	.proc.end.i4
; Function compile flags: /Ogtp
	.text
	.comdat	noduplicate, ?RecLength@WDGroup@WDDatas@@$$FU$AAMHXZ
.global	?RecLength@WDGroup@WDDatas@@$$FU$AAMHXZ		; WDDatas::WDGroup::RecLength
?RecLength@WDGroup@WDDatas@@$$FU$AAMHXZ:		; WDDatas::WDGroup::RecLength
;	.proc.def	D:I()

; Function Header:
; max stack depth = 2
; function size = 9 bytes
; local varsig tk = 0x0 
; Exception Information:
; 0 handlers, each consisting of filtered handlers


;	.proc.beg
; Line 319
	call		?getHeaderLength@DataRecord@FJIsam@@$$FSMHXZ
	ldc.i4.s	100		; i32 0x64
	add		
	ret		
 .end ?RecLength@WDGroup@WDDatas@@$$FU$AAMHXZ		; WDDatas::WDGroup::RecLength
;	.proc.end.i4
.global	?ErrorCode2@WDDatasException@WDDatas@@3HA	; WDDatas::WDDatasException::ErrorCode2
.global	?ErrorCode@WDDatasException@WDDatas@@3HA	; WDDatas::WDDatasException::ErrorCode
.global	
.global	
.global	
	.bss
.local	$T12140,0
.local	$StringLiteralTok$??_C@_1CA@PDKIJOOO@0?G0?$PM0?$LP0n0?$LD0?T0?$PM0kY1eW0W0?$HO0W0_0?$AC?$AA?$AA@,4
.local	?ErrorCode2@WDDatasException@WDDatas@@3HA,4	; WDDatas::WDDatasException::ErrorCode2
.local	?ErrorCode@WDDatasException@WDDatas@@3HA,4	; WDDatas::WDDatasException::ErrorCode
.local	$StringLiteralTok$??_C@_1CA@DCBKAEPK@0?$LD0?T0?$PMQH0?G0?$PM0?$LP?$JFw0Lw?m0Y0N0?$HO0Y0?$AC?$AA?$AA@,4
.local	,4
.local	,4
.local	,4
; Function compile flags: /Ogtp
	.text
	.comdat	noduplicate, ?getGroupGt@WDGroup@WDDatas@@$$FQ$AAMP$01AEP$01AE@Z
.global	?getGroupGt@WDGroup@WDDatas@@$$FQ$AAMP$01AEP$01AE@Z ; WDDatas::WDGroup::getGroupGt
?getGroupGt@WDGroup@WDDatas@@$$FQ$AAMP$01AEP$01AE@Z:	; WDDatas::WDGroup::getGroupGt
;	.proc.def	D:P(P)

; Function Header:
; max stack depth = 5
; function size = 159 bytes
; local varsig tk = 0x1100000D 
; Exception Information:
; 2 handlers, each consisting of filtered handlers

;	.formal.mptr 0,"this$" SIG: Optional C Binding Modifier(token:0x4455F1).class (token:0x4455F3)
;	.formal.mptr 1,"inData$" SIG: szarray (token:0x445025)
;	.local.mptr 0,"tmpWDDataException$11651" SIG: class (token:0x442841)
;	.local.mptr 4,"exp$11650" SIG: class (token:0x4427B5)
;	.local.mptr 3,"rtData$11646" SIG: szarray (token:0x445025)
;	.local.mptr 1,"tmpWDDataException$11641" SIG: class (token:0x442841)
;	.local.mptr 5,"exp$11640" SIG: class (token:0x4427B5)
;	.local.mptr 2,"tmpWDDataException$11585" SIG: class (token:0x442841)

;	.proc.beg
; Line 327
	ldarg.1				; inData$
	brfalse.s	$LN5@getGroupGt
; Line 329
	ldarg.1				; inData$
	ldlen		
	ldc.i.2		2		; i32 0x2
	bge.s		$LN4@getGroupGt
; Line 332
	ldstr		$StringLiteralTok$??_C@_1CA@DCBKAEPK@0?$LD0?T0?$PMQH0?G0?$PM0?$LP?$JFw0Lw?m0Y0N0?$HO0Y0?$AC?$AA?$AA@
	newobj		??0WDDatasException@WDDatas@@$$FQ$AAM@P$AAVString@System@@@Z
	stloc.2				; tmpWDDataException$11585
; Line 333
	ldloc.2				; tmpWDDataException$11585
	ldc.i4		10306		; i32 0x2842
	stfld		?ErrorCode@WDDatasException@WDDatas@@3HA
; Line 334
	ldloc.2				; tmpWDDataException$11585
	ldc.i.1		1		; i32 0x1
	stfld		?ErrorCode2@WDDatasException@WDDatas@@3HA
; Line 335
	ldloc.2				; tmpWDDataException$11585
	throw.u2	
$LN4@getGroupGt:
	nop		
$LN25@getGroupGt:
; Line 340
	ldarg.0				; this$
	ldfld		?GroupGt@WDGroup@WDDatas@@3P$01AEA
	ldc.i.0		0		; i32 0x0
	ldarg.1				; inData$
	ldc.i.0		0		; i32 0x0
	ldc.i.2		2		; i32 0x2
	call		?BlockCopy@Buffer@System@@$$FSMXP$AAVArray@2@H0HH@Z
	leave.s		$LN8@getGroupGt
__catch$?getGroupGt@WDGroup@WDDatas@@$$FQ$AAMP$01AEP$01AE@Z$0:
; Line 341
	imp.push	
	stloc.s		5		; exp$11640
; Line 343
	ldstr		$StringLiteralTok$??_C@_1CA@PDKIJOOO@0?G0?$PM0?$LP0n0?$LD0?T0?$PM0kY1eW0W0?$HO0W0_0?$AC?$AA?$AA@
	ldloc.s		5		; exp$11640
	newobj		??0WDDatasException@WDDatas@@$$FQ$AAM@P$AAVString@System@@P$AAVException@3@@Z
	stloc.1				; tmpWDDataException$11641
; Line 344
	ldloc.1				; tmpWDDataException$11641
	ldc.i4		10306		; i32 0x2842
	stfld		?ErrorCode@WDDatasException@WDDatas@@3HA
; Line 345
	ldloc.1				; tmpWDDataException$11641
	ldc.i.2		2		; i32 0x2
	stfld		?ErrorCode2@WDDatasException@WDDatas@@3HA
; Line 346
	ldloc.1				; tmpWDDataException$11641
	throw.u2	
$LN15@getGroupGt:
	leave.s		$LN8@getGroupGt
$LN8@getGroupGt:
; Line 348
	ldarg.1				; inData$
	ret		
$LN5@getGroupGt:
; Line 352
	ldc.i.2		2		; i32 0x2
	newarr		$TypeTok$110DD6FC$
	stloc.3				; rtData$11646
$LN26@getGroupGt:
; Line 355
	ldarg.0				; this$
	ldfld		?GroupGt@WDGroup@WDDatas@@3P$01AEA
	ldc.i.0		0		; i32 0x0
	ldloc.3				; rtData$11646
	ldc.i.0		0		; i32 0x0
	ldc.i.2		2		; i32 0x2
	call		?BlockCopy@Buffer@System@@$$FSMXP$AAVArray@2@H0HH@Z
	leave.s		$LN10@getGroupGt
__catch$?getGroupGt@WDGroup@WDDatas@@$$FQ$AAMP$01AEP$01AE@Z$2:
; Line 356
	imp.push	
	stloc.s		4		; exp$11650
; Line 358
	ldstr		$StringLiteralTok$??_C@_1CA@PDKIJOOO@0?G0?$PM0?$LP0n0?$LD0?T0?$PM0kY1eW0W0?$HO0W0_0?$AC?$AA?$AA@
	ldloc.s		4		; exp$11650
	newobj		??0WDDatasException@WDDatas@@$$FQ$AAM@P$AAVString@System@@P$AAVException@3@@Z
	stloc.0				; tmpWDDataException$11651
; Line 359
	ldloc.0				; tmpWDDataException$11651
	ldc.i4		10306		; i32 0x2842
	stfld		?ErrorCode@WDDatasException@WDDatas@@3HA
; Line 360
	ldloc.0				; tmpWDDataException$11651
	ldc.i.3		3		; i32 0x3
	stfld		?ErrorCode2@WDDatasException@WDDatas@@3HA
; Line 361
	ldloc.0				; tmpWDDataException$11651
	throw.u2	
$LN19@getGroupGt:
	leave.s		$LN10@getGroupGt
$LN10@getGroupGt:
; Line 364
	ldloc.3				; rtData$11646
	ret		
 .end ?getGroupGt@WDGroup@WDDatas@@$$FQ$AAMP$01AEP$01AE@Z ; WDDatas::WDGroup::getGroupGt
;	.proc.end.mptr
	.bss
.local	$T12165,0
; Function compile flags: /Ogtp
	.text
	.comdat	noduplicate, ?getGroupLt@WDGroup@WDDatas@@$$FQ$AAMP$01AEP$01AE@Z
.global	?getGroupLt@WDGroup@WDDatas@@$$FQ$AAMP$01AEP$01AE@Z ; WDDatas::WDGroup::getGroupLt
?getGroupLt@WDGroup@WDDatas@@$$FQ$AAMP$01AEP$01AE@Z:	; WDDatas::WDGroup::getGroupLt
;	.proc.def	D:P(P)

; Function Header:
; max stack depth = 5
; function size = 159 bytes
; local varsig tk = 0x1100000D 
; Exception Information:
; 2 handlers, each consisting of filtered handlers

;	.formal.mptr 0,"this$" SIG: Optional C Binding Modifier(token:0x4455F1).class (token:0x4455F3)
;	.formal.mptr 1,"inData$" SIG: szarray (token:0x445025)
;	.local.mptr 0,"tmpWDDataException$11674" SIG: class (token:0x442841)
;	.local.mptr 4,"exp$11673" SIG: class (token:0x4427B5)
;	.local.mptr 3,"rtData$11669" SIG: szarray (token:0x445025)
;	.local.mptr 1,"tmpWDDataException$11665" SIG: class (token:0x442841)
;	.local.mptr 5,"exp$11664" SIG: class (token:0x4427B5)
;	.local.mptr 2,"tmpWDDataException$11661" SIG: class (token:0x442841)

;	.proc.beg
; Line 371
	ldarg.1				; inData$
	brfalse.s	$LN5@getGroupLt
; Line 373
	ldarg.1				; inData$
	ldlen		
	ldc.i.2		2		; i32 0x2
	bge.s		$LN4@getGroupLt
; Line 376
	ldstr		$StringLiteralTok$??_C@_1CA@DCBKAEPK@0?$LD0?T0?$PMQH0?G0?$PM0?$LP?$JFw0Lw?m0Y0N0?$HO0Y0?$AC?$AA?$AA@
	newobj		??0WDDatasException@WDDatas@@$$FQ$AAM@P$AAVString@System@@@Z
	stloc.2				; tmpWDDataException$11661
; Line 377
	ldloc.2				; tmpWDDataException$11661
	ldc.i4		10307		; i32 0x2843
	stfld		?ErrorCode@WDDatasException@WDDatas@@3HA
; Line 378
	ldloc.2				; tmpWDDataException$11661
	ldc.i.1		1		; i32 0x1
	stfld		?ErrorCode2@WDDatasException@WDDatas@@3HA
; Line 379
	ldloc.2				; tmpWDDataException$11661
	throw.u2	
$LN4@getGroupLt:
	nop		
$LN25@getGroupLt:
; Line 384
	ldarg.0				; this$
	ldfld		?GroupLt@WDGroup@WDDatas@@3P$01AEA
	ldc.i.0		0		; i32 0x0
	ldarg.1				; inData$
	ldc.i.0		0		; i32 0x0
	ldc.i.2		2		; i32 0x2
	call		?BlockCopy@Buffer@System@@$$FSMXP$AAVArray@2@H0HH@Z
	leave.s		$LN8@getGroupLt
__catch$?getGroupLt@WDGroup@WDDatas@@$$FQ$AAMP$01AEP$01AE@Z$0:
; Line 385
	imp.push	
	stloc.s		5		; exp$11664
; Line 387
	ldstr		$StringLiteralTok$??_C@_1CA@PDKIJOOO@0?G0?$PM0?$LP0n0?$LD0?T0?$PM0kY1eW0W0?$HO0W0_0?$AC?$AA?$AA@
	ldloc.s		5		; exp$11664
	newobj		??0WDDatasException@WDDatas@@$$FQ$AAM@P$AAVString@System@@P$AAVException@3@@Z
	stloc.1				; tmpWDDataException$11665
; Line 388
	ldloc.1				; tmpWDDataException$11665
	ldc.i4		10307		; i32 0x2843
	stfld		?ErrorCode@WDDatasException@WDDatas@@3HA
; Line 389
	ldloc.1				; tmpWDDataException$11665
	ldc.i.2		2		; i32 0x2
	stfld		?ErrorCode2@WDDatasException@WDDatas@@3HA
; Line 390
	ldloc.1				; tmpWDDataException$11665
	throw.u2	
$LN15@getGroupLt:
	leave.s		$LN8@getGroupLt
$LN8@getGroupLt:
; Line 392
	ldarg.1				; inData$
	ret		
$LN5@getGroupLt:
; Line 396
	ldc.i.2		2		; i32 0x2
	newarr		$TypeTok$110DD6FC$
	stloc.3				; rtData$11669
$LN26@getGroupLt:
; Line 399
	ldarg.0				; this$
	ldfld		?GroupLt@WDGroup@WDDatas@@3P$01AEA
	ldc.i.0		0		; i32 0x0
	ldloc.3				; rtData$11669
	ldc.i.0		0		; i32 0x0
	ldc.i.2		2		; i32 0x2
	call		?BlockCopy@Buffer@System@@$$FSMXP$AAVArray@2@H0HH@Z
	leave.s		$LN10@getGroupLt
__catch$?getGroupLt@WDGroup@WDDatas@@$$FQ$AAMP$01AEP$01AE@Z$2:
; Line 400
	imp.push	
	stloc.s		4		; exp$11673
; Line 402
	ldstr		$StringLiteralTok$??_C@_1CA@PDKIJOOO@0?G0?$PM0?$LP0n0?$LD0?T0?$PM0kY1eW0W0?$HO0W0_0?$AC?$AA?$AA@
	ldloc.s		4		; exp$11673
	newobj		??0WDDatasException@WDDatas@@$$FQ$AAM@P$AAVString@System@@P$AAVException@3@@Z
	stloc.0				; tmpWDDataException$11674
; Line 403
	ldloc.0				; tmpWDDataException$11674
	ldc.i4		10307		; i32 0x2843
	stfld		?ErrorCode@WDDatasException@WDDatas@@3HA
; Line 404
	ldloc.0				; tmpWDDataException$11674
	ldc.i.3		3		; i32 0x3
	stfld		?ErrorCode2@WDDatasException@WDDatas@@3HA
; Line 405
	ldloc.0				; tmpWDDataException$11674
	throw.u2	
$LN19@getGroupLt:
	leave.s		$LN10@getGroupLt
$LN10@getGroupLt:
; Line 408
	ldloc.3				; rtData$11669
	ret		
 .end ?getGroupLt@WDGroup@WDDatas@@$$FQ$AAMP$01AEP$01AE@Z ; WDDatas::WDGroup::getGroupLt
;	.proc.end.mptr
.global	
	.bss
.local	$T12170,0
.local	$StringLiteralTok$??_C@_11LOCGONAA@?$AA?$AA@,4
.local	$va_argTok$_W,4
.local	$TypeTok$110031CC$,4
.local	,4
; Function compile flags: /Ogtp
	.text
	.comdat	noduplicate, ?getName@WDGroup@WDDatas@@$$FQ$AAMP$AAVString@System@@P$AAV34@@Z
.global	?getName@WDGroup@WDDatas@@$$FQ$AAMP$AAVString@System@@P$AAV34@@Z ; WDDatas::WDGroup::getName
?getName@WDGroup@WDDatas@@$$FQ$AAMP$AAVString@System@@P$AAV34@@Z: ; WDDatas::WDGroup::getName
;	.proc.def	D:P(P)

; Function Header:
; max stack depth = 3
; function size = 82 bytes
; local varsig tk = 0x1100000F 
; Exception Information:
; 0 handlers, each consisting of filtered handlers

;	.formal.mptr 0,"this$" SIG: Optional C Binding Modifier(token:0x4455F1).class (token:0x4455F3)
;	.formal.mptr 1,"inData$" SIG: string
;	.local.mptr 0,"$T11778" SIG: szarray (token:0x448FF5)

;	.proc.beg
; Line 415
	ldarg.1				; inData$
	ldnull		0		; i32 0x0
	call		??9String@System@@$$FSM_NP$AAV01@0@Z
	brfalse.s	$LN4@getName
; Line 417
	ldarg.1				; inData$
	ldc.i.0		0		; i32 0x0
	call		?Remove@String@System@@$$FQ$AAMP$AAV12@H@Z
	pop		
; Line 418
	ldarg.1				; inData$
	ldc.i.0		0		; i32 0x0
	ldarg.0				; this$
	ldfld		?Name@WDGroup@WDDatas@@3P$AAVString@System@@$AA
	call		?Insert@String@System@@$$FQ$AAMP$AAV12@HP$AAV12@@Z
	pop		
; Line 419
	ldarg.1				; inData$
	ret		
$LN4@getName:
; Line 421
	ldarg.0				; this$
	ldfld		?Name@WDGroup@WDDatas@@3P$AAVString@System@@$AA
	call		?get@Length@String@System@@$$FQ$AAMHXZ
	ldc.i.0		0		; i32 0x0
	ble.s		$LN2@getName
; Line 423
	ldc.i.1		1		; i32 0x1
	newarr		$TypeTok$110031CC$
	stloc.0				; $T11778
	ldloc.0				; $T11778
	ldc.i.0		0		; i32 0x0
	ldelema		$va_argTok$_W
	ldc.i.0		0		; u16 0x0
	stind.i2	
	ldarg.0				; this$
	ldfld		?Name@WDGroup@WDDatas@@3P$AAVString@System@@$AA
	ldloc.0				; $T11778
	call		?Trim@String@System@@$$FQ$AAMP$AAV12@P$01A_W@Z
	ret		
$LN2@getName:
; Line 425
	ldstr		$StringLiteralTok$??_C@_11LOCGONAA@?$AA?$AA@
	ret		
 .end ?getName@WDGroup@WDDatas@@$$FQ$AAMP$AAVString@System@@P$AAV34@@Z ; WDDatas::WDGroup::getName
;	.proc.end.mptr
	.bss
.local	$T12173,0
; Function compile flags: /Ogtp
	.text
	.comdat	noduplicate, ?getShortName@WDGroup@WDDatas@@$$FQ$AAMP$AAVString@System@@P$AAV34@@Z
.global	?getShortName@WDGroup@WDDatas@@$$FQ$AAMP$AAVString@System@@P$AAV34@@Z ; WDDatas::WDGroup::getShortName
?getShortName@WDGroup@WDDatas@@$$FQ$AAMP$AAVString@System@@P$AAV34@@Z: ; WDDatas::WDGroup::getShortName
;	.proc.def	D:P(P)

; Function Header:
; max stack depth = 3
; function size = 82 bytes
; local varsig tk = 0x1100000F 
; Exception Information:
; 0 handlers, each consisting of filtered handlers

;	.formal.mptr 0,"this$" SIG: Optional C Binding Modifier(token:0x4455F1).class (token:0x4455F3)
;	.formal.mptr 1,"inData$" SIG: string
;	.local.mptr 0,"$T11792" SIG: szarray (token:0x448FF5)

;	.proc.beg
; Line 433
	ldarg.1				; inData$
	ldnull		0		; i32 0x0
	call		??9String@System@@$$FSM_NP$AAV01@0@Z
	brfalse.s	$LN4@getShortNa
; Line 435
	ldarg.1				; inData$
	ldc.i.0		0		; i32 0x0
	call		?Remove@String@System@@$$FQ$AAMP$AAV12@H@Z
	pop		
; Line 436
	ldarg.1				; inData$
	ldc.i.0		0		; i32 0x0
	ldarg.0				; this$
	ldfld		?ShortName@WDGroup@WDDatas@@3P$AAVString@System@@$AA
	call		?Insert@String@System@@$$FQ$AAMP$AAV12@HP$AAV12@@Z
	pop		
; Line 437
	ldarg.1				; inData$
	ret		
$LN4@getShortNa:
; Line 439
	ldarg.0				; this$
	ldfld		?ShortName@WDGroup@WDDatas@@3P$AAVString@System@@$AA
	call		?get@Length@String@System@@$$FQ$AAMHXZ
	ldc.i.0		0		; i32 0x0
	ble.s		$LN2@getShortNa
; Line 441
	ldc.i.1		1		; i32 0x1
	newarr		$TypeTok$110031CC$
	stloc.0				; $T11792
	ldloc.0				; $T11792
	ldc.i.0		0		; i32 0x0
	ldelema		$va_argTok$_W
	ldc.i.0		0		; u16 0x0
	stind.i2	
	ldarg.0				; this$
	ldfld		?ShortName@WDGroup@WDDatas@@3P$AAVString@System@@$AA
	ldloc.0				; $T11792
	call		?Trim@String@System@@$$FQ$AAMP$AAV12@P$01A_W@Z
	ret		
$LN2@getShortNa:
; Line 443
	ldstr		$StringLiteralTok$??_C@_11LOCGONAA@?$AA?$AA@
	ret		
 .end ?getShortName@WDGroup@WDDatas@@$$FQ$AAMP$AAVString@System@@P$AAV34@@Z ; WDDatas::WDGroup::getShortName
;	.proc.end.mptr
	.bss
.local	$T12188,0
.local	$StringLiteralTok$??_C@_1CA@BHLJLMME@R?$AG?$JI?$FOY?80n?$IK?9?$FL?$JK0k0W0?Q0?$KE0W0?$HO0W0_0?$AC?$AA?$AA@,4
.local	$StringLiteralTok$??_C@_1BG@KNLCOGMJ@R?$AG?$JI?$FOY?80Lw?m0Y0N0?$HO0Y0?$AC?$AA?$AA@,4
.local	$StringLiteralTok$??_C@_1BG@MPOCHEAG@R?$AG?$JI?$FOY?80Lg?$CK?$IK?9?$FL?$JK0g0Y0?$AC?$AA?$AA@,4
; Function compile flags: /Ogtp
	.text
	.comdat	noduplicate, ?setGroupGt@WDGroup@WDDatas@@$$FQ$AAMXP$01AE@Z
.global	?setGroupGt@WDGroup@WDDatas@@$$FQ$AAMXP$01AE@Z	; WDDatas::WDGroup::setGroupGt
?setGroupGt@WDGroup@WDDatas@@$$FQ$AAMXP$01AE@Z:		; WDDatas::WDGroup::setGroupGt
;	.proc.def	D:V(P)

; Function Header:
; max stack depth = 5
; function size = 124 bytes
; local varsig tk = 0x11000010 
; Exception Information:
; 1 handlers, each consisting of filtered handlers

;	.formal.mptr 0,"this$" SIG: Optional C Binding Modifier(token:0x4455F1).class (token:0x4455F3)
;	.formal.mptr 1,"inData$" SIG: szarray (token:0x445025)
;	.local.mptr 0,"tmpWDDataException$11810" SIG: class (token:0x442841)
;	.local.mptr 3,"exp$11809" SIG: class (token:0x4427B5)
;	.local.mptr 1,"tmpWDDataException$11805" SIG: class (token:0x442841)
;	.local.mptr 2,"tmpWDDataException$11801" SIG: class (token:0x442841)

;	.proc.beg
; Line 453
	ldarg.1				; inData$
	brtrue.s	$LN3@setGroupGt
; Line 456
	ldstr		$StringLiteralTok$??_C@_1BG@MPOCHEAG@R?$AG?$JI?$FOY?80Lg?$CK?$IK?9?$FL?$JK0g0Y0?$AC?$AA?$AA@
	newobj		??0WDDatasException@WDDatas@@$$FQ$AAM@P$AAVString@System@@@Z
	stloc.2				; tmpWDDataException$11801
; Line 457
	ldloc.2				; tmpWDDataException$11801
	ldc.i4		10308		; i32 0x2844
	stfld		?ErrorCode@WDDatasException@WDDatas@@3HA
; Line 458
	ldloc.2				; tmpWDDataException$11801
	ldc.i.1		1		; i32 0x1
	stfld		?ErrorCode2@WDDatasException@WDDatas@@3HA
; Line 459
	ldloc.2				; tmpWDDataException$11801
	throw.u2	
$LN3@setGroupGt:
; Line 461
	ldarg.1				; inData$
	ldlen		
	ldc.i.2		2		; i32 0x2
	bge.s		$LN2@setGroupGt
; Line 464
	ldstr		$StringLiteralTok$??_C@_1BG@KNLCOGMJ@R?$AG?$JI?$FOY?80Lw?m0Y0N0?$HO0Y0?$AC?$AA?$AA@
	newobj		??0WDDatasException@WDDatas@@$$FQ$AAM@P$AAVString@System@@@Z
	stloc.1				; tmpWDDataException$11805
; Line 465
	ldloc.1				; tmpWDDataException$11805
	ldc.i4		10308		; i32 0x2844
	stfld		?ErrorCode@WDDatasException@WDDatas@@3HA
; Line 466
	ldloc.1				; tmpWDDataException$11805
	ldc.i.2		2		; i32 0x2
	stfld		?ErrorCode2@WDDatasException@WDDatas@@3HA
; Line 467
	ldloc.1				; tmpWDDataException$11805
	throw.u2	
$LN2@setGroupGt:
	nop		
$LN15@setGroupGt:
; Line 473
	ldarg.1				; inData$
	ldc.i.0		0		; i32 0x0
	ldarg.0				; this$
	ldfld		?GroupGt@WDGroup@WDDatas@@3P$01AEA
	ldc.i.0		0		; i32 0x0
	ldc.i.2		2		; i32 0x2
	call		?BlockCopy@Buffer@System@@$$FSMXP$AAVArray@2@H0HH@Z
	leave.s		$LN6@setGroupGt
__catch$?setGroupGt@WDGroup@WDDatas@@$$FQ$AAMXP$01AE@Z$0:
; Line 474
	imp.push	
	stloc.3				; exp$11809
; Line 476
	ldstr		$StringLiteralTok$??_C@_1CA@BHLJLMME@R?$AG?$JI?$FOY?80n?$IK?9?$FL?$JK0k0W0?Q0?$KE0W0?$HO0W0_0?$AC?$AA?$AA@
	ldloc.3				; exp$11809
	newobj		??0WDDatasException@WDDatas@@$$FQ$AAM@P$AAVString@System@@P$AAVException@3@@Z
	stloc.0				; tmpWDDataException$11810
; Line 477
	ldloc.0				; tmpWDDataException$11810
	ldc.i4		10308		; i32 0x2844
	stfld		?ErrorCode@WDDatasException@WDDatas@@3HA
; Line 478
	ldloc.0				; tmpWDDataException$11810
	ldc.i.3		3		; i32 0x3
	stfld		?ErrorCode2@WDDatasException@WDDatas@@3HA
; Line 479
	ldloc.0				; tmpWDDataException$11810
	throw.u2	
$LN11@setGroupGt:
	leave.s		$LN6@setGroupGt
$LN6@setGroupGt:
$LN14@setGroupGt:
; Line 481
	ret		
 .end ?setGroupGt@WDGroup@WDDatas@@$$FQ$AAMXP$01AE@Z	; WDDatas::WDGroup::setGroupGt
;	.proc.end.void
	.bss
.local	$T12204,0
.local	$StringLiteralTok$??_C@_1CA@CDGEIHII@R?$AG?$JI?$FO?2?$AP0n?$IK?9?$FL?$JK0k0W0?Q0?$KE0W0?$HO0W0_0?$AC?$AA?$AA@,4
.local	$StringLiteralTok$??_C@_1BG@BDALBMHJ@R?$AG?$JI?$FO?2?$AP0Lw?m0Y0N0?$HO0Y0?$AC?$AA?$AA@,4
.local	$StringLiteralTok$??_C@_1BG@HBFLIOLG@R?$AG?$JI?$FO?2?$AP0Lg?$CK?$IK?9?$FL?$JK0g0Y0?$AC?$AA?$AA@,4
; Function compile flags: /Ogtp
	.text
	.comdat	noduplicate, ?setGroupLt@WDGroup@WDDatas@@$$FQ$AAMXP$01AE@Z
.global	?setGroupLt@WDGroup@WDDatas@@$$FQ$AAMXP$01AE@Z	; WDDatas::WDGroup::setGroupLt
?setGroupLt@WDGroup@WDDatas@@$$FQ$AAMXP$01AE@Z:		; WDDatas::WDGroup::setGroupLt
;	.proc.def	D:V(P)

; Function Header:
; max stack depth = 5
; function size = 124 bytes
; local varsig tk = 0x11000010 
; Exception Information:
; 1 handlers, each consisting of filtered handlers

;	.formal.mptr 0,"this$" SIG: Optional C Binding Modifier(token:0x4455F1).class (token:0x4455F3)
;	.formal.mptr 1,"inData$" SIG: szarray (token:0x445025)
;	.local.mptr 0,"tmpWDDataException$11828" SIG: class (token:0x442841)
;	.local.mptr 3,"exp$11827" SIG: class (token:0x4427B5)
;	.local.mptr 1,"tmpWDDataException$11823" SIG: class (token:0x442841)
;	.local.mptr 2,"tmpWDDataException$11819" SIG: class (token:0x442841)

;	.proc.beg
; Line 487
	ldarg.1				; inData$
	brtrue.s	$LN3@setGroupLt
; Line 490
	ldstr		$StringLiteralTok$??_C@_1BG@HBFLIOLG@R?$AG?$JI?$FO?2?$AP0Lg?$CK?$IK?9?$FL?$JK0g0Y0?$AC?$AA?$AA@
	newobj		??0WDDatasException@WDDatas@@$$FQ$AAM@P$AAVString@System@@@Z
	stloc.2				; tmpWDDataException$11819
; Line 491
	ldloc.2				; tmpWDDataException$11819
	ldc.i4		10309		; i32 0x2845
	stfld		?ErrorCode@WDDatasException@WDDatas@@3HA
; Line 492
	ldloc.2				; tmpWDDataException$11819
	ldc.i.1		1		; i32 0x1
	stfld		?ErrorCode2@WDDatasException@WDDatas@@3HA
; Line 493
	ldloc.2				; tmpWDDataException$11819
	throw.u2	
$LN3@setGroupLt:
; Line 495
	ldarg.1				; inData$
	ldlen		
	ldc.i.2		2		; i32 0x2
	bge.s		$LN2@setGroupLt
; Line 498
	ldstr		$StringLiteralTok$??_C@_1BG@BDALBMHJ@R?$AG?$JI?$FO?2?$AP0Lw?m0Y0N0?$HO0Y0?$AC?$AA?$AA@
	newobj		??0WDDatasException@WDDatas@@$$FQ$AAM@P$AAVString@System@@@Z
	stloc.1				; tmpWDDataException$11823
; Line 499
	ldloc.1				; tmpWDDataException$11823
	ldc.i4		10309		; i32 0x2845
	stfld		?ErrorCode@WDDatasException@WDDatas@@3HA
; Line 500
	ldloc.1				; tmpWDDataException$11823
	ldc.i.2		2		; i32 0x2
	stfld		?ErrorCode2@WDDatasException@WDDatas@@3HA
; Line 501
	ldloc.1				; tmpWDDataException$11823
	throw.u2	
$LN2@setGroupLt:
	nop		
$LN15@setGroupLt:
; Line 507
	ldarg.1				; inData$
	ldc.i.0		0		; i32 0x0
	ldarg.0				; this$
	ldfld		?GroupLt@WDGroup@WDDatas@@3P$01AEA
	ldc.i.0		0		; i32 0x0
	ldc.i.2		2		; i32 0x2
	call		?BlockCopy@Buffer@System@@$$FSMXP$AAVArray@2@H0HH@Z
	leave.s		$LN6@setGroupLt
__catch$?setGroupLt@WDGroup@WDDatas@@$$FQ$AAMXP$01AE@Z$0:
; Line 508
	imp.push	
	stloc.3				; exp$11827
; Line 510
	ldstr		$StringLiteralTok$??_C@_1CA@CDGEIHII@R?$AG?$JI?$FO?2?$AP0n?$IK?9?$FL?$JK0k0W0?Q0?$KE0W0?$HO0W0_0?$AC?$AA?$AA@
	ldloc.3				; exp$11827
	newobj		??0WDDatasException@WDDatas@@$$FQ$AAM@P$AAVString@System@@P$AAVException@3@@Z
	stloc.0				; tmpWDDataException$11828
; Line 511
	ldloc.0				; tmpWDDataException$11828
	ldc.i4		10309		; i32 0x2845
	stfld		?ErrorCode@WDDatasException@WDDatas@@3HA
; Line 512
	ldloc.0				; tmpWDDataException$11828
	ldc.i.3		3		; i32 0x3
	stfld		?ErrorCode2@WDDatasException@WDDatas@@3HA
; Line 513
	ldloc.0				; tmpWDDataException$11828
	throw.u2	
$LN11@setGroupLt:
	leave.s		$LN6@setGroupLt
$LN6@setGroupLt:
$LN14@setGroupLt:
; Line 516
	ret		
 .end ?setGroupLt@WDGroup@WDDatas@@$$FQ$AAMXP$01AE@Z	; WDDatas::WDGroup::setGroupLt
;	.proc.end.void
	.bss
.local	$T12220,0
.local	$StringLiteralTok$??_C@_1BM@MPHGEEDI@T?$ANy?p0n?$IK?9?$FL?$JK0kY1eW0W0?$HO0W0_0?$AC?$AA?$AA@,4
.local	$StringLiteralTok$??_C@_1BE@GCMCBLNC@T?$ANy?p0L?$JFw0Y0N0?$HO0Y0?$AC?$AA?$AA@,4
.local	$StringLiteralTok$??_C@_1BE@PJKBMKAK@T?$ANy?p0Lg?$CK?$IK?9?$FL?$JK0g0Y0?$AC?$AA?$AA@,4
; Function compile flags: /Ogtp
	.text
	.comdat	noduplicate, ?setName@WDGroup@WDDatas@@$$FQ$AAMXP$AAVString@System@@@Z
.global	?setName@WDGroup@WDDatas@@$$FQ$AAMXP$AAVString@System@@@Z ; WDDatas::WDGroup::setName
?setName@WDGroup@WDDatas@@$$FQ$AAMXP$AAVString@System@@@Z: ; WDDatas::WDGroup::setName
;	.proc.def	D:V(P)

; Function Header:
; max stack depth = 4
; function size = 147 bytes
; local varsig tk = 0x11000010 
; Exception Information:
; 1 handlers, each consisting of filtered handlers

;	.formal.mptr 0,"this$" SIG: Optional C Binding Modifier(token:0x4455F1).class (token:0x4455F3)
;	.formal.mptr 1,"inData$" SIG: string
;	.local.mptr 0,"tmpWDDataException$11847" SIG: class (token:0x442841)
;	.local.mptr 3,"exp$11846" SIG: class (token:0x4427B5)
;	.local.mptr 1,"tmpWDDataException$11840" SIG: class (token:0x442841)
;	.local.mptr 2,"tmpWDDataException$11836" SIG: class (token:0x442841)

;	.proc.beg
; Line 522
	ldarg.1				; inData$
	ldnull		0		; i32 0x0
	call		??8String@System@@$$FSM_NP$AAV01@0@Z
	brfalse.s	$LN4@setName
; Line 525
	ldstr		$StringLiteralTok$??_C@_1BE@PJKBMKAK@T?$ANy?p0Lg?$CK?$IK?9?$FL?$JK0g0Y0?$AC?$AA?$AA@
	newobj		??0WDDatasException@WDDatas@@$$FQ$AAM@P$AAVString@System@@@Z
	stloc.2				; tmpWDDataException$11836
; Line 526
	ldloc.2				; tmpWDDataException$11836
	ldc.i4		10310		; i32 0x2846
	stfld		?ErrorCode@WDDatasException@WDDatas@@3HA
; Line 527
	ldloc.2				; tmpWDDataException$11836
	ldc.i.1		1		; i32 0x1
	stfld		?ErrorCode2@WDDatasException@WDDatas@@3HA
; Line 528
	ldloc.2				; tmpWDDataException$11836
	throw.u2	
$LN4@setName:
; Line 530
	ldarg.1				; inData$
	call		?get@Length@String@System@@$$FQ$AAMHXZ
	ldc.i.1		1		; i32 0x1
	shl		
	ldc.i4.s	60		; i32 0x3c
	ble.s		$LN3@setName
; Line 533
	ldstr		$StringLiteralTok$??_C@_1BE@GCMCBLNC@T?$ANy?p0L?$JFw0Y0N0?$HO0Y0?$AC?$AA?$AA@
	newobj		??0WDDatasException@WDDatas@@$$FQ$AAM@P$AAVString@System@@@Z
	stloc.1				; tmpWDDataException$11840
; Line 534
	ldloc.1				; tmpWDDataException$11840
	ldc.i4		10310		; i32 0x2846
	stfld		?ErrorCode@WDDatasException@WDDatas@@3HA
; Line 535
	ldloc.1				; tmpWDDataException$11840
	ldc.i.2		2		; i32 0x2
	stfld		?ErrorCode2@WDDatasException@WDDatas@@3HA
; Line 536
	ldloc.1				; tmpWDDataException$11840
	throw.u2	
$LN3@setName:
	nop		
$LN16@setName:
; Line 542
	ldarg.0				; this$
	ldfld		?Name@WDGroup@WDDatas@@3P$AAVString@System@@$AA
	ldnull		0		; i32 0x0
	call		??9String@System@@$$FSM_NP$AAV01@0@Z
	pop		
; Line 546
	ldarg.0				; this$
	ldarg.1				; inData$
	call		?Copy@String@System@@$$FSMP$AAV12@P$AAV12@@Z
	stfld		?Name@WDGroup@WDDatas@@3P$AAVString@System@@$AA
	leave.s		$LN7@setName
__catch$?setName@WDGroup@WDDatas@@$$FQ$AAMXP$AAVString@System@@@Z$0:
; Line 548
	imp.push	
	stloc.3				; exp$11846
; Line 550
	ldstr		$StringLiteralTok$??_C@_1BM@MPHGEEDI@T?$ANy?p0n?$IK?9?$FL?$JK0kY1eW0W0?$HO0W0_0?$AC?$AA?$AA@
	ldloc.3				; exp$11846
	newobj		??0WDDatasException@WDDatas@@$$FQ$AAM@P$AAVString@System@@P$AAVException@3@@Z
	stloc.0				; tmpWDDataException$11847
; Line 551
	ldloc.0				; tmpWDDataException$11847
	ldc.i4		10310		; i32 0x2846
	stfld		?ErrorCode@WDDatasException@WDDatas@@3HA
; Line 552
	ldloc.0				; tmpWDDataException$11847
	ldc.i.3		3		; i32 0x3
	stfld		?ErrorCode2@WDDatasException@WDDatas@@3HA
; Line 553
	ldloc.0				; tmpWDDataException$11847
	throw.u2	
$LN12@setName:
	leave.s		$LN7@setName
$LN7@setName:
$LN15@setName:
; Line 556
	ret		
 .end ?setName@WDGroup@WDDatas@@$$FQ$AAMXP$AAVString@System@@@Z ; WDDatas::WDGroup::setName
;	.proc.end.void
	.bss
.local	$T12236,0
.local	$StringLiteralTok$??_C@_1BM@ELHMAFNL@uey?p0n?$IK?9?$FL?$JK0kY1eW0W0?$HO0W0_0?$AC?$AA?$AA@,4
.local	$StringLiteralTok$??_C@_1BE@CBHLMLDB@uey?p0L?$JFw0Y0N0?$HO0Y0?$AC?$AA?$AA@,4
.local	$StringLiteralTok$??_C@_1BE@LKBIBKOJ@uey?p0Lg?$CK?$IK?9?$FL?$JK0g0Y0?$AC?$AA?$AA@,4
; Function compile flags: /Ogtp
	.text
	.comdat	noduplicate, ?setShortName@WDGroup@WDDatas@@$$FQ$AAMXP$AAVString@System@@@Z
.global	?setShortName@WDGroup@WDDatas@@$$FQ$AAMXP$AAVString@System@@@Z ; WDDatas::WDGroup::setShortName
?setShortName@WDGroup@WDDatas@@$$FQ$AAMXP$AAVString@System@@@Z: ; WDDatas::WDGroup::setShortName
;	.proc.def	D:V(P)

; Function Header:
; max stack depth = 4
; function size = 147 bytes
; local varsig tk = 0x11000010 
; Exception Information:
; 1 handlers, each consisting of filtered handlers

;	.formal.mptr 0,"this$" SIG: Optional C Binding Modifier(token:0x4455F1).class (token:0x4455F3)
;	.formal.mptr 1,"inData$" SIG: string
;	.local.mptr 0,"tmpWDDataException$11866" SIG: class (token:0x442841)
;	.local.mptr 3,"exp$11865" SIG: class (token:0x4427B5)
;	.local.mptr 1,"tmpWDDataException$11859" SIG: class (token:0x442841)
;	.local.mptr 2,"tmpWDDataException$11855" SIG: class (token:0x442841)

;	.proc.beg
; Line 562
	ldarg.1				; inData$
	ldnull		0		; i32 0x0
	call		??8String@System@@$$FSM_NP$AAV01@0@Z
	brfalse.s	$LN4@setShortNa
; Line 565
	ldstr		$StringLiteralTok$??_C@_1BE@LKBIBKOJ@uey?p0Lg?$CK?$IK?9?$FL?$JK0g0Y0?$AC?$AA?$AA@
	newobj		??0WDDatasException@WDDatas@@$$FQ$AAM@P$AAVString@System@@@Z
	stloc.2				; tmpWDDataException$11855
; Line 566
	ldloc.2				; tmpWDDataException$11855
	ldc.i4		10311		; i32 0x2847
	stfld		?ErrorCode@WDDatasException@WDDatas@@3HA
; Line 567
	ldloc.2				; tmpWDDataException$11855
	ldc.i.1		1		; i32 0x1
	stfld		?ErrorCode2@WDDatasException@WDDatas@@3HA
; Line 568
	ldloc.2				; tmpWDDataException$11855
	throw.u2	
$LN4@setShortNa:
; Line 570
	ldarg.1				; inData$
	call		?get@Length@String@System@@$$FQ$AAMHXZ
	ldc.i.1		1		; i32 0x1
	shl		
	ldc.i4.s	10		; i32 0xa
	ble.s		$LN3@setShortNa
; Line 573
	ldstr		$StringLiteralTok$??_C@_1BE@CBHLMLDB@uey?p0L?$JFw0Y0N0?$HO0Y0?$AC?$AA?$AA@
	newobj		??0WDDatasException@WDDatas@@$$FQ$AAM@P$AAVString@System@@@Z
	stloc.1				; tmpWDDataException$11859
; Line 574
	ldloc.1				; tmpWDDataException$11859
	ldc.i4		10311		; i32 0x2847
	stfld		?ErrorCode@WDDatasException@WDDatas@@3HA
; Line 575
	ldloc.1				; tmpWDDataException$11859
	ldc.i.2		2		; i32 0x2
	stfld		?ErrorCode2@WDDatasException@WDDatas@@3HA
; Line 576
	ldloc.1				; tmpWDDataException$11859
	throw.u2	
$LN3@setShortNa:
	nop		
$LN16@setShortNa:
; Line 582
	ldarg.0				; this$
	ldfld		?ShortName@WDGroup@WDDatas@@3P$AAVString@System@@$AA
	ldnull		0		; i32 0x0
	call		??9String@System@@$$FSM_NP$AAV01@0@Z
	pop		
; Line 586
	ldarg.0				; this$
	ldarg.1				; inData$
	call		?Copy@String@System@@$$FSMP$AAV12@P$AAV12@@Z
	stfld		?ShortName@WDGroup@WDDatas@@3P$AAVString@System@@$AA
	leave.s		$LN7@setShortNa
__catch$?setShortName@WDGroup@WDDatas@@$$FQ$AAMXP$AAVString@System@@@Z$0:
; Line 588
	imp.push	
	stloc.3				; exp$11865
; Line 590
	ldstr		$StringLiteralTok$??_C@_1BM@ELHMAFNL@uey?p0n?$IK?9?$FL?$JK0kY1eW0W0?$HO0W0_0?$AC?$AA?$AA@
	ldloc.3				; exp$11865
	newobj		??0WDDatasException@WDDatas@@$$FQ$AAM@P$AAVString@System@@P$AAVException@3@@Z
	stloc.0				; tmpWDDataException$11866
; Line 591
	ldloc.0				; tmpWDDataException$11866
	ldc.i4		10311		; i32 0x2847
	stfld		?ErrorCode@WDDatasException@WDDatas@@3HA
; Line 592
	ldloc.0				; tmpWDDataException$11866
	ldc.i.3		3		; i32 0x3
	stfld		?ErrorCode2@WDDatasException@WDDatas@@3HA
; Line 593
	ldloc.0				; tmpWDDataException$11866
	throw.u2	
$LN12@setShortNa:
	leave.s		$LN7@setShortNa
$LN7@setShortNa:
$LN15@setShortNa:
; Line 596
	ret		
 .end ?setShortName@WDGroup@WDDatas@@$$FQ$AAMXP$AAVString@System@@@Z ; WDDatas::WDGroup::setShortName
;	.proc.end.void
.global	
	.bss
.local	$T12254,0
.local	,4
; Function compile flags: /Ogtp
	.text
	.comdat	noduplicate, ?getData@WDGroup@WDDatas@@$$FA$AAMP$01AEP$01AE@Z
.global	?getData@WDGroup@WDDatas@@$$FA$AAMP$01AEP$01AE@Z ; WDDatas::WDGroup::getData
?getData@WDGroup@WDDatas@@$$FA$AAMP$01AEP$01AE@Z:	; WDDatas::WDGroup::getData
;	.proc.def	D:P(P)

; Function Header:
; max stack depth = 5
; function size = 203 bytes
; local varsig tk = 0x11000012 
; Exception Information:
; 1 handlers, each consisting of filtered handlers

;	.formal.mptr 0,"this$" SIG: Optional C Binding Modifier(token:0x4455F1).class (token:0x4455F3)
;	.formal.mptr 1,"inData$" SIG: szarray (token:0x445025)
;	.local.mptr 2,"tmpWDDataException$11960" SIG: class (token:0x442841)
;	.local.mptr 5,"exp$11959" SIG: class (token:0x4427B5)
;	.local.i4 3,"i$11955" SIG: i4
;	.local.i4 1,"tmpPos$" SIG: i4
;	.local.mptr 4,"tmpWDDataException$11879" SIG: class (token:0x442841)
;	.local.mptr 0,"rtData$" SIG: szarray (token:0x445025)

;	.proc.beg
; Line 603
	ldnull		0		; i32 0x0
	stloc.0				; rtData$
; Line 609
	ldarg.1				; inData$
	brfalse.s	$LN7@getData
	ldarg.1				; inData$
	ldlen		
	ldc.i4.s	74		; i32 0x4a
	bge.s		$LN7@getData
; Line 612
	ldstr		$StringLiteralTok$??_C@_1CA@DCBKAEPK@0?$LD0?T0?$PMQH0?G0?$PM0?$LP?$JFw0Lw?m0Y0N0?$HO0Y0?$AC?$AA?$AA@
	newobj		??0WDDatasException@WDDatas@@$$FQ$AAM@P$AAVString@System@@@Z
	stloc.s		4		; tmpWDDataException$11879
; Line 613
	ldloc.s		4		; tmpWDDataException$11879
	ldc.i4		10312		; i32 0x2848
	stfld		?ErrorCode@WDDatasException@WDDatas@@3HA
; Line 614
	ldloc.s		4		; tmpWDDataException$11879
	ldc.i.1		1		; i32 0x1
	stfld		?ErrorCode2@WDDatasException@WDDatas@@3HA
; Line 615
	ldloc.s		4		; tmpWDDataException$11879
	throw.u2	
$LN7@getData:
	nop		
$LN20@getData:
; Line 621
	ldarg.1				; inData$
	brtrue.s	$LN5@getData
; Line 623
	ldc.i4.s	100		; i32 0x64
	newarr		$TypeTok$110DD6FC$
	stloc.0				; rtData$
; Line 624
	br.s		$LN4@getData
$LN5@getData:
; Line 625
	ldarg.1				; inData$
	stloc.0				; rtData$
$LN4@getData:
; Line 628
	ldc.i.0		0		; i32 0x0
	stloc.1				; tmpPos$
; Line 631
	ldarg.0				; this$
	ldfld		?GroupGt@WDGroup@WDDatas@@3P$01AEA
	ldc.i.0		0		; i32 0x0
	ldloc.0				; rtData$
	ldc.i.0		0		; i32 0x0
	ldc.i.2		2		; i32 0x2
	call		?BlockCopy@Buffer@System@@$$FSMXP$AAVArray@2@H0HH@Z
; Line 632
	ldc.i.2		2		; i32 0x2
	stloc.1				; tmpPos$
; Line 635
	ldarg.0				; this$
	ldfld		?GroupLt@WDGroup@WDDatas@@3P$01AEA
	ldc.i.0		0		; i32 0x0
	ldloc.0				; rtData$
	ldc.i.2		2		; i32 0x2
	ldc.i.2		2		; i32 0x2
	call		?BlockCopy@Buffer@System@@$$FSMXP$AAVArray@2@H0HH@Z
; Line 636
	ldc.i.4		4		; i32 0x4
	stloc.1				; tmpPos$
; Line 639
	ldarg.0				; this$
	ldfld		?Name@WDGroup@WDDatas@@3P$AAVString@System@@$AA
	ldloc.0				; rtData$
	ldc.i.4		4		; i32 0x4
	ldc.i4.s	60		; i32 0x3c
	call		?StringToArray@FJIFuncs@FJIsam@@$$FSMP$01AEP$AAVString@System@@P$01AEHH@Z
	pop		
; Line 640
	ldc.i4.s	64		; i32 0x40
	stloc.1				; tmpPos$
; Line 643
	ldarg.0				; this$
	ldfld		?ShortName@WDGroup@WDDatas@@3P$AAVString@System@@$AA
	ldloc.0				; rtData$
	ldc.i4.s	64		; i32 0x40
	ldc.i4.s	10		; i32 0xa
	call		?StringToArray@FJIFuncs@FJIsam@@$$FSMP$01AEP$AAVString@System@@P$01AEHH@Z
	pop		
; Line 644
	ldc.i4.s	74		; i32 0x4a
	stloc.1				; tmpPos$
; Line 647
	ldc.i.0		0		; i32 0x0
	stloc.3				; i$11955
$LL3@getData:
	ldloc.3				; i$11955
	ldc.i4.s	26		; i32 0x1a
	bge.s		$LN1@getData
; Line 649
	ldloc.0				; rtData$
	ldloc.1				; tmpPos$
	ldc.i.0		0		; u8 0x0
	call		?SetByte@Buffer@System@@$$FSMXP$AAVArray@2@HE@Z
; Line 650
	ldloc.1				; tmpPos$
	ldc.i.1		1		; i32 0x1
	add		
	stloc.1				; tmpPos$
; Line 647
	ldloc.3				; i$11955
	ldc.i.1		1		; i32 0x1
	add		
	stloc.3				; i$11955
	br.s		$LL3@getData
$LN1@getData:
; Line 651
	leave.s		$LN10@getData
__catch$?getData@WDGroup@WDDatas@@$$FA$AAMP$01AEP$01AE@Z$0:
; Line 653
	imp.push	
	stloc.s		5		; exp$11959
; Line 655
	ldstr		$StringLiteralTok$??_C@_1CA@PDKIJOOO@0?G0?$PM0?$LP0n0?$LD0?T0?$PM0kY1eW0W0?$HO0W0_0?$AC?$AA?$AA@
	ldloc.s		5		; exp$11959
	newobj		??0WDDatasException@WDDatas@@$$FQ$AAM@P$AAVString@System@@P$AAVException@3@@Z
	stloc.2				; tmpWDDataException$11960
; Line 656
	ldloc.2				; tmpWDDataException$11960
	ldc.i4		10312		; i32 0x2848
	stfld		?ErrorCode@WDDatasException@WDDatas@@3HA
; Line 657
	ldloc.2				; tmpWDDataException$11960
	ldc.i.2		2		; i32 0x2
	stfld		?ErrorCode2@WDDatasException@WDDatas@@3HA
; Line 658
	ldloc.2				; tmpWDDataException$11960
	throw.u2	
$LN15@getData:
	leave.s		$LN10@getData
$LN10@getData:
; Line 662
	ldloc.0				; rtData$
	ret		
 .end ?getData@WDGroup@WDDatas@@$$FA$AAMP$01AEP$01AE@Z	; WDDatas::WDGroup::getData
;	.proc.end.mptr
	.bss
.local	$T12270,0
.local	$StringLiteralTok$??_C@_1BO@BMAIFGGH@0?G0?$PM0?$LP0n?$IK?9?$FL?$JK0kY1eW0W0?$HO0W0_0?$AC?$AA?$AA@,4
.local	$StringLiteralTok$??_C@_1CG@BHOEGJEO@0?$LD0?T0?$PMQC0?G0?$PM0?$LP?$JFw0Lkc0W0O0B0?$IK0?$HO0?$FL0?$JD0?$AC?$AA?$AA@,4
.local	$StringLiteralTok$??_C@_1BO@MACLDLLC@0?$LD0?T0?$PMQC0?G0?$PM0?$LP0Lg?$CK?$IK?9?$FL?$JK0g0Y0?$AC?$AA?$AA@,4
; Function compile flags: /Ogtp
	.text
	.comdat	noduplicate, ?setData@WDGroup@WDDatas@@$$FA$AAMXP$01AE@Z
.global	?setData@WDGroup@WDDatas@@$$FA$AAMXP$01AE@Z	; WDDatas::WDGroup::setData
?setData@WDGroup@WDDatas@@$$FA$AAMXP$01AE@Z:		; WDDatas::WDGroup::setData
;	.proc.def	D:V(P)

; Function Header:
; max stack depth = 5
; function size = 211 bytes
; local varsig tk = 0x11000013 
; Exception Information:
; 1 handlers, each consisting of filtered handlers

;	.formal.mptr 0,"this$" SIG: Optional C Binding Modifier(token:0x4455F1).class (token:0x4455F3)
;	.formal.mptr 1,"inData$" SIG: szarray (token:0x445025)
;	.local.mptr 1,"tmpWDDataException$11983" SIG: class (token:0x442841)
;	.local.mptr 4,"exp$11982" SIG: class (token:0x4427B5)
;	.local.i4 0,"tmpPos$" SIG: i4
;	.local.mptr 2,"tmpWDDataException$11974" SIG: class (token:0x442841)
;	.local.mptr 3,"tmpWDDataException$11970" SIG: class (token:0x442841)

;	.proc.beg
; Line 671
	ldarg.1				; inData$
	brtrue.s	$LN5@setData
; Line 674
	ldstr		$StringLiteralTok$??_C@_1BO@MACLDLLC@0?$LD0?T0?$PMQC0?G0?$PM0?$LP0Lg?$CK?$IK?9?$FL?$JK0g0Y0?$AC?$AA?$AA@
	newobj		??0WDDatasException@WDDatas@@$$FQ$AAM@P$AAVString@System@@@Z
	stloc.3				; tmpWDDataException$11970
; Line 675
	ldloc.3				; tmpWDDataException$11970
	ldc.i4		10313		; i32 0x2849
	stfld		?ErrorCode@WDDatasException@WDDatas@@3HA
; Line 676
	ldloc.3				; tmpWDDataException$11970
	ldc.i.1		1		; i32 0x1
	stfld		?ErrorCode2@WDDatasException@WDDatas@@3HA
; Line 677
	ldloc.3				; tmpWDDataException$11970
	throw.u2	
$LN5@setData:
; Line 679
	ldarg.1				; inData$
	ldlen		
	ldc.i4.s	100		; i32 0x64
	beq.s		$LN4@setData
; Line 682
	ldstr		$StringLiteralTok$??_C@_1CG@BHOEGJEO@0?$LD0?T0?$PMQC0?G0?$PM0?$LP?$JFw0Lkc0W0O0B0?$IK0?$HO0?$FL0?$JD0?$AC?$AA?$AA@
	newobj		??0WDDatasException@WDDatas@@$$FQ$AAM@P$AAVString@System@@@Z
	stloc.2				; tmpWDDataException$11974
; Line 683
	ldloc.2				; tmpWDDataException$11974
	ldc.i4		10313		; i32 0x2849
	stfld		?ErrorCode@WDDatasException@WDDatas@@3HA
; Line 684
	ldloc.2				; tmpWDDataException$11974
	ldc.i.2		2		; i32 0x2
	stfld		?ErrorCode2@WDDatasException@WDDatas@@3HA
; Line 685
	ldloc.2				; tmpWDDataException$11974
	throw.u2	
$LN4@setData:
	nop		
$LN17@setData:
; Line 691
	ldc.i.0		0		; i32 0x0
	stloc.0				; tmpPos$
; Line 693
	ldarg.1				; inData$
	ldc.i.0		0		; i32 0x0
	ldarg.0				; this$
	ldfld		?GroupGt@WDGroup@WDDatas@@3P$01AEA
	ldc.i.0		0		; i32 0x0
	ldc.i.2		2		; i32 0x2
	call		?BlockCopy@Buffer@System@@$$FSMXP$AAVArray@2@H0HH@Z
; Line 694
	ldc.i.2		2		; i32 0x2
	stloc.0				; tmpPos$
; Line 696
	ldarg.1				; inData$
	ldc.i.2		2		; i32 0x2
	ldarg.0				; this$
	ldfld		?GroupLt@WDGroup@WDDatas@@3P$01AEA
	ldc.i.0		0		; i32 0x0
	ldc.i.2		2		; i32 0x2
	call		?BlockCopy@Buffer@System@@$$FSMXP$AAVArray@2@H0HH@Z
; Line 697
	ldc.i.4		4		; i32 0x4
	stloc.0				; tmpPos$
; Line 699
	ldarg.0				; this$
	ldfld		?Name@WDGroup@WDDatas@@3P$AAVString@System@@$AA
	ldnull		0		; i32 0x0
	call		??9String@System@@$$FSM_NP$AAV01@0@Z
	pop		
; Line 700
	ldarg.0				; this$
	ldarg.1				; inData$
	ldc.i.4		4		; i32 0x4
	ldc.i4.s	60		; i32 0x3c
	call		?ArrayToString@FJIFuncs@FJIsam@@$$FSMP$AAVString@System@@P$01AEHH@Z
	stfld		?Name@WDGroup@WDDatas@@3P$AAVString@System@@$AA
; Line 701
	ldc.i4.s	64		; i32 0x40
	stloc.0				; tmpPos$
; Line 703
	ldarg.0				; this$
	ldfld		?ShortName@WDGroup@WDDatas@@3P$AAVString@System@@$AA
	ldnull		0		; i32 0x0
	call		??9String@System@@$$FSM_NP$AAV01@0@Z
	pop		
; Line 704
	ldarg.0				; this$
	ldarg.1				; inData$
	ldc.i4.s	64		; i32 0x40
	ldc.i4.s	10		; i32 0xa
	call		?ArrayToString@FJIFuncs@FJIsam@@$$FSMP$AAVString@System@@P$01AEHH@Z
	stfld		?ShortName@WDGroup@WDDatas@@3P$AAVString@System@@$AA
; Line 705
	ldc.i4.s	74		; i32 0x4a
	stloc.0				; tmpPos$
	leave.s		$LN8@setData
__catch$?setData@WDGroup@WDDatas@@$$FA$AAMXP$01AE@Z$0:
; Line 707
	imp.push	
	stloc.s		4		; exp$11982
; Line 709
	ldstr		$StringLiteralTok$??_C@_1BO@BMAIFGGH@0?G0?$PM0?$LP0n?$IK?9?$FL?$JK0kY1eW0W0?$HO0W0_0?$AC?$AA?$AA@
	ldloc.s		4		; exp$11982
	newobj		??0WDDatasException@WDDatas@@$$FQ$AAM@P$AAVString@System@@P$AAVException@3@@Z
	stloc.1				; tmpWDDataException$11983
; Line 710
	ldloc.1				; tmpWDDataException$11983
	ldc.i4		10313		; i32 0x2849
	stfld		?ErrorCode@WDDatasException@WDDatas@@3HA
; Line 711
	ldloc.1				; tmpWDDataException$11983
	ldc.i.3		3		; i32 0x3
	stfld		?ErrorCode2@WDDatasException@WDDatas@@3HA
; Line 712
	ldloc.1				; tmpWDDataException$11983
	throw.u2	
$LN13@setData:
	leave.s		$LN8@setData
$LN8@setData:
$LN16@setData:
; Line 714
	ret		
 .end ?setData@WDGroup@WDDatas@@$$FA$AAMXP$01AE@Z	; WDDatas::WDGroup::setData
;	.proc.end.void
; Function compile flags: /Ogtp
	.text
	.comdat	any, ?<Dispose>@WDRec@WDDatas@@$$FU$AAMXXZ
.global	?<Dispose>@WDRec@WDDatas@@$$FU$AAMXXZ		; WDDatas::WDRec::<Dispose>
?<Dispose>@WDRec@WDDatas@@$$FU$AAMXXZ:			; WDDatas::WDRec::<Dispose>
;	.proc.def	D:V()

; Function Header:
; max stack depth = 2
; function size = 14 bytes
; local varsig tk = 0x0 
; Exception Information:
; 0 handlers, each consisting of filtered handlers

;	.formal.mptr 0,"this$" SIG: Optional C Binding Modifier(token:0x446025).class (token:0x446027)

;	.proc.beg
	ldarg.0				; this$
	ldc.i.1		1		; u8 0x1
	callvirt	?<Dispose>@WDRec@WDDatas@@$$FM$AAMX_N@Z
	ldarg.0				; this$
	call		?SuppressFinalize@GC@System@@$$FSMXP$AAVObject@2@@Z
	ret		
 .end ?<Dispose>@WDRec@WDDatas@@$$FU$AAMXXZ		; WDDatas::WDRec::<Dispose>
;	.proc.end.void
; Function compile flags: /Ogtp
	.text
	.comdat	any, ?<Dispose>@WDGroup@WDDatas@@$$FM$AAMX_N@Z
.global	?<Dispose>@WDGroup@WDDatas@@$$FM$AAMX_N@Z	; WDDatas::WDGroup::<Dispose>
?<Dispose>@WDGroup@WDDatas@@$$FM$AAMX_N@Z:		; WDDatas::WDGroup::<Dispose>
;	.proc.def	D:V(I)

; Function Header:
; max stack depth = 2
; function size = 27 bytes
; local varsig tk = 0x0 
; Exception Information:
; 1 handlers, each consisting of filtered handlers

;	.formal.mptr 0,"this$" SIG: Optional C Binding Modifier(token:0x4455F1).class (token:0x4455F3)
;	.formal.u1 1,"disposing$" SIG: bool

;	.proc.beg
	ldarg.1				; disposing$
	brfalse.s	$LN3@
$LN13@:
	ldarg.0				; this$
	call		??1WDGroup@WDDatas@@$$FA$AAM@XZ
$LN2@:
	leave.s		$LN12@
$LN7@:
	ldarg.0				; this$
	ldc.i.1		1		; u8 0x1
	call		?<Dispose>@WDRec@WDDatas@@$$FM$AAMX_N@Z
$LN9@:
	endfinally	
$LN3@:
	ldarg.0				; this$
	ldc.i.0		0		; u8 0x0
	call		?<Dispose>@WDRec@WDDatas@@$$FM$AAMX_N@Z
$LN12@:
	ret		
 .end ?<Dispose>@WDGroup@WDDatas@@$$FM$AAMX_N@Z		; WDDatas::WDGroup::<Dispose>
;	.proc.end.void
.global	
	.bss
.local	$T12307,0
.local	$StringLiteralTok$??_C@_1CM@IBIPDKIN@0?G0?$PM0?$LP0?l0?$LD0?$PM0?IS?V_?$JH0g0?$KI0?i0?$PM0Lvzu?$BP0W0?$HO0W0_0?$AC?$AA?$AA@,4
.local	,4
; Function compile flags: /Ogtp
	.text
	.comdat	noduplicate, ?getRecord@WDGroup@WDDatas@@$$FU$AAMP$AAVDataRecord@FJIsam@@XZ
.global	?getRecord@WDGroup@WDDatas@@$$FU$AAMP$AAVDataRecord@FJIsam@@XZ ; WDDatas::WDGroup::getRecord
?getRecord@WDGroup@WDDatas@@$$FU$AAMP$AAVDataRecord@FJIsam@@XZ: ; WDDatas::WDGroup::getRecord
;	.proc.def	D:P()

; Function Header:
; max stack depth = 4
; function size = 145 bytes
; local varsig tk = 0x11000015 
; Exception Information:
; 2 handlers, each consisting of filtered handlers

;	.formal.mptr 0,"this$" SIG: Optional C Binding Modifier(token:0x4455F1).class (token:0x4455F3)
;	.local.mptr 1,"tmpWDDataException$11326" SIG: class (token:0x442841)
;	.local.mptr 4,"exp$11325" SIG: class (token:0x4427B5)
;	.local.mptr 2,"tmpWDDataException$11320" SIG: class (token:0x442841)
;	.local.mptr 5,"exp$11319" SIG: class (token:0x4427B5)
;	.local.mptr 3,"tmpDat$" SIG: szarray (token:0x445025)
;	.local.mptr 0,"tmpRec$" SIG: class (token:0x4428D5)

;	.proc.beg
; Line 84
	ldnull		0		; i32 0x0
	stloc.0				; tmpRec$
; Line 88
	ldarg.0				; this$
	call		?getRecord@WDRec@WDDatas@@$$FU$AAMP$AAVDataRecord@FJIsam@@XZ
	brtrue.s	$LN4@getRecord
$LN23@getRecord:
; Line 92
	ldarg.0				; this$
	ldnull		0		; i32 0x0
	call		?getData@WDGroup@WDDatas@@$$FA$AAMP$01AEP$01AE@Z
	stloc.3				; tmpDat$
; Line 93
	newobj		??0DataRecord@FJIsam@@$$FQ$AAM@XZ
	stloc.0				; tmpRec$
; Line 94
	ldloc.0				; tmpRec$
	ldloc.3				; tmpDat$
	ldc.i4.s	100		; i32 0x64
	call		?setData@DataRecord@FJIsam@@$$FQ$AAMXP$01AEH@Z
; Line 95
	ldarg.0				; this$
	ldloc.0				; tmpRec$
	call		?setRecord@WDRec@WDDatas@@$$FU$AAMXP$AAVDataRecord@FJIsam@@@Z
	leave.s		$LN9@getRecord
__catch$?getRecord@WDGroup@WDDatas@@$$FU$AAMP$AAVDataRecord@FJIsam@@XZ$0:
; Line 96
	imp.push	
	stloc.s		5		; exp$11319
; Line 98
	ldstr		$StringLiteralTok$??_C@_1CM@IBIPDKIN@0?G0?$PM0?$LP0?l0?$LD0?$PM0?IS?V_?$JH0g0?$KI0?i0?$PM0Lvzu?$BP0W0?$HO0W0_0?$AC?$AA?$AA@
	ldloc.s		5		; exp$11319
	newobj		??0WDDatasException@WDDatas@@$$FQ$AAM@P$AAVString@System@@P$AAVException@3@@Z
	stloc.2				; tmpWDDataException$11320
; Line 99
	ldloc.2				; tmpWDDataException$11320
	ldc.i4		10302		; i32 0x283e
	stfld		?ErrorCode@WDDatasException@WDDatas@@3HA
; Line 100
	ldloc.2				; tmpWDDataException$11320
	ldc.i.1		1		; i32 0x1
	stfld		?ErrorCode2@WDDatasException@WDDatas@@3HA
; Line 101
	ldloc.2				; tmpWDDataException$11320
	throw.u2	
$LN14@getRecord:
	leave.s		$LN9@getRecord
$LN4@getRecord:
	nop		
$LN24@getRecord:
; Line 106
	ldarg.0				; this$
	ldnull		0		; i32 0x0
	call		?getData@WDGroup@WDDatas@@$$FA$AAMP$01AEP$01AE@Z
	stloc.3				; tmpDat$
; Line 107
	ldarg.0				; this$
	call		?getRecord@WDRec@WDDatas@@$$FU$AAMP$AAVDataRecord@FJIsam@@XZ
	stloc.0				; tmpRec$
; Line 108
	ldloc.0				; tmpRec$
	ldloc.3				; tmpDat$
	ldc.i4.s	100		; i32 0x64
	call		?setData@DataRecord@FJIsam@@$$FQ$AAMXP$01AEH@Z
	leave.s		$LN9@getRecord
__catch$?getRecord@WDGroup@WDDatas@@$$FU$AAMP$AAVDataRecord@FJIsam@@XZ$2:
; Line 109
	imp.push	
	stloc.s		4		; exp$11325
; Line 111
	ldstr		$StringLiteralTok$??_C@_1CM@IBIPDKIN@0?G0?$PM0?$LP0?l0?$LD0?$PM0?IS?V_?$JH0g0?$KI0?i0?$PM0Lvzu?$BP0W0?$HO0W0_0?$AC?$AA?$AA@
	ldloc.s		4		; exp$11325
	newobj		??0WDDatasException@WDDatas@@$$FQ$AAM@P$AAVString@System@@P$AAVException@3@@Z
	stloc.1				; tmpWDDataException$11326
; Line 112
	ldloc.1				; tmpWDDataException$11326
	ldc.i4		10302		; i32 0x283e
	stfld		?ErrorCode@WDDatasException@WDDatas@@3HA
; Line 113
	ldloc.1				; tmpWDDataException$11326
	ldc.i.2		2		; i32 0x2
	stfld		?ErrorCode2@WDDatasException@WDDatas@@3HA
; Line 114
	ldloc.1				; tmpWDDataException$11326
	throw.u2	
$LN18@getRecord:
	leave.s		$LN9@getRecord
$LN9@getRecord:
; Line 121
	ldloc.0				; tmpRec$
	ret		
 .end ?getRecord@WDGroup@WDDatas@@$$FU$AAMP$AAVDataRecord@FJIsam@@XZ ; WDDatas::WDGroup::getRecord
;	.proc.end.mptr
	.bss
.local	$T12331,0
.local	$StringLiteralTok$??_C@_1CM@POGCAHHH@0?G0?$PM0?$LP0?l0?$LD0?$PM0?I?$IK?9?$FL?$JK0g0?$KI0?i0?$PM0Lvzu?$BP0W0?$HO0W0_0?$AC?$AA?$AA@,4
; Function compile flags: /Ogtp
	.text
	.comdat	noduplicate, ?setRecord@WDGroup@WDDatas@@$$FU$AAMXP$AAVDataRecord@FJIsam@@@Z
.global	?setRecord@WDGroup@WDDatas@@$$FU$AAMXP$AAVDataRecord@FJIsam@@@Z ; WDDatas::WDGroup::setRecord
?setRecord@WDGroup@WDDatas@@$$FU$AAMXP$AAVDataRecord@FJIsam@@@Z: ; WDDatas::WDGroup::setRecord
;	.proc.def	D:V(P)

; Function Header:
; max stack depth = 4
; function size = 112 bytes
; local varsig tk = 0x11000016 
; Exception Information:
; 2 handlers, each consisting of filtered handlers

;	.formal.mptr 0,"this$" SIG: Optional C Binding Modifier(token:0x4455F1).class (token:0x4455F3)
;	.formal.mptr 1,"inRec$" SIG: class (token:0x4428D5)
;	.local.mptr 0,"tmpWDDataException$11344" SIG: class (token:0x442841)
;	.local.mptr 3,"exp$11343" SIG: class (token:0x4427B5)
;	.local.mptr 1,"tmpWDDataException$11338" SIG: class (token:0x442841)
;	.local.mptr 4,"exp$11337" SIG: class (token:0x4427B5)
;	.local.mptr 2,"tmpDat$11336" SIG: szarray (token:0x445025)

;	.proc.beg
; Line 127
	ldarg.1				; inRec$
	brfalse.s	$LN4@setRecord
$LN23@setRecord:
; Line 132
	ldarg.1				; inRec$
	ldnull		0		; i32 0x0
	call		?getData@DataRecord@FJIsam@@$$FQ$AAMP$01AEP$01AE@Z
	stloc.2				; tmpDat$11336
; Line 133
	ldarg.0				; this$
	ldloc.2				; tmpDat$11336
	call		?setData@WDGroup@WDDatas@@$$FA$AAMXP$01AE@Z
; Line 134
	ldarg.0				; this$
	ldarg.1				; inRec$
	call		?setRecord@WDRec@WDDatas@@$$FU$AAMXP$AAVDataRecord@FJIsam@@@Z
; Line 135
	ldnull		0		; i32 0x0
	stloc.2				; tmpDat$11336
	leave.s		$LN9@setRecord
__catch$?setRecord@WDGroup@WDDatas@@$$FU$AAMXP$AAVDataRecord@FJIsam@@@Z$0:
; Line 136
	imp.push	
	stloc.s		4		; exp$11337
; Line 138
	ldstr		$StringLiteralTok$??_C@_1CM@POGCAHHH@0?G0?$PM0?$LP0?l0?$LD0?$PM0?I?$IK?9?$FL?$JK0g0?$KI0?i0?$PM0Lvzu?$BP0W0?$HO0W0_0?$AC?$AA?$AA@
	ldloc.s		4		; exp$11337
	newobj		??0WDDatasException@WDDatas@@$$FQ$AAM@P$AAVString@System@@P$AAVException@3@@Z
	stloc.1				; tmpWDDataException$11338
; Line 139
	ldloc.1				; tmpWDDataException$11338
	ldc.i4		10303		; i32 0x283f
	stfld		?ErrorCode@WDDatasException@WDDatas@@3HA
; Line 140
	ldloc.1				; tmpWDDataException$11338
	ldc.i.1		1		; i32 0x1
	stfld		?ErrorCode2@WDDatasException@WDDatas@@3HA
; Line 141
	ldloc.1				; tmpWDDataException$11338
	throw.u2	
$LN14@setRecord:
	leave.s		$LN9@setRecord
$LN4@setRecord:
	nop		
$LN24@setRecord:
; Line 146
	ldarg.0				; this$
	ldnull		0		; i32 0x0
	call		?setRecord@WDRec@WDDatas@@$$FU$AAMXP$AAVDataRecord@FJIsam@@@Z
	leave.s		$LN9@setRecord
__catch$?setRecord@WDGroup@WDDatas@@$$FU$AAMXP$AAVDataRecord@FJIsam@@@Z$2:
; Line 147
	imp.push	
	stloc.3				; exp$11343
; Line 149
	ldstr		$StringLiteralTok$??_C@_1CM@POGCAHHH@0?G0?$PM0?$LP0?l0?$LD0?$PM0?I?$IK?9?$FL?$JK0g0?$KI0?i0?$PM0Lvzu?$BP0W0?$HO0W0_0?$AC?$AA?$AA@
	ldloc.3				; exp$11343
	newobj		??0WDDatasException@WDDatas@@$$FQ$AAM@P$AAVString@System@@P$AAVException@3@@Z
	stloc.0				; tmpWDDataException$11344
; Line 150
	ldloc.0				; tmpWDDataException$11344
	ldc.i4		10303		; i32 0x283f
	stfld		?ErrorCode@WDDatasException@WDDatas@@3HA
; Line 151
	ldloc.0				; tmpWDDataException$11344
	ldc.i.2		2		; i32 0x2
	stfld		?ErrorCode2@WDDatasException@WDDatas@@3HA
; Line 152
	ldloc.0				; tmpWDDataException$11344
	throw.u2	
$LN18@setRecord:
	leave.s		$LN9@setRecord
$LN9@setRecord:
; Line 155
	ret		
 .end ?setRecord@WDGroup@WDDatas@@$$FU$AAMXP$AAVDataRecord@FJIsam@@@Z ; WDDatas::WDGroup::setRecord
;	.proc.end.void
.global	
	.bss
.local	$T12356,0
.local	$StringLiteralTok$??_C@_1CG@PFOLFNFI@0?G0?$PM0?$LP0?l0?$LD0?$PM0?I0nf?x?$IP?$LM0kY1eW0W0?$HO0W0_0?$AC?$AA?$AA@,4
.local	$StringLiteralTok$??_C@_1BM@LAKNIOBD@0?l0?$LD0?$PM0?IRJ?$JGd0o0g0M0?$HO0?$FL0?$JD0?$AC?$AA?$AA@,4
.local	$StringLiteralTok$??_C@_1BO@OEMADJDL@?$AAI?$AAS?$AAA?$AAM0?U0?$KB0?$KE0?k0LN?$ANkc0g0Y0?$AC?$AA?$AA@,4
.local	$TypeTok$11280448$,4
.local	,4
; Function compile flags: /Ogtp
	.text
	.comdat	noduplicate, ?Write@WDGroup@WDDatas@@$$FU$AAMXXZ
.global	?Write@WDGroup@WDDatas@@$$FU$AAMXXZ		; WDDatas::WDGroup::Write
?Write@WDGroup@WDDatas@@$$FU$AAMXXZ:			; WDDatas::WDGroup::Write
;	.proc.def	D:V()

; Function Header:
; max stack depth = 4
; function size = 204 bytes
; local varsig tk = 0x11000018 
; Exception Information:
; 2 handlers, each consisting of filtered handlers

;	.formal.mptr 0,"this$" SIG: Optional C Binding Modifier(token:0x4455F1).class (token:0x4455F3)
;	.local.mptr 1,"tmpWDDataException$11533" SIG: class (token:0x442841)
;	.local.mptr 4,"exp$11532" SIG: class (token:0x4427B5)
;	.local.mptr 2,"tmpWDDataException$11529" SIG: class (token:0x442841)
;	.local.mptr 3,"tmpWDDataException$11521" SIG: class (token:0x442841)
;	.local.mptr 5,"exp$11520" SIG: class (token:0x4427B5)
;	.local.mptr 0,"tmpParent$" SIG: class (token:0x444845)

;	.proc.beg
; Line 159
	ldnull		0		; i32 0x0
	stloc.0				; tmpParent$
; Line 163
	ldarg.0				; this$
	call		?getRecord@WDRec@WDDatas@@$$FU$AAMP$AAVDataRecord@FJIsam@@XZ
	brfalse		$LN13@Write
$LN27@Write:
; Line 171
	ldarg.0				; this$
	call		?getRecord@WDRec@WDDatas@@$$FU$AAMP$AAVDataRecord@FJIsam@@XZ
	call		?getParentFile@DataRecord@FJIsam@@$$FQ$AAMP$AAVObject@System@@XZ
	castClass	$TypeTok$11280448$
	stloc.0				; tmpParent$
; Line 172
	ldloc.0				; tmpParent$
	brtrue.s	$LN6@Write
; Line 174
	leave		$LN13@Write
$LN6@Write:
	leave.s		$LN11@Write
__catch$?Write@WDGroup@WDDatas@@$$FU$AAMXXZ$0:
; Line 176
	imp.push	
	stloc.s		5		; exp$11520
; Line 178
	ldstr		$StringLiteralTok$??_C@_1BO@OEMADJDL@?$AAI?$AAS?$AAA?$AAM0?U0?$KB0?$KE0?k0LN?$ANkc0g0Y0?$AC?$AA?$AA@
	ldloc.s		5		; exp$11520
	newobj		??0WDDatasException@WDDatas@@$$FQ$AAM@P$AAVString@System@@P$AAVException@3@@Z
	stloc.3				; tmpWDDataException$11521
; Line 179
	ldloc.3				; tmpWDDataException$11521
	ldc.i4		10304		; i32 0x2840
	stfld		?ErrorCode@WDDatasException@WDDatas@@3HA
; Line 180
	ldloc.3				; tmpWDDataException$11521
	ldc.i.1		1		; i32 0x1
	stfld		?ErrorCode2@WDDatasException@WDDatas@@3HA
; Line 181
	ldloc.3				; tmpWDDataException$11521
	throw.u2	
$LN18@Write:
	leave.s		$LN11@Write
$LN11@Write:
	nop		
$LN28@Write:
; Line 187
	ldarg.0				; this$
	call		?getRecord@WDRec@WDDatas@@$$FU$AAMP$AAVDataRecord@FJIsam@@XZ
	call		?getRecStat@DataRecord@FJIsam@@$$FQ$AAM?AW4DataRecStat_EN@2@XZ
	brtrue.s	$LN4@Write
; Line 189
	ldloc.0				; tmpParent$
	ldarg.0				; this$
	callvirt	?getRecord@WDGroup@WDDatas@@$$FU$AAMP$AAVDataRecord@FJIsam@@XZ
	call		?AddRecord@FIsam@FJIsam@@$$FQ$AAMXP$AAVDataRecord@2@@Z
	br.s		$LN1@Write
$LN4@Write:
; Line 190
	ldarg.0				; this$
	call		?getRecord@WDRec@WDDatas@@$$FU$AAMP$AAVDataRecord@FJIsam@@XZ
	call		?getRecStat@DataRecord@FJIsam@@$$FQ$AAM?AW4DataRecStat_EN@2@XZ
	ldc.i.1		1		; i32 0x1
	bne.un.s	$LN2@Write
; Line 191
	ldloc.0				; tmpParent$
	ldarg.0				; this$
	callvirt	?getRecord@WDGroup@WDDatas@@$$FU$AAMP$AAVDataRecord@FJIsam@@XZ
	call		?UpdateRecord@FIsam@FJIsam@@$$FQ$AAMXP$AAVDataRecord@2@@Z
$LN1@Write:
; Line 197
	leave.s		$LN13@Write
$LN2@Write:
; Line 194
	ldstr		$StringLiteralTok$??_C@_1BM@LAKNIOBD@0?l0?$LD0?$PM0?IRJ?$JGd0o0g0M0?$HO0?$FL0?$JD0?$AC?$AA?$AA@
	newobj		??0WDDatasException@WDDatas@@$$FQ$AAM@P$AAVString@System@@@Z
	stloc.2				; tmpWDDataException$11529
; Line 195
	ldloc.2				; tmpWDDataException$11529
	ldc.i4		10304		; i32 0x2840
	stfld		?ErrorCode@WDDatasException@WDDatas@@3HA
; Line 196
	ldloc.2				; tmpWDDataException$11529
	ldc.i.2		2		; i32 0x2
	stfld		?ErrorCode2@WDDatasException@WDDatas@@3HA
; Line 197
	ldloc.2				; tmpWDDataException$11529
	throw.u2	
$LN19@Write:
; Line 199
	leave.s		$LN13@Write
__catch$?Write@WDGroup@WDDatas@@$$FU$AAMXXZ$2:
	imp.push	
	stloc.s		4		; exp$11532
; Line 201
	ldstr		$StringLiteralTok$??_C@_1CG@PFOLFNFI@0?G0?$PM0?$LP0?l0?$LD0?$PM0?I0nf?x?$IP?$LM0kY1eW0W0?$HO0W0_0?$AC?$AA?$AA@
	ldloc.s		4		; exp$11532
	newobj		??0WDDatasException@WDDatas@@$$FQ$AAM@P$AAVString@System@@P$AAVException@3@@Z
	stloc.1				; tmpWDDataException$11533
; Line 202
	ldloc.1				; tmpWDDataException$11533
	ldc.i4		10304		; i32 0x2840
	stfld		?ErrorCode@WDDatasException@WDDatas@@3HA
; Line 203
	ldloc.1				; tmpWDDataException$11533
	ldc.i.3		3		; i32 0x3
	stfld		?ErrorCode2@WDDatasException@WDDatas@@3HA
; Line 204
	ldloc.1				; tmpWDDataException$11533
	throw.u2	
$LN22@Write:
	leave.s		$LN13@Write
$LN13@Write:
; Line 206
	ret		
 .end ?Write@WDGroup@WDDatas@@$$FU$AAMXXZ		; WDDatas::WDGroup::Write
;	.proc.end.void
	.bss
.local	$T12380,0
.local	$va_argTok$E,4
; Function compile flags: /Ogtp
	.text
	.comdat	noduplicate, ?Delete@WDGroup@WDDatas@@$$FU$AAMXXZ
.global	?Delete@WDGroup@WDDatas@@$$FU$AAMXXZ		; WDDatas::WDGroup::Delete
?Delete@WDGroup@WDDatas@@$$FU$AAMXXZ:			; WDDatas::WDGroup::Delete
;	.proc.def	D:V()

; Function Header:
; max stack depth = 4
; function size = 490 bytes
; local varsig tk = 0x11000019 
; Exception Information:
; 2 handlers, each consisting of filtered handlers

;	.formal.mptr 0,"this$" SIG: Optional C Binding Modifier(token:0x4455F1).class (token:0x4455F3)
;	.local.mptr 0,"tmpWDDataException$11566" SIG: class (token:0x442841)
;	.local.mptr 4,"exp$11565" SIG: class (token:0x4427B5)
;	.local.mptr 1,"tmpWDDataException$11563" SIG: class (token:0x442841)
;	.local.mptr 2,"tmpWDDataException$11556" SIG: class (token:0x442841)
;	.local.mptr 5,"exp$11555" SIG: class (token:0x4427B5)
;	.local.mptr 3,"tmpParent$" SIG: class (token:0x444845)

;	.proc.beg
; Line 210
	ldnull		0		; i32 0x0
	stloc.3				; tmpParent$
; Line 214
	ldarg.0				; this$
	call		?getRecord@WDRec@WDDatas@@$$FU$AAMP$AAVDataRecord@FJIsam@@XZ
	brtrue.s	$LN14@Delete
; Line 217
	ldarg.0				; this$
	ldfld		?GroupGt@WDGroup@WDDatas@@3P$01AEA
	ldc.i.0		0		; i32 0x0
	ldelema		$va_argTok$E
	ldc.i.0		0		; u8 0x0
	stind.i1	
; Line 218
	ldarg.0				; this$
	ldfld		?GroupGt@WDGroup@WDDatas@@3P$01AEA
	ldc.i.1		1		; i32 0x1
	ldelema		$va_argTok$E
	ldc.i.0		0		; u8 0x0
	stind.i1	
; Line 219
	ldarg.0				; this$
	ldfld		?GroupLt@WDGroup@WDDatas@@3P$01AEA
	ldc.i.0		0		; i32 0x0
	ldelema		$va_argTok$E
	ldc.i.0		0		; u8 0x0
	stind.i1	
; Line 220
	ldarg.0				; this$
	ldfld		?GroupLt@WDGroup@WDDatas@@3P$01AEA
	ldc.i.1		1		; i32 0x1
	ldelema		$va_argTok$E
	ldc.i.0		0		; u8 0x0
	stind.i1	
; Line 221
	ldarg.0				; this$
	ldfld		?Name@WDGroup@WDDatas@@3P$AAVString@System@@$AA
	ldnull		0		; i32 0x0
	call		??9String@System@@$$FSM_NP$AAV01@0@Z
	brfalse.s	$LN13@Delete
; Line 224
	ldarg.0				; this$
	ldnull		0		; i32 0x0
	stfld		?Name@WDGroup@WDDatas@@3P$AAVString@System@@$AA
$LN13@Delete:
; Line 226
	ldarg.0				; this$
	ldfld		?ShortName@WDGroup@WDDatas@@3P$AAVString@System@@$AA
	ldnull		0		; i32 0x0
	call		??9String@System@@$$FSM_NP$AAV01@0@Z
	brfalse		$LN1@Delete
; Line 229
	ldarg.0				; this$
	ldnull		0		; i32 0x0
	stfld		?ShortName@WDGroup@WDDatas@@3P$AAVString@System@@$AA
; Line 232
	br		$LN1@Delete
$LN14@Delete:
	nop		
$LN33@Delete:
; Line 238
	ldarg.0				; this$
	call		?getRecord@WDRec@WDDatas@@$$FU$AAMP$AAVDataRecord@FJIsam@@XZ
	call		?getParentFile@DataRecord@FJIsam@@$$FQ$AAMP$AAVObject@System@@XZ
	castClass	$TypeTok$11280448$
	stloc.3				; tmpParent$
; Line 239
	ldloc.3				; tmpParent$
	brtrue.s	$LN10@Delete
; Line 242
	ldarg.0				; this$
	ldfld		?GroupGt@WDGroup@WDDatas@@3P$01AEA
	ldc.i.0		0		; i32 0x0
	ldelema		$va_argTok$E
	ldc.i.0		0		; u8 0x0
	stind.i1	
; Line 243
	ldarg.0				; this$
	ldfld		?GroupGt@WDGroup@WDDatas@@3P$01AEA
	ldc.i.1		1		; i32 0x1
	ldelema		$va_argTok$E
	ldc.i.0		0		; u8 0x0
	stind.i1	
; Line 244
	ldarg.0				; this$
	ldfld		?GroupLt@WDGroup@WDDatas@@3P$01AEA
	ldc.i.0		0		; i32 0x0
	ldelema		$va_argTok$E
	ldc.i.0		0		; u8 0x0
	stind.i1	
; Line 245
	ldarg.0				; this$
	ldfld		?GroupLt@WDGroup@WDDatas@@3P$01AEA
	ldc.i.1		1		; i32 0x1
	ldelema		$va_argTok$E
	ldc.i.0		0		; u8 0x0
	stind.i1	
; Line 246
	ldarg.0				; this$
	ldfld		?Name@WDGroup@WDDatas@@3P$AAVString@System@@$AA
	ldnull		0		; i32 0x0
	call		??9String@System@@$$FSM_NP$AAV01@0@Z
	brfalse.s	$LN9@Delete
; Line 249
	ldarg.0				; this$
	ldnull		0		; i32 0x0
	stfld		?Name@WDGroup@WDDatas@@3P$AAVString@System@@$AA
$LN9@Delete:
; Line 251
	ldarg.0				; this$
	ldfld		?ShortName@WDGroup@WDDatas@@3P$AAVString@System@@$AA
	ldnull		0		; i32 0x0
	call		??9String@System@@$$FSM_NP$AAV01@0@Z
	brfalse.s	$LN8@Delete
; Line 254
	ldarg.0				; this$
	ldnull		0		; i32 0x0
	stfld		?ShortName@WDGroup@WDDatas@@3P$AAVString@System@@$AA
$LN8@Delete:
; Line 257
	leave		$LN1@Delete
$LN10@Delete:
	leave.s		$LN17@Delete
__catch$?Delete@WDGroup@WDDatas@@$$FU$AAMXXZ$0:
; Line 259
	imp.push	
	stloc.s		5		; exp$11555
; Line 261
	ldstr		$StringLiteralTok$??_C@_1BO@OEMADJDL@?$AAI?$AAS?$AAA?$AAM0?U0?$KB0?$KE0?k0LN?$ANkc0g0Y0?$AC?$AA?$AA@
	ldloc.s		5		; exp$11555
	newobj		??0WDDatasException@WDDatas@@$$FQ$AAM@P$AAVString@System@@P$AAVException@3@@Z
	stloc.2				; tmpWDDataException$11556
; Line 262
	ldloc.2				; tmpWDDataException$11556
	ldc.i4		10305		; i32 0x2841
	stfld		?ErrorCode@WDDatasException@WDDatas@@3HA
; Line 263
	ldloc.2				; tmpWDDataException$11556
	ldc.i.1		1		; i32 0x1
	stfld		?ErrorCode2@WDDatasException@WDDatas@@3HA
; Line 264
	ldloc.2				; tmpWDDataException$11556
	throw.u2	
$LN24@Delete:
	leave.s		$LN17@Delete
$LN17@Delete:
	nop		
$LN34@Delete:
; Line 270
	ldarg.0				; this$
	call		?getRecord@WDRec@WDDatas@@$$FU$AAMP$AAVDataRecord@FJIsam@@XZ
	call		?getRecStat@DataRecord@FJIsam@@$$FQ$AAM?AW4DataRecStat_EN@2@XZ
	brfalse.s	$LN3@Delete
; Line 273
	ldarg.0				; this$
	call		?getRecord@WDRec@WDDatas@@$$FU$AAMP$AAVDataRecord@FJIsam@@XZ
	call		?getRecStat@DataRecord@FJIsam@@$$FQ$AAM?AW4DataRecStat_EN@2@XZ
	ldc.i.1		1		; i32 0x1
	bne.un.s	$LN4@Delete
; Line 274
	ldloc.3				; tmpParent$
	ldarg.0				; this$
	callvirt	?getRecord@WDGroup@WDDatas@@$$FU$AAMP$AAVDataRecord@FJIsam@@XZ
	call		?DeleteRecord@FIsam@FJIsam@@$$FQ$AAMXP$AAVDataRecord@2@@Z
$LN3@Delete:
; Line 280
	leave.s		$LN19@Delete
$LN4@Delete:
; Line 277
	ldstr		$StringLiteralTok$??_C@_1BM@LAKNIOBD@0?l0?$LD0?$PM0?IRJ?$JGd0o0g0M0?$HO0?$FL0?$JD0?$AC?$AA?$AA@
	newobj		??0WDDatasException@WDDatas@@$$FQ$AAM@P$AAVString@System@@@Z
	stloc.1				; tmpWDDataException$11563
; Line 278
	ldloc.1				; tmpWDDataException$11563
	ldc.i4		10305		; i32 0x2841
	stfld		?ErrorCode@WDDatasException@WDDatas@@3HA
; Line 279
	ldloc.1				; tmpWDDataException$11563
	ldc.i.2		2		; i32 0x2
	stfld		?ErrorCode2@WDDatasException@WDDatas@@3HA
; Line 280
	ldloc.1				; tmpWDDataException$11563
	throw.u2	
$LN25@Delete:
; Line 282
	leave.s		$LN19@Delete
__catch$?Delete@WDGroup@WDDatas@@$$FU$AAMXXZ$2:
	imp.push	
	stloc.s		4		; exp$11565
; Line 284
	ldstr		$StringLiteralTok$??_C@_1CG@PFOLFNFI@0?G0?$PM0?$LP0?l0?$LD0?$PM0?I0nf?x?$IP?$LM0kY1eW0W0?$HO0W0_0?$AC?$AA?$AA@
	ldloc.s		4		; exp$11565
	newobj		??0WDDatasException@WDDatas@@$$FQ$AAM@P$AAVString@System@@P$AAVException@3@@Z
	stloc.0				; tmpWDDataException$11566
; Line 285
	ldloc.0				; tmpWDDataException$11566
	ldc.i4		10305		; i32 0x2841
	stfld		?ErrorCode@WDDatasException@WDDatas@@3HA
; Line 286
	ldloc.0				; tmpWDDataException$11566
	ldc.i.3		3		; i32 0x3
	stfld		?ErrorCode2@WDDatasException@WDDatas@@3HA
; Line 287
	ldloc.0				; tmpWDDataException$11566
	throw.u2	
$LN28@Delete:
	leave.s		$LN19@Delete
$LN19@Delete:
; Line 291
	ldarg.0				; this$
	ldfld		?GroupGt@WDGroup@WDDatas@@3P$01AEA
	ldc.i.0		0		; i32 0x0
	ldelema		$va_argTok$E
	ldc.i.0		0		; u8 0x0
	stind.i1	
; Line 292
	ldarg.0				; this$
	ldfld		?GroupGt@WDGroup@WDDatas@@3P$01AEA
	ldc.i.1		1		; i32 0x1
	ldelema		$va_argTok$E
	ldc.i.0		0		; u8 0x0
	stind.i1	
; Line 293
	ldarg.0				; this$
	ldfld		?GroupLt@WDGroup@WDDatas@@3P$01AEA
	ldc.i.0		0		; i32 0x0
	ldelema		$va_argTok$E
	ldc.i.0		0		; u8 0x0
	stind.i1	
; Line 294
	ldarg.0				; this$
	ldfld		?GroupLt@WDGroup@WDDatas@@3P$01AEA
	ldc.i.1		1		; i32 0x1
	ldelema		$va_argTok$E
	ldc.i.0		0		; u8 0x0
	stind.i1	
; Line 295
	ldarg.0				; this$
	ldfld		?Name@WDGroup@WDDatas@@3P$AAVString@System@@$AA
	ldnull		0		; i32 0x0
	call		??9String@System@@$$FSM_NP$AAV01@0@Z
	brfalse.s	$LN2@Delete
; Line 298
	ldarg.0				; this$
	ldnull		0		; i32 0x0
	stfld		?Name@WDGroup@WDDatas@@3P$AAVString@System@@$AA
$LN2@Delete:
; Line 300
	ldarg.0				; this$
	ldfld		?ShortName@WDGroup@WDDatas@@3P$AAVString@System@@$AA
	ldnull		0		; i32 0x0
	call		??9String@System@@$$FSM_NP$AAV01@0@Z
	brfalse.s	$LN1@Delete
; Line 303
	ldarg.0				; this$
	ldnull		0		; i32 0x0
	stfld		?ShortName@WDGroup@WDDatas@@3P$AAVString@System@@$AA
$LN1@Delete:
; Line 306
	ret		
 .end ?Delete@WDGroup@WDDatas@@$$FU$AAMXXZ		; WDDatas::WDGroup::Delete
;	.proc.end.void
	.bss
.local	$T12403,0
.local	$StringLiteralTok$??_C@_1CE@JDMCCNFK@0?G0?$PM0?$LP?$IK?9?$FL?$JK0g0?$KI0?i0?$PM0Lvzu?$BP0W0?$HO0W0_0?$AC?$AA?$AA@,4
.local	$StringLiteralTok$??_C@_1CM@HKPCENPL@0?G0?$PM0?$LP0?l0?$LD0?$PM0?I0LR?$AG?$JI?$FO0?G0?$PM0?$LP0g0o0B0?$IK0?$HO0?$FL0?$JD0?$AC?$AA?$AA@,4
; Function compile flags: /Ogtp
	.text
	.comdat	noduplicate, ??0WDGroup@WDDatas@@$$FQ$AAM@P$AAVDataRecord@FJIsam@@@Z
.global	??0WDGroup@WDDatas@@$$FQ$AAM@P$AAVDataRecord@FJIsam@@@Z ; WDDatas::WDGroup::WDGroup
??0WDGroup@WDDatas@@$$FQ$AAM@P$AAVDataRecord@FJIsam@@@Z: ; WDDatas::WDGroup::WDGroup
;	.proc.def	D:V(P)

; Function Header:
; max stack depth = 4
; function size = 155 bytes
; local varsig tk = 0x1100001A 
; Exception Information:
; 2 handlers, each consisting of filtered handlers

;	.formal.mptr 1,"inRec$" SIG: class (token:0x4428D5)
;	.formal.mptr 0,"this$" SIG: Optional C Binding Modifier(token:0x4455F1).class (token:0x4455F3)
;	.local.mptr 0,"tmpWDDataException$11296" SIG: class (token:0x442841)
;	.local.mptr 2,"exp$11294" SIG: class (token:0x4427B5)
;	.local.mptr 1,"tmpWDDataException$10757" SIG: class (token:0x442841)

;	.proc.beg
; Line 32
	ldarg.0				; this$
	call		??0Object@System@@$$FQ$AAM@XZ
$LN18@WDGroup@2:
; Line 34
	ldarg.1				; inRec$
	brtrue.s	$LN3@WDGroup@2
; Line 37
	ldarg.0				; this$
	ldc.i.2		2		; i32 0x2
	newarr		$TypeTok$110DD6FC$
	stfld		?GroupGt@WDGroup@WDDatas@@3P$01AEA
; Line 38
	ldarg.0				; this$
	ldc.i.2		2		; i32 0x2
	newarr		$TypeTok$110DD6FC$
	stfld		?GroupLt@WDGroup@WDDatas@@3P$01AEA
; Line 39
	br.s		$LN6@WDGroup@2
$LN3@WDGroup@2:
; Line 43
	ldarg.1				; inRec$
	call		?getDataLength@DataRecord@FJIsam@@$$FQ$AAMHXZ
	ldc.i4.s	100		; i32 0x64
	beq.s		$LN2@WDGroup@2
; Line 46
	ldstr		$StringLiteralTok$??_C@_1CM@HKPCENPL@0?G0?$PM0?$LP0?l0?$LD0?$PM0?I0LR?$AG?$JI?$FO0?G0?$PM0?$LP0g0o0B0?$IK0?$HO0?$FL0?$JD0?$AC?$AA?$AA@
	newobj		??0WDDatasException@WDDatas@@$$FQ$AAM@P$AAVString@System@@@Z
	stloc.1				; tmpWDDataException$10757
; Line 47
	ldloc.1				; tmpWDDataException$10757
	ldc.i4		10301		; i32 0x283d
	stfld		?ErrorCode@WDDatasException@WDDatas@@3HA
; Line 48
	ldloc.1				; tmpWDDataException$10757
	ldc.i.1		1		; i32 0x1
	stfld		?ErrorCode2@WDDatasException@WDDatas@@3HA
; Line 49
	ldloc.1				; tmpWDDataException$10757
	throw.u2	
$LN2@WDGroup@2:
; Line 53
	ldarg.0				; this$
	ldc.i.2		2		; i32 0x2
	newarr		$TypeTok$110DD6FC$
	stfld		?GroupGt@WDGroup@WDDatas@@3P$01AEA
; Line 54
	ldarg.0				; this$
	ldc.i.2		2		; i32 0x2
	newarr		$TypeTok$110DD6FC$
	stfld		?GroupLt@WDGroup@WDDatas@@3P$01AEA
$LN19@WDGroup@2:
; Line 59
	ldarg.0				; this$
	ldarg.1				; inRec$
	callvirt	?setRecord@WDGroup@WDDatas@@$$FU$AAMXP$AAVDataRecord@FJIsam@@@Z
	leave.s		$LN6@WDGroup@2
__catch$??0WDGroup@WDDatas@@$$FQ$AAM@P$AAVDataRecord@FJIsam@@@Z$0:
; Line 60
	imp.push	
	stloc.2				; exp$11294
; Line 62
	ldstr		$StringLiteralTok$??_C@_1CE@JDMCCNFK@0?G0?$PM0?$LP?$IK?9?$FL?$JK0g0?$KI0?i0?$PM0Lvzu?$BP0W0?$HO0W0_0?$AC?$AA?$AA@
	ldloc.2				; exp$11294
	newobj		??0WDDatasException@WDDatas@@$$FQ$AAM@P$AAVString@System@@P$AAVException@3@@Z
	stloc.0				; tmpWDDataException$11296
; Line 63
	ldloc.0				; tmpWDDataException$11296
	ldc.i4		10301		; i32 0x283d
	stfld		?ErrorCode@WDDatasException@WDDatas@@3HA
; Line 64
	ldloc.0				; tmpWDDataException$11296
	ldc.i.2		2		; i32 0x2
	stfld		?ErrorCode2@WDDatasException@WDDatas@@3HA
; Line 65
	ldloc.0				; tmpWDDataException$11296
	throw.u2	
$LN12@WDGroup@2:
	leave.s		$LN6@WDGroup@2
$LN6@WDGroup@2:
$LN5@WDGroup@2:
$LN17@WDGroup@2:
; Line 67
	leave.s		$LN20@WDGroup@2
$LN21@WDGroup@2:
	ldarg.0				; this$
	ldc.i.1		1		; u8 0x1
	call		?<Dispose>@WDRec@WDDatas@@$$FM$AAMX_N@Z
	endfinally	
$LN20@WDGroup@2:
	ret		
 .end ??0WDGroup@WDDatas@@$$FQ$AAM@P$AAVDataRecord@FJIsam@@@Z ; WDDatas::WDGroup::WDGroup
;	.proc.end.void
