; Listing generated by Microsoft (R) Optimizing Compiler Version 16.00.30319.01 

; Generated by VC++ for Common Language Runtime
.file "C:\Users\aMotoo\Documents\MyProject\WordDicBT\WDDatas\WDMean.cpp"
.global	
	.bss
.local	,4
; Function compile flags: /Ogtp
	.text
	.comdat	any, ??0WDRec@WDDatas@@$$FQ$AAM@XZ
.global	??0WDRec@WDDatas@@$$FQ$AAM@XZ			; WDDatas::WDRec::WDRec
??0WDRec@WDDatas@@$$FQ$AAM@XZ:				; WDDatas::WDRec::WDRec
;	.proc.def	D:V()

; Function Header:
; max stack depth = 1
; function size = 7 bytes
; local varsig tk = 0x0 
; Exception Information:
; 0 handlers, each consisting of filtered handlers

;	.formal.mptr 0,"this$" SIG: Optional C Binding Modifier(token:0x4B83AD).class (token:0x4B83AF)

;	.proc.beg
	ldarg.0				; this$
	call		??0Object@System@@$$FQ$AAM@XZ
	ret		
 .end ??0WDRec@WDDatas@@$$FQ$AAM@XZ			; WDDatas::WDRec::WDRec
;	.proc.end.void
; Function compile flags: /Ogtp
	.text
	.comdat	any, ?<Dispose>@WDRec@WDDatas@@$$FM$AAMX_N@Z
.global	?<Dispose>@WDRec@WDDatas@@$$FM$AAMX_N@Z		; WDDatas::WDRec::<Dispose>
?<Dispose>@WDRec@WDDatas@@$$FM$AAMX_N@Z:		; WDDatas::WDRec::<Dispose>
;	.proc.def	D:V(I)

; Function Header:
; max stack depth = 1
; function size = 18 bytes
; local varsig tk = 0x0 
; Exception Information:
; 0 handlers, each consisting of filtered handlers

;	.formal.mptr 0,"this$" SIG: Optional C Binding Modifier(token:0x4B83AD).class (token:0x4B83AF)
;	.formal.u1 1,"disposing$" SIG: bool

;	.proc.beg
	ldarg.1				; disposing$
	brfalse.s	$LN2@
	ldarg.0				; this$
	call		??1WDRec@WDDatas@@$$FA$AAM@XZ
	br.s		$LN1@
$LN2@:
	ldarg.0				; this$
	call		?<Finalize>@Object@System@@$$FM$AAMXXZ
$LN1@:
	ret		
 .end ?<Dispose>@WDRec@WDDatas@@$$FM$AAMX_N@Z		; WDDatas::WDRec::<Dispose>
;	.proc.end.void
.global	
	.bss
.local	,4
; Function compile flags: /Ogtp
	.text
	.comdat	any, ?<Dispose>@WDWord@WDDatas@@$$FM$AAMX_N@Z
.global	?<Dispose>@WDWord@WDDatas@@$$FM$AAMX_N@Z	; WDDatas::WDWord::<Dispose>
?<Dispose>@WDWord@WDDatas@@$$FM$AAMX_N@Z:		; WDDatas::WDWord::<Dispose>
;	.proc.def	D:V(I)

; Function Header:
; max stack depth = 2
; function size = 27 bytes
; local varsig tk = 0x0 
; Exception Information:
; 1 handlers, each consisting of filtered handlers

;	.formal.mptr 0,"this$" SIG: Optional C Binding Modifier(token:0x4B7FAD).class (token:0x4B7FAF)
;	.formal.u1 1,"disposing$" SIG: bool

;	.proc.beg
	ldarg.1				; disposing$
	brfalse.s	$LN3@
$LN13@:
	ldarg.0				; this$
	call		??1WDWord@WDDatas@@$$FA$AAM@XZ
$LN2@:
	leave.s		$LN12@
$LN7@:
	ldarg.0				; this$
	ldc.i.1		1		; u8 0x1
	call		?<Dispose>@WDRec@WDDatas@@$$FM$AAMX_N@Z
$LN9@:
	endfinally	
$LN3@:
	ldarg.0				; this$
	ldc.i.0		0		; u8 0x0
	call		?<Dispose>@WDRec@WDDatas@@$$FM$AAMX_N@Z
$LN12@:
	ret		
 .end ?<Dispose>@WDWord@WDDatas@@$$FM$AAMX_N@Z		; WDDatas::WDWord::<Dispose>
;	.proc.end.void
.global	
	.bss
.local	,4
; Function compile flags: /Ogtp
	.text
	.comdat	any, ??0WDMeanGroup@WDDatas@@$$FQ$AAM@XZ
.global	??0WDMeanGroup@WDDatas@@$$FQ$AAM@XZ		; WDDatas::WDMeanGroup::WDMeanGroup
??0WDMeanGroup@WDDatas@@$$FQ$AAM@XZ:			; WDDatas::WDMeanGroup::WDMeanGroup
;	.proc.def	D:V()

; Function Header:
; max stack depth = 1
; function size = 7 bytes
; local varsig tk = 0x0 
; Exception Information:
; 0 handlers, each consisting of filtered handlers

;	.formal.mptr 0,"this$" SIG: Optional C Binding Modifier(token:0x4B7F1D).class (token:0x4B7F1F)

;	.proc.beg
	ldarg.0				; this$
	call		??0Object@System@@$$FQ$AAM@XZ
	ret		
 .end ??0WDMeanGroup@WDDatas@@$$FQ$AAM@XZ		; WDDatas::WDMeanGroup::WDMeanGroup
;	.proc.end.void
.global	
	.bss
.local	,4
; Function compile flags: /Ogtp
	.text
	.comdat	any, ??0WDMeanGrpComparer@WDDatas@@$$FQ$AAM@XZ
.global	??0WDMeanGrpComparer@WDDatas@@$$FQ$AAM@XZ	; WDDatas::WDMeanGrpComparer::WDMeanGrpComparer
??0WDMeanGrpComparer@WDDatas@@$$FQ$AAM@XZ:		; WDDatas::WDMeanGrpComparer::WDMeanGrpComparer
;	.proc.def	D:V()

; Function Header:
; max stack depth = 1
; function size = 7 bytes
; local varsig tk = 0x0 
; Exception Information:
; 0 handlers, each consisting of filtered handlers

;	.formal.mptr 0,"this$" SIG: Optional C Binding Modifier(token:0x4B7E85).class (token:0x4B7E87)

;	.proc.beg
	ldarg.0				; this$
	call		??0Object@System@@$$FQ$AAM@XZ
	ret		
 .end ??0WDMeanGrpComparer@WDDatas@@$$FQ$AAM@XZ		; WDDatas::WDMeanGrpComparer::WDMeanGrpComparer
;	.proc.end.void
.global	?WDMeanGrpComp@WDMean@WDDatas@@0P$AAVWDMeanGrpComparer@2@$AA ; WDDatas::WDMean::WDMeanGrpComp
	.bss
.local	?WDMeanGrpComp@WDMean@WDDatas@@0P$AAVWDMeanGrpComparer@2@$AA,4 ; WDDatas::WDMean::WDMeanGrpComp
; Function compile flags: /Ogtp
	.text
	.comdat	any, ?.cctor@WDMean@WDDatas@@$$FSMXXZ
.global	?.cctor@WDMean@WDDatas@@$$FSMXXZ		; ?.cctor@WDMean@WDDatas@@$$FSMXXZ
?.cctor@WDMean@WDDatas@@$$FSMXXZ:			; ?.cctor@WDMean@WDDatas@@$$FSMXXZ
;	.proc.def	D:V()

; Function Header:
; max stack depth = 1
; function size = 7 bytes
; local varsig tk = 0x0 
; Exception Information:
; 0 handlers, each consisting of filtered handlers


;	.proc.beg
	ldnull		0		; i32 0x0
	stsfld		?WDMeanGrpComp@WDMean@WDDatas@@0P$AAVWDMeanGrpComparer@2@$AA
	ret		
 .end ?.cctor@WDMean@WDDatas@@$$FSMXXZ			; ?.cctor@WDMean@WDDatas@@$$FSMXXZ
;	.proc.end.void
.global	
	.bss
.local	,4
; Function compile flags: /Ogtp
	.text
	.comdat	any, ?<Dispose>@WDTrans@WDDatas@@$$FM$AAMX_N@Z
.global	?<Dispose>@WDTrans@WDDatas@@$$FM$AAMX_N@Z	; WDDatas::WDTrans::<Dispose>
?<Dispose>@WDTrans@WDDatas@@$$FM$AAMX_N@Z:		; WDDatas::WDTrans::<Dispose>
;	.proc.def	D:V(I)

; Function Header:
; max stack depth = 2
; function size = 27 bytes
; local varsig tk = 0x0 
; Exception Information:
; 1 handlers, each consisting of filtered handlers

;	.formal.mptr 0,"this$" SIG: Optional C Binding Modifier(token:0x4B7C09).class (token:0x4B7C0B)
;	.formal.u1 1,"disposing$" SIG: bool

;	.proc.beg
	ldarg.1				; disposing$
	brfalse.s	$LN3@
$LN13@:
	ldarg.0				; this$
	call		??1WDTrans@WDDatas@@$$FA$AAM@XZ
$LN2@:
	leave.s		$LN12@
$LN7@:
	ldarg.0				; this$
	ldc.i.1		1		; u8 0x1
	call		?<Dispose>@WDRec@WDDatas@@$$FM$AAMX_N@Z
$LN9@:
	endfinally	
$LN3@:
	ldarg.0				; this$
	ldc.i.0		0		; u8 0x0
	call		?<Dispose>@WDRec@WDDatas@@$$FM$AAMX_N@Z
$LN12@:
	ret		
 .end ?<Dispose>@WDTrans@WDDatas@@$$FM$AAMX_N@Z		; WDDatas::WDTrans::<Dispose>
;	.proc.end.void
.global	
	.bss
.local	,4
; Function compile flags: /Ogtp
	.text
	.comdat	any, ?<Dispose>@WDRelation@WDDatas@@$$FM$AAMX_N@Z
.global	?<Dispose>@WDRelation@WDDatas@@$$FM$AAMX_N@Z	; WDDatas::WDRelation::<Dispose>
?<Dispose>@WDRelation@WDDatas@@$$FM$AAMX_N@Z:		; WDDatas::WDRelation::<Dispose>
;	.proc.def	D:V(I)

; Function Header:
; max stack depth = 2
; function size = 27 bytes
; local varsig tk = 0x0 
; Exception Information:
; 1 handlers, each consisting of filtered handlers

;	.formal.mptr 0,"this$" SIG: Optional C Binding Modifier(token:0x4AD9C9).class (token:0x4AD9CB)
;	.formal.u1 1,"disposing$" SIG: bool

;	.proc.beg
	ldarg.1				; disposing$
	brfalse.s	$LN3@
$LN13@:
	ldarg.0				; this$
	call		??1WDRelation@WDDatas@@$$FA$AAM@XZ
$LN2@:
	leave.s		$LN12@
$LN7@:
	ldarg.0				; this$
	ldc.i.1		1		; u8 0x1
	call		?<Dispose>@WDRec@WDDatas@@$$FM$AAMX_N@Z
$LN9@:
	endfinally	
$LN3@:
	ldarg.0				; this$
	ldc.i.0		0		; u8 0x0
	call		?<Dispose>@WDRec@WDDatas@@$$FM$AAMX_N@Z
$LN12@:
	ret		
 .end ?<Dispose>@WDRelation@WDDatas@@$$FM$AAMX_N@Z	; WDDatas::WDRelation::<Dispose>
;	.proc.end.void
.global	
	.bss
.local	,4
; Function compile flags: /Ogtp
	.text
	.comdat	any, ?<Dispose>@WDGroup@WDDatas@@$$FM$AAMX_N@Z
.global	?<Dispose>@WDGroup@WDDatas@@$$FM$AAMX_N@Z	; WDDatas::WDGroup::<Dispose>
?<Dispose>@WDGroup@WDDatas@@$$FM$AAMX_N@Z:		; WDDatas::WDGroup::<Dispose>
;	.proc.def	D:V(I)

; Function Header:
; max stack depth = 2
; function size = 27 bytes
; local varsig tk = 0x0 
; Exception Information:
; 1 handlers, each consisting of filtered handlers

;	.formal.mptr 0,"this$" SIG: Optional C Binding Modifier(token:0x4AD915).class (token:0x4AD917)
;	.formal.u1 1,"disposing$" SIG: bool

;	.proc.beg
	ldarg.1				; disposing$
	brfalse.s	$LN3@
$LN13@:
	ldarg.0				; this$
	call		??1WDGroup@WDDatas@@$$FA$AAM@XZ
$LN2@:
	leave.s		$LN12@
$LN7@:
	ldarg.0				; this$
	ldc.i.1		1		; u8 0x1
	call		?<Dispose>@WDRec@WDDatas@@$$FM$AAMX_N@Z
$LN9@:
	endfinally	
$LN3@:
	ldarg.0				; this$
	ldc.i.0		0		; u8 0x0
	call		?<Dispose>@WDRec@WDDatas@@$$FM$AAMX_N@Z
$LN12@:
	ret		
 .end ?<Dispose>@WDGroup@WDDatas@@$$FM$AAMX_N@Z		; WDDatas::WDGroup::<Dispose>
;	.proc.end.void
.global	
	.bss
.local	,4
; Function compile flags: /Ogtp
	.text
	.comdat	any, ?<Dispose>@WDSegment@WDDatas@@$$FM$AAMX_N@Z
.global	?<Dispose>@WDSegment@WDDatas@@$$FM$AAMX_N@Z	; WDDatas::WDSegment::<Dispose>
?<Dispose>@WDSegment@WDDatas@@$$FM$AAMX_N@Z:		; WDDatas::WDSegment::<Dispose>
;	.proc.def	D:V(I)

; Function Header:
; max stack depth = 2
; function size = 27 bytes
; local varsig tk = 0x0 
; Exception Information:
; 1 handlers, each consisting of filtered handlers

;	.formal.mptr 0,"this$" SIG: Optional C Binding Modifier(token:0x4AD7C9).class (token:0x4AD7CB)
;	.formal.u1 1,"disposing$" SIG: bool

;	.proc.beg
	ldarg.1				; disposing$
	brfalse.s	$LN3@
$LN13@:
	ldarg.0				; this$
	call		??1WDSegment@WDDatas@@$$FA$AAM@XZ
$LN2@:
	leave.s		$LN12@
$LN7@:
	ldarg.0				; this$
	ldc.i.1		1		; u8 0x1
	call		?<Dispose>@WDRec@WDDatas@@$$FM$AAMX_N@Z
$LN9@:
	endfinally	
$LN3@:
	ldarg.0				; this$
	ldc.i.0		0		; u8 0x0
	call		?<Dispose>@WDRec@WDDatas@@$$FM$AAMX_N@Z
$LN12@:
	ret		
 .end ?<Dispose>@WDSegment@WDDatas@@$$FM$AAMX_N@Z	; WDDatas::WDSegment::<Dispose>
;	.proc.end.void
.global	?Rank@WDMean@WDDatas@@3HA			; WDDatas::WDMean::Rank
.global	?Speech@WDMean@WDDatas@@3EA			; WDDatas::WDMean::Speech
.global	?MeanGroup@WDMean@WDDatas@@3P$AAV?$List@P$AAUWDMeanGroup@WDDatas@@@Generic@Collections@System@@$AA ; WDDatas::WDMean::MeanGroup
.global	?MeanNo@WDMean@WDDatas@@3HA			; WDDatas::WDMean::MeanNo
.global	?WordID@WDMean@WDDatas@@3HA			; WDDatas::WDMean::WordID
.global	
	.bss
.local	?Rank@WDMean@WDDatas@@3HA,4			; WDDatas::WDMean::Rank
.local	?Speech@WDMean@WDDatas@@3EA,1			; WDDatas::WDMean::Speech
	.align	2
.local	?MeanGroup@WDMean@WDDatas@@3P$AAV?$List@P$AAUWDMeanGroup@WDDatas@@@Generic@Collections@System@@$AA,4 ; WDDatas::WDMean::MeanGroup
.local	?MeanNo@WDMean@WDDatas@@3HA,4			; WDDatas::WDMean::MeanNo
.local	?WordID@WDMean@WDDatas@@3HA,4			; WDDatas::WDMean::WordID
.local	,4
; Function compile flags: /Ogtp
	.text
	.comdat	noduplicate, ??0WDMean@WDDatas@@$$FQ$AAM@XZ
.global	??0WDMean@WDDatas@@$$FQ$AAM@XZ			; WDDatas::WDMean::WDMean
??0WDMean@WDDatas@@$$FQ$AAM@XZ:				; WDDatas::WDMean::WDMean
;	.proc.def	D:V()

; Function Header:
; max stack depth = 2
; function size = 80 bytes
; local varsig tk = 0x0 
; Exception Information:
; 1 handlers, each consisting of filtered handlers

;	.formal.mptr 0,"this$" SIG: Optional C Binding Modifier(token:0x4B7DF9).class (token:0x4B7DFB)

;	.proc.beg
; File c:\users\amotoo\documents\myproject\worddicbt\wddatas\wdmean.cpp
; Line 24
	ldarg.0				; this$
	call		??0Object@System@@$$FQ$AAM@XZ
$LN7@WDMean:
; Line 26
	ldsfld		?WDMeanGrpComp@WDMean@WDDatas@@0P$AAVWDMeanGrpComparer@2@$AA
	brtrue.s	$LN1@WDMean
	newobj		??0WDMeanGrpComparer@WDDatas@@$$FQ$AAM@XZ
	stsfld		?WDMeanGrpComp@WDMean@WDDatas@@0P$AAVWDMeanGrpComparer@2@$AA
$LN1@WDMean:
; Line 29
	ldarg.0				; this$
	ldc.i.0		0		; i32 0x0
	stfld		?WordID@WDMean@WDDatas@@3HA
; Line 30
	ldarg.0				; this$
	ldc.i.0		0		; i32 0x0
	stfld		?MeanNo@WDMean@WDDatas@@3HA
; Line 31
	ldarg.0				; this$
	newobj		??0?$List@P$AAUWDMeanGroup@WDDatas@@@Generic@Collections@System@@$$FQ$AAM@XZ
	stfld		?MeanGroup@WDMean@WDDatas@@3P$AAV?$List@P$AAUWDMeanGroup@WDDatas@@@Generic@Collections@System@@$AA
; Line 32
	ldarg.0				; this$
	ldc.i.0		0		; u8 0x0
	stfld		?Speech@WDMean@WDDatas@@3EA
; Line 33
	ldarg.0				; this$
	ldc.i.0		0		; i32 0x0
	stfld		?Rank@WDMean@WDDatas@@3HA
; Line 35
	ldarg.0				; this$
	ldnull		0		; i32 0x0
	call		?setRecord@WDRec@WDDatas@@$$FU$AAMXP$AAVDataRecord@FJIsam@@@Z
	leave.s		$LN8@WDMean
$LN9@WDMean:
	ldarg.0				; this$
	ldc.i.1		1		; u8 0x1
	call		?<Dispose>@WDRec@WDDatas@@$$FM$AAMX_N@Z
	endfinally	
$LN8@WDMean:
; Line 37
	ret		
 .end ??0WDMean@WDDatas@@$$FQ$AAM@XZ			; WDDatas::WDMean::WDMean
;	.proc.end.void
.global	?Example@WDMean@WDDatas@@3P$AAVString@System@@$AA ; WDDatas::WDMean::Example
.global	?Mean@WDMean@WDDatas@@3P$AAVString@System@@$AA	; WDDatas::WDMean::Mean
.global	?GroupLt@WDMeanGroup@WDDatas@@3P$01AEA		; WDDatas::WDMeanGroup::GroupLt
.global	?GroupGt@WDMeanGroup@WDDatas@@3P$01AEA		; WDDatas::WDMeanGroup::GroupGt
.global	
.global	
	.bss
.local	$T13136,0
.local	?Example@WDMean@WDDatas@@3P$AAVString@System@@$AA,4 ; WDDatas::WDMean::Example
.local	?Mean@WDMean@WDDatas@@3P$AAVString@System@@$AA,4 ; WDDatas::WDMean::Mean
.local	$TypeTok$1102D1B0$,4
.local	?GroupLt@WDMeanGroup@WDDatas@@3P$01AEA,4	; WDDatas::WDMeanGroup::GroupLt
.local	?GroupGt@WDMeanGroup@WDDatas@@3P$01AEA,4	; WDDatas::WDMeanGroup::GroupGt
.local	,4
.local	,4
; Function compile flags: /Ogtp
	.text
	.comdat	noduplicate, ??1WDMean@WDDatas@@$$FA$AAM@XZ
.global	??1WDMean@WDDatas@@$$FA$AAM@XZ			; WDDatas::WDMean::~WDMean
??1WDMean@WDDatas@@$$FA$AAM@XZ:				; WDDatas::WDMean::~WDMean
;	.proc.def	D:V()

; Function Header:
; max stack depth = 2
; function size = 144 bytes
; local varsig tk = 0x1100000C 
; Exception Information:
; 0 handlers, each consisting of filtered handlers

;	.formal.mptr 0,"this$" SIG: Optional C Binding Modifier(token:0x4B7DF9).class (token:0x4B7DFB)
;	.local.mptr 2,"$T11976" SIG: class (token:0x4A9385)
;	.local.mptr 3,"$T11971" SIG: class (token:0x4A9385)
;	.local.mptr 0,"tmpMeanGroup$" SIG: class (token:0x4A92F5)
;	.local.i4 1,"i$11962" SIG: i4

;	.proc.beg
; Line 89
	ldc.i.0		0		; i32 0x0
	stloc.1				; i$11962
	ldc.i.0		0		; i32 0x0
	ldarg.0				; this$
	ldfld		?MeanGroup@WDMean@WDDatas@@3P$AAV?$List@P$AAUWDMeanGroup@WDDatas@@@Generic@Collections@System@@$AA
	callvirt	?get@Count@?$List@P$AAUWDMeanGroup@WDDatas@@@Generic@Collections@System@@$$FU$AAMHXZ
	bge.s		$LN6@WDMean@2
$LL8@WDMean@2:
; Line 91
	ldarg.0				; this$
	ldfld		?MeanGroup@WDMean@WDDatas@@3P$AAV?$List@P$AAUWDMeanGroup@WDDatas@@@Generic@Collections@System@@$AA
	ldloc.1				; i$11962
	callvirt	?get@default@?$List@P$AAUWDMeanGroup@WDDatas@@@Generic@Collections@System@@$$FU$AAMP$AAUWDMeanGroup@WDDatas@@H@Z
	stloc.0				; tmpMeanGroup$
; Line 92
	ldloc.0				; tmpMeanGroup$
	brfalse.s	$LN7@WDMean@2
; Line 94
	ldloc.0				; tmpMeanGroup$
	ldfld		?GroupGt@WDMeanGroup@WDDatas@@3P$01AEA
	brfalse.s	$LN4@WDMean@2
	ldloc.0				; tmpMeanGroup$
	ldnull		0		; i32 0x0
	stfld		?GroupGt@WDMeanGroup@WDDatas@@3P$01AEA
$LN4@WDMean@2:
; Line 95
	ldloc.0				; tmpMeanGroup$
	ldfld		?GroupLt@WDMeanGroup@WDDatas@@3P$01AEA
	brfalse.s	$LN3@WDMean@2
	ldloc.0				; tmpMeanGroup$
	ldnull		0		; i32 0x0
	stfld		?GroupLt@WDMeanGroup@WDDatas@@3P$01AEA
$LN3@WDMean@2:
; Line 96
	ldloc.0				; tmpMeanGroup$
	isInst		$TypeTok$1102D1B0$
	stloc.3				; $T11971
	ldloc.3				; $T11971
	brfalse.s	$LN7@WDMean@2
	ldloc.3				; $T11971
	callvirt	?<Dispose>@IDisposable@System@@$$FU$AAMXXZ
$LN7@WDMean@2:
; Line 89
	ldloc.1				; i$11962
	ldc.i.1		1		; i32 0x1
	add		
	stloc.1				; i$11962
	ldloc.1				; i$11962
	ldarg.0				; this$
	ldfld		?MeanGroup@WDMean@WDDatas@@3P$AAV?$List@P$AAUWDMeanGroup@WDDatas@@@Generic@Collections@System@@$AA
	callvirt	?get@Count@?$List@P$AAUWDMeanGroup@WDDatas@@@Generic@Collections@System@@$$FU$AAMHXZ
	blt.s		$LL8@WDMean@2
$LN6@WDMean@2:
; Line 99
	ldarg.0				; this$
	ldfld		?MeanGroup@WDMean@WDDatas@@3P$AAV?$List@P$AAUWDMeanGroup@WDDatas@@@Generic@Collections@System@@$AA
	isInst		$TypeTok$1102D1B0$
	stloc.2				; $T11976
	ldloc.2				; $T11976
	brfalse.s	$LN13@WDMean@2
	ldloc.2				; $T11976
	callvirt	?<Dispose>@IDisposable@System@@$$FU$AAMXXZ
$LN13@WDMean@2:
; Line 100
	ldarg.0				; this$
	ldfld		?Mean@WDMean@WDDatas@@3P$AAVString@System@@$AA
	ldnull		0		; i32 0x0
	call		??9String@System@@$$FSM_NP$AAV01@0@Z
	pop		
; Line 101
	ldarg.0				; this$
	ldfld		?Example@WDMean@WDDatas@@3P$AAVString@System@@$AA
	ldnull		0		; i32 0x0
	call		??9String@System@@$$FSM_NP$AAV01@0@Z
	pop		
; Line 102
	ret		
 .end ??1WDMean@WDDatas@@$$FA$AAM@XZ			; WDDatas::WDMean::~WDMean
;	.proc.end.void
.global	?GroupRank@WDMeanGroup@WDDatas@@3HA		; WDDatas::WDMeanGroup::GroupRank
.global	?MeanFlg@WDMeanGroup@WDDatas@@3HA		; WDDatas::WDMeanGroup::MeanFlg
.global	?DataRec@WDMeanGroup@WDDatas@@3P$AAVDataRecord@FJIsam@@$AA ; WDDatas::WDMeanGroup::DataRec
.global	?ErrorCode2@WDDatasException@WDDatas@@3HA	; WDDatas::WDDatasException::ErrorCode2
.global	?ErrorCode@WDDatasException@WDDatas@@3HA	; WDDatas::WDDatasException::ErrorCode
.global	
.global	
.global	
.global	
	.bss
.local	$T13156,0
.local	$StringLiteralTok$??_C@_1CA@KIOCOIAC@0?$KE0?s0?G0?C0?$KP0?$LJ0nc?$AH?$FL?$JK0LN?$ANkc0g0Y0?$AC?$AA?$AA@,4
.local	$StringLiteralTok$??_C@_1CM@IBIPDKIN@0?G0?$PM0?$LP0?l0?$LD0?$PM0?IS?V_?$JH0g0?$KI0?i0?$PM0Lvzu?$BP0W0?$HO0W0_0?$AC?$AA?$AA@,4
.local	?GroupRank@WDMeanGroup@WDDatas@@3HA,4		; WDDatas::WDMeanGroup::GroupRank
.local	$TypeTok$110DD6FC$,4
.local	?MeanFlg@WDMeanGroup@WDDatas@@3HA,4		; WDDatas::WDMeanGroup::MeanFlg
.local	?DataRec@WDMeanGroup@WDDatas@@3P$AAVDataRecord@FJIsam@@$AA,4 ; WDDatas::WDMeanGroup::DataRec
.local	?ErrorCode2@WDDatasException@WDDatas@@3HA,4	; WDDatas::WDDatasException::ErrorCode2
.local	?ErrorCode@WDDatasException@WDDatas@@3HA,4	; WDDatas::WDDatasException::ErrorCode
.local	$StringLiteralTok$??_C@_1BM@FNNMDIML@a?$APTs0?G0?$PM0?$LP0L?$FLXW?$CI0W0?$HO0?$FL0?$JD0?$AC?$AA?$AA@,4
.local	,4
.local	,4
.local	,4
.local	,4
; Function compile flags: /Ogtp
	.text
	.comdat	noduplicate, ?getRecord@WDMean@WDDatas@@$$FQ$AAMP$AAVDataRecord@FJIsam@@H@Z
.global	?getRecord@WDMean@WDDatas@@$$FQ$AAMP$AAVDataRecord@FJIsam@@H@Z ; WDDatas::WDMean::getRecord
?getRecord@WDMean@WDDatas@@$$FQ$AAMP$AAVDataRecord@FJIsam@@H@Z: ; WDDatas::WDMean::getRecord
;	.proc.def	D:P(I)

; Function Header:
; max stack depth = 5
; function size = 470 bytes
; local varsig tk = 0x11000011 
; Exception Information:
; 1 handlers, each consisting of filtered handlers

;	.formal.i4 1,"inIdx$" SIG: i4
;	.formal.mptr 0,"this$" SIG: Optional C Binding Modifier(token:0x4B7DF9).class (token:0x4B7DFB)
;	.local.mptr 4,"tmpWDDataException$12002" SIG: class (token:0x4A97C5)
;	.local.mptr 5,"tmpWDDataException$12144" SIG: class (token:0x4A97C5)
;	.local.mptr 8,"exp$12142" SIG: class (token:0x4A9739)
;	.local.i4 6,"i$12137" SIG: i4
;	.local.i4 1,"tmpPos$" SIG: i4
;	.local.mptr 0,"rtData$" SIG: szarray (token:0x4BA511)
;	.local.mptr 2,"tmpWDMeanGroup$" SIG: class (token:0x4A92F5)
;	.local.mptr 7,"tmpWDDataException$11997" SIG: class (token:0x4A97C5)
;	.local.mptr 3,"tmpRec$" SIG: class (token:0x4A9859)

;	.proc.beg
; Line 114
	ldnull		0		; i32 0x0
	stloc.3				; tmpRec$
; Line 121
	ldarg.0				; this$
	ldfld		?MeanGroup@WDMean@WDDatas@@3P$AAV?$List@P$AAUWDMeanGroup@WDDatas@@@Generic@Collections@System@@$AA
	callvirt	?get@Count@?$List@P$AAUWDMeanGroup@WDDatas@@@Generic@Collections@System@@$$FU$AAMHXZ
	brtrue.s	$LN13@getRecord
; Line 124
	ldstr		$StringLiteralTok$??_C@_1BM@FNNMDIML@a?$APTs0?G0?$PM0?$LP0L?$FLXW?$CI0W0?$HO0?$FL0?$JD0?$AC?$AA?$AA@
	newobj		??0WDDatasException@WDDatas@@$$FQ$AAM@P$AAVString@System@@@Z
	stloc.s		7		; tmpWDDataException$11997
; Line 125
	ldloc.s		7		; tmpWDDataException$11997
	ldc.i4		10202		; i32 0x27da
	stfld		?ErrorCode@WDDatasException@WDDatas@@3HA
; Line 126
	ldloc.s		7		; tmpWDDataException$11997
	ldc.i.1		1		; i32 0x1
	stfld		?ErrorCode2@WDDatasException@WDDatas@@3HA
; Line 127
	ldloc.s		7		; tmpWDDataException$11997
	throw.u2	
$LN13@getRecord:
; Line 130
	ldarg.1				; inIdx$
	ldc.i.0		0		; i32 0x0
	blt		$LN11@getRecord
	ldarg.1				; inIdx$
	ldarg.0				; this$
	ldfld		?MeanGroup@WDMean@WDDatas@@3P$AAV?$List@P$AAUWDMeanGroup@WDDatas@@@Generic@Collections@System@@$AA
	callvirt	?get@Count@?$List@P$AAUWDMeanGroup@WDDatas@@@Generic@Collections@System@@$$FU$AAMHXZ
	bge		$LN11@getRecord
$LN26@getRecord:
; Line 142
	ldarg.0				; this$
	ldfld		?MeanGroup@WDMean@WDDatas@@3P$AAV?$List@P$AAUWDMeanGroup@WDDatas@@@Generic@Collections@System@@$AA
	ldarg.1				; inIdx$
	callvirt	?get@default@?$List@P$AAUWDMeanGroup@WDDatas@@@Generic@Collections@System@@$$FU$AAMP$AAUWDMeanGroup@WDDatas@@H@Z
	stloc.2				; tmpWDMeanGroup$
; Line 143
	ldloc.2				; tmpWDMeanGroup$
	ldfld		?DataRec@WDMeanGroup@WDDatas@@3P$AAVDataRecord@FJIsam@@$AA
	stloc.3				; tmpRec$
; Line 144
	ldloc.3				; tmpRec$
	brtrue.s	$LN9@getRecord
; Line 146
	newobj		??0DataRecord@FJIsam@@$$FQ$AAM@XZ
	stloc.3				; tmpRec$
$LN9@getRecord:
; Line 150
	ldloc.2				; tmpWDMeanGroup$
	ldfld		?MeanFlg@WDMeanGroup@WDDatas@@3HA
	brtrue.s	$LN8@getRecord
; Line 152
	ldc.i4		1000		; i32 0x3e8
	newarr		$TypeTok$110DD6FC$
	stloc.0				; rtData$
; Line 153
	br.s		$LN7@getRecord
$LN8@getRecord:
; Line 154
	ldc.i4.s	20		; i32 0x14
	newarr		$TypeTok$110DD6FC$
	stloc.0				; rtData$
$LN7@getRecord:
; Line 157
	ldc.i.0		0		; i32 0x0
	stloc.1				; tmpPos$
; Line 160
	ldarg.0				; this$
	ldfld		?WordID@WDMean@WDDatas@@3HA
	ldloc.0				; rtData$
	ldc.i.0		0		; i32 0x0
	call		?Int32ToArray@FJIFuncs@FJIsam@@$$FSMP$01AEHP$01AEH@Z
	pop		
; Line 161
	ldc.i.4		4		; i32 0x4
	stloc.1				; tmpPos$
; Line 163
	ldarg.0				; this$
	ldfld		?MeanNo@WDMean@WDDatas@@3HA
	ldloc.0				; rtData$
	ldc.i.4		4		; i32 0x4
	call		?Int32ToArray@FJIFuncs@FJIsam@@$$FSMP$01AEHP$01AEH@Z
	pop		
; Line 164
	ldc.i.8		8		; i32 0x8
	stloc.1				; tmpPos$
; Line 167
	ldloc.2				; tmpWDMeanGroup$
	ldfld		?MeanFlg@WDMeanGroup@WDDatas@@3HA
	ldloc.0				; rtData$
	ldc.i.8		8		; i32 0x8
	call		?Int32ToArray@FJIFuncs@FJIsam@@$$FSMP$01AEHP$01AEH@Z
	pop		
; Line 168
	ldc.i4.s	12		; i32 0xc
	stloc.1				; tmpPos$
; Line 170
	ldloc.2				; tmpWDMeanGroup$
	ldfld		?GroupGt@WDMeanGroup@WDDatas@@3P$01AEA
	ldc.i.0		0		; i32 0x0
	ldloc.0				; rtData$
	ldc.i4.s	12		; i32 0xc
	ldc.i.2		2		; i32 0x2
	call		?BlockCopy@Buffer@System@@$$FSMXP$AAVArray@2@H0HH@Z
; Line 171
	ldc.i4.s	14		; i32 0xe
	stloc.1				; tmpPos$
; Line 173
	ldloc.2				; tmpWDMeanGroup$
	ldfld		?GroupLt@WDMeanGroup@WDDatas@@3P$01AEA
	ldc.i.0		0		; i32 0x0
	ldloc.0				; rtData$
	ldc.i4.s	14		; i32 0xe
	ldc.i.2		2		; i32 0x2
	call		?BlockCopy@Buffer@System@@$$FSMXP$AAVArray@2@H0HH@Z
; Line 174
	ldc.i4.s	16		; i32 0x10
	stloc.1				; tmpPos$
; Line 176
	ldloc.2				; tmpWDMeanGroup$
	ldfld		?GroupRank@WDMeanGroup@WDDatas@@3HA
	ldloc.0				; rtData$
	ldc.i4.s	16		; i32 0x10
	call		?Int32ToArray@FJIFuncs@FJIsam@@$$FSMP$01AEHP$01AEH@Z
	pop		
; Line 177
	ldc.i4.s	20		; i32 0x14
	stloc.1				; tmpPos$
; Line 180
	ldloc.2				; tmpWDMeanGroup$
	ldfld		?MeanFlg@WDMeanGroup@WDDatas@@3HA
	brtrue		$LN6@getRecord
; Line 184
	ldloc.0				; rtData$
	ldc.i4.s	20		; i32 0x14
	ldarg.0				; this$
	ldfld		?Speech@WDMean@WDDatas@@3EA
	stelem.i1	
; Line 185
	ldc.i4.s	21		; i32 0x15
	stloc.1				; tmpPos$
; Line 187
	ldarg.0				; this$
	ldfld		?Rank@WDMean@WDDatas@@3HA
	ldloc.0				; rtData$
	ldc.i4.s	21		; i32 0x15
	call		?Int32ToArray@FJIFuncs@FJIsam@@$$FSMP$01AEHP$01AEH@Z
	pop		
; Line 188
	ldc.i4.s	25		; i32 0x19
	stloc.1				; tmpPos$
; Line 190
	ldarg.0				; this$
	ldfld		?Mean@WDMean@WDDatas@@3P$AAVString@System@@$AA
	ldloc.0				; rtData$
	ldc.i4.s	25		; i32 0x19
	ldc.i4		500		; i32 0x1f4
	call		?StringToArray@FJIFuncs@FJIsam@@$$FSMP$01AEP$AAVString@System@@P$01AEHH@Z
	pop		
; Line 191
	ldc.i4		525		; i32 0x20d
	stloc.1				; tmpPos$
; Line 193
	ldarg.0				; this$
	ldfld		?Example@WDMean@WDDatas@@3P$AAVString@System@@$AA
	ldloc.0				; rtData$
	ldc.i4		525		; i32 0x20d
	ldc.i4		400		; i32 0x190
	call		?StringToArray@FJIFuncs@FJIsam@@$$FSMP$01AEP$AAVString@System@@P$01AEHH@Z
	pop		
; Line 194
	ldc.i4		925		; i32 0x39d
	stloc.1				; tmpPos$
; Line 197
	ldc.i.0		0		; i32 0x0
	stloc.s		6		; i$12137
$LL5@getRecord:
	ldloc.s		6		; i$12137
	ldc.i4.s	75		; i32 0x4b
	bge.s		$LN3@getRecord
; Line 199
	ldloc.0				; rtData$
	ldloc.1				; tmpPos$
	ldc.i.0		0		; u8 0x0
	call		?SetByte@Buffer@System@@$$FSMXP$AAVArray@2@HE@Z
; Line 200
	ldloc.1				; tmpPos$
	ldc.i.1		1		; i32 0x1
	add		
	stloc.1				; tmpPos$
; Line 197
	ldloc.s		6		; i$12137
	ldc.i.1		1		; i32 0x1
	add		
	stloc.s		6		; i$12137
	br.s		$LL5@getRecord
$LN3@getRecord:
; Line 204
	ldloc.3				; tmpRec$
	ldloc.0				; rtData$
	ldc.i4		1000		; i32 0x3e8
	call		?setData@DataRecord@FJIsam@@$$FQ$AAMXP$01AEH@Z
	br.s		$LN2@getRecord
$LN6@getRecord:
; Line 207
	ldloc.3				; tmpRec$
	ldloc.0				; rtData$
	ldc.i4.s	20		; i32 0x14
	call		?setData@DataRecord@FJIsam@@$$FQ$AAMXP$01AEH@Z
$LN2@getRecord:
	leave.s		$LN16@getRecord
__catch$?getRecord@WDMean@WDDatas@@$$FQ$AAMP$AAVDataRecord@FJIsam@@H@Z$0:
; Line 211
	imp.push	
	stloc.s		8		; exp$12142
; Line 215
	ldstr		$StringLiteralTok$??_C@_1CM@IBIPDKIN@0?G0?$PM0?$LP0?l0?$LD0?$PM0?IS?V_?$JH0g0?$KI0?i0?$PM0Lvzu?$BP0W0?$HO0W0_0?$AC?$AA?$AA@
	ldloc.s		8		; exp$12142
	newobj		??0WDDatasException@WDDatas@@$$FQ$AAM@P$AAVString@System@@P$AAVException@3@@Z
	stloc.s		5		; tmpWDDataException$12144
; Line 216
	ldloc.s		5		; tmpWDDataException$12144
	ldc.i4		10202		; i32 0x27da
	stfld		?ErrorCode@WDDatasException@WDDatas@@3HA
; Line 217
	ldloc.s		5		; tmpWDDataException$12144
	ldc.i.3		3		; i32 0x3
	stfld		?ErrorCode2@WDDatasException@WDDatas@@3HA
; Line 218
	ldloc.s		5		; tmpWDDataException$12144
	throw.u2	
$LN21@getRecord:
	leave.s		$LN16@getRecord
$LN16@getRecord:
; Line 221
	ldloc.3				; tmpRec$
	ret		
$LN11@getRecord:
; Line 133
	ldstr		$StringLiteralTok$??_C@_1CA@KIOCOIAC@0?$KE0?s0?G0?C0?$KP0?$LJ0nc?$AH?$FL?$JK0LN?$ANkc0g0Y0?$AC?$AA?$AA@
	newobj		??0WDDatasException@WDDatas@@$$FQ$AAM@P$AAVString@System@@@Z
	stloc.s		4		; tmpWDDataException$12002
; Line 134
	ldloc.s		4		; tmpWDDataException$12002
	ldc.i4		10202		; i32 0x27da
	stfld		?ErrorCode@WDDatasException@WDDatas@@3HA
; Line 135
	ldloc.s		4		; tmpWDDataException$12002
	ldc.i.2		2		; i32 0x2
	stfld		?ErrorCode2@WDDatasException@WDDatas@@3HA
; Line 136
	ldloc.s		4		; tmpWDDataException$12002
	throw.u2	
$LN14@getRecord:
$LN25@getRecord:
; Line 222
	ldnull		
	ret		
 .end ?getRecord@WDMean@WDDatas@@$$FQ$AAMP$AAVDataRecord@FJIsam@@H@Z ; WDDatas::WDMean::getRecord
;	.proc.end.mptr
.global	
	.bss
.local	$T13182,0
.local	$StringLiteralTok$??_C@_1CG@PFOLFNFI@0?G0?$PM0?$LP0?l0?$LD0?$PM0?I0nf?x?$IP?$LM0kY1eW0W0?$HO0W0_0?$AC?$AA?$AA@,4
.local	$StringLiteralTok$??_C@_1BM@GMPFHKDE@0?l0?$LD0?$PM0?If?x?$IP?$LM0o0g0M0?$HO0?$FL0?$JD0?$AC?$AA?$AA@,4
.local	$StringLiteralTok$??_C@_1BO@OEMADJDL@?$AAI?$AAS?$AAA?$AAM0?U0?$KB0?$KE0?k0LN?$ANkc0g0Y0?$AC?$AA?$AA@,4
.local	$TypeTok$11280448$,4
.local	,4
; Function compile flags: /Ogtp
	.text
	.comdat	noduplicate, ?Write@WDMean@WDDatas@@$$FQ$AAMXH@Z
.global	?Write@WDMean@WDDatas@@$$FQ$AAMXH@Z		; WDDatas::WDMean::Write
?Write@WDMean@WDDatas@@$$FQ$AAMXH@Z:			; WDDatas::WDMean::Write
;	.proc.def	D:V(I)

; Function Header:
; max stack depth = 4
; function size = 325 bytes
; local varsig tk = 0x11000013 
; Exception Information:
; 2 handlers, each consisting of filtered handlers

;	.formal.i4 1,"inIdx$" SIG: i4
;	.formal.mptr 0,"this$" SIG: Optional C Binding Modifier(token:0x4B7DF9).class (token:0x4B7DFB)
;	.local.mptr 2,"tmpWDDataException$12211" SIG: class (token:0x4A97C5)
;	.local.mptr 3,"tmpWDDataException$12395" SIG: class (token:0x4A97C5)
;	.local.mptr 7,"exp$12394" SIG: class (token:0x4A9739)
;	.local.mptr 4,"tmpWDDataException$12391" SIG: class (token:0x4A97C5)
;	.local.mptr 0,"tmpRec$" SIG: class (token:0x4A9859)
;	.local.mptr 5,"tmpWDDataException$12383" SIG: class (token:0x4A97C5)
;	.local.mptr 8,"exp$12382" SIG: class (token:0x4A9739)
;	.local.mptr 6,"tmpWDDataException$12207" SIG: class (token:0x4A97C5)
;	.local.mptr 1,"tmpParent$" SIG: class (token:0x4B06C9)

;	.proc.beg
; Line 358
	ldnull		0		; i32 0x0
	stloc.1				; tmpParent$
; Line 363
	ldarg.0				; this$
	ldfld		?MeanGroup@WDMean@WDDatas@@3P$AAV?$List@P$AAUWDMeanGroup@WDDatas@@@Generic@Collections@System@@$AA
	callvirt	?get@Count@?$List@P$AAUWDMeanGroup@WDDatas@@@Generic@Collections@System@@$$FU$AAMHXZ
	brtrue.s	$LN11@Write
; Line 366
	ldstr		$StringLiteralTok$??_C@_1BM@FNNMDIML@a?$APTs0?G0?$PM0?$LP0L?$FLXW?$CI0W0?$HO0?$FL0?$JD0?$AC?$AA?$AA@
	newobj		??0WDDatasException@WDDatas@@$$FQ$AAM@P$AAVString@System@@@Z
	stloc.s		6		; tmpWDDataException$12207
; Line 367
	ldloc.s		6		; tmpWDDataException$12207
	ldc.i4		10204		; i32 0x27dc
	stfld		?ErrorCode@WDDatasException@WDDatas@@3HA
; Line 368
	ldloc.s		6		; tmpWDDataException$12207
	ldc.i.1		1		; i32 0x1
	stfld		?ErrorCode2@WDDatasException@WDDatas@@3HA
; Line 369
	ldloc.s		6		; tmpWDDataException$12207
	throw.u2	
$LN11@Write:
; Line 372
	ldarg.1				; inIdx$
	ldc.i.0		0		; i32 0x0
	blt		$LN9@Write
	ldarg.1				; inIdx$
	ldarg.0				; this$
	ldfld		?MeanGroup@WDMean@WDDatas@@3P$AAV?$List@P$AAUWDMeanGroup@WDDatas@@@Generic@Collections@System@@$AA
	callvirt	?get@Count@?$List@P$AAUWDMeanGroup@WDDatas@@@Generic@Collections@System@@$$FU$AAMHXZ
	bge		$LN9@Write
; Line 382
	ldarg.0				; this$
	ldfld		?MeanGroup@WDMean@WDDatas@@3P$AAV?$List@P$AAUWDMeanGroup@WDDatas@@@Generic@Collections@System@@$AA
	ldarg.1				; inIdx$
	callvirt	?get@default@?$List@P$AAUWDMeanGroup@WDDatas@@@Generic@Collections@System@@$$FU$AAMP$AAUWDMeanGroup@WDDatas@@H@Z
	ldfld		?DataRec@WDMeanGroup@WDDatas@@3P$AAVDataRecord@FJIsam@@$AA
	brfalse		$LN23@Write
$LN31@Write:
; Line 390
	ldarg.0				; this$
	ldfld		?MeanGroup@WDMean@WDDatas@@3P$AAV?$List@P$AAUWDMeanGroup@WDDatas@@@Generic@Collections@System@@$AA
	ldarg.1				; inIdx$
	callvirt	?get@default@?$List@P$AAUWDMeanGroup@WDDatas@@@Generic@Collections@System@@$$FU$AAMP$AAUWDMeanGroup@WDDatas@@H@Z
	ldfld		?DataRec@WDMeanGroup@WDDatas@@3P$AAVDataRecord@FJIsam@@$AA
	call		?getParentFile@DataRecord@FJIsam@@$$FQ$AAMP$AAVObject@System@@XZ
	castClass	$TypeTok$11280448$
	stloc.1				; tmpParent$
; Line 391
	ldloc.1				; tmpParent$
	brtrue.s	$LN6@Write
; Line 393
	leave		$LN23@Write
$LN6@Write:
	leave.s		$LN14@Write
__catch$?Write@WDMean@WDDatas@@$$FQ$AAMXH@Z$0:
; Line 395
	imp.push	
	stloc.s		8		; exp$12382
; Line 397
	ldstr		$StringLiteralTok$??_C@_1BO@OEMADJDL@?$AAI?$AAS?$AAA?$AAM0?U0?$KB0?$KE0?k0LN?$ANkc0g0Y0?$AC?$AA?$AA@
	ldloc.s		8		; exp$12382
	newobj		??0WDDatasException@WDDatas@@$$FQ$AAM@P$AAVString@System@@P$AAVException@3@@Z
	stloc.s		5		; tmpWDDataException$12383
; Line 398
	ldloc.s		5		; tmpWDDataException$12383
	ldc.i4		10204		; i32 0x27dc
	stfld		?ErrorCode@WDDatasException@WDDatas@@3HA
; Line 399
	ldloc.s		5		; tmpWDDataException$12383
	ldc.i.3		3		; i32 0x3
	stfld		?ErrorCode2@WDDatasException@WDDatas@@3HA
; Line 400
	ldloc.s		5		; tmpWDDataException$12383
	throw.u2	
$LN21@Write:
	leave.s		$LN14@Write
$LN14@Write:
	nop		
$LN32@Write:
; Line 406
	ldarg.0				; this$
	ldarg.1				; inIdx$
	call		?getRecord@WDMean@WDDatas@@$$FQ$AAMP$AAVDataRecord@FJIsam@@H@Z
	stloc.0				; tmpRec$
; Line 407
	ldloc.0				; tmpRec$
	call		?getRecStat@DataRecord@FJIsam@@$$FQ$AAM?AW4DataRecStat_EN@2@XZ
	brtrue.s	$LN4@Write
; Line 409
	ldloc.1				; tmpParent$
	ldloc.0				; tmpRec$
	call		?AddRecord@FIsam@FJIsam@@$$FQ$AAMXP$AAVDataRecord@2@@Z
	br.s		$LN1@Write
$LN4@Write:
; Line 410
	ldloc.0				; tmpRec$
	call		?getRecStat@DataRecord@FJIsam@@$$FQ$AAM?AW4DataRecStat_EN@2@XZ
	ldc.i.1		1		; i32 0x1
	bne.un.s	$LN2@Write
; Line 411
	ldloc.1				; tmpParent$
	ldloc.0				; tmpRec$
	call		?UpdateRecord@FIsam@FJIsam@@$$FQ$AAMXP$AAVDataRecord@2@@Z
$LN1@Write:
; Line 417
	leave.s		$LN23@Write
$LN2@Write:
; Line 414
	ldstr		$StringLiteralTok$??_C@_1BM@GMPFHKDE@0?l0?$LD0?$PM0?If?x?$IP?$LM0o0g0M0?$HO0?$FL0?$JD0?$AC?$AA?$AA@
	newobj		??0WDDatasException@WDDatas@@$$FQ$AAM@P$AAVString@System@@@Z
	stloc.s		4		; tmpWDDataException$12391
; Line 415
	ldloc.s		4		; tmpWDDataException$12391
	ldc.i4		10204		; i32 0x27dc
	stfld		?ErrorCode@WDDatasException@WDDatas@@3HA
; Line 416
	ldloc.s		4		; tmpWDDataException$12391
	ldc.i.4		4		; i32 0x4
	stfld		?ErrorCode2@WDDatasException@WDDatas@@3HA
; Line 417
	ldloc.s		4		; tmpWDDataException$12391
	throw.u2	
$LN22@Write:
; Line 419
	leave.s		$LN23@Write
__catch$?Write@WDMean@WDDatas@@$$FQ$AAMXH@Z$2:
	imp.push	
	stloc.s		7		; exp$12394
; Line 421
	ldstr		$StringLiteralTok$??_C@_1CG@PFOLFNFI@0?G0?$PM0?$LP0?l0?$LD0?$PM0?I0nf?x?$IP?$LM0kY1eW0W0?$HO0W0_0?$AC?$AA?$AA@
	ldloc.s		7		; exp$12394
	newobj		??0WDDatasException@WDDatas@@$$FQ$AAM@P$AAVString@System@@P$AAVException@3@@Z
	stloc.3				; tmpWDDataException$12395
; Line 422
	ldloc.3				; tmpWDDataException$12395
	ldc.i4		10204		; i32 0x27dc
	stfld		?ErrorCode@WDDatasException@WDDatas@@3HA
; Line 423
	ldloc.3				; tmpWDDataException$12395
	ldc.i.5		5		; i32 0x5
	stfld		?ErrorCode2@WDDatasException@WDDatas@@3HA
; Line 424
	ldloc.3				; tmpWDDataException$12395
	throw.u2	
$LN25@Write:
	leave.s		$LN23@Write
$LN9@Write:
; Line 375
	ldstr		$StringLiteralTok$??_C@_1CA@KIOCOIAC@0?$KE0?s0?G0?C0?$KP0?$LJ0nc?$AH?$FL?$JK0LN?$ANkc0g0Y0?$AC?$AA?$AA@
	newobj		??0WDDatasException@WDDatas@@$$FQ$AAM@P$AAVString@System@@@Z
	stloc.2				; tmpWDDataException$12211
; Line 376
	ldloc.2				; tmpWDDataException$12211
	ldc.i4		10204		; i32 0x27dc
	stfld		?ErrorCode@WDDatasException@WDDatas@@3HA
; Line 377
	ldloc.2				; tmpWDDataException$12211
	ldc.i.2		2		; i32 0x2
	stfld		?ErrorCode2@WDDatasException@WDDatas@@3HA
; Line 378
	ldloc.2				; tmpWDDataException$12211
	throw.u2	
$LN23@Write:
$LN30@Write:
; Line 426
	ret		
 .end ?Write@WDMean@WDDatas@@$$FQ$AAMXH@Z		; WDDatas::WDMean::Write
;	.proc.end.void
; Function compile flags: /Ogtp
	.text
	.comdat	noduplicate, ?DataLength@WDMean@WDDatas@@$$FQ$AAMHH@Z
.global	?DataLength@WDMean@WDDatas@@$$FQ$AAMHH@Z	; WDDatas::WDMean::DataLength
?DataLength@WDMean@WDDatas@@$$FQ$AAMHH@Z:		; WDDatas::WDMean::DataLength
;	.proc.def	D:I(I)

; Function Header:
; max stack depth = 2
; function size = 65 bytes
; local varsig tk = 0x0 
; Exception Information:
; 0 handlers, each consisting of filtered handlers

;	.formal.i4 1,"inIdx$" SIG: i4
;	.formal.mptr 0,"this$" SIG: Optional C Binding Modifier(token:0x4B7DF9).class (token:0x4B7DFB)

;	.proc.beg
; Line 523
	ldarg.0				; this$
	ldfld		?MeanGroup@WDMean@WDDatas@@3P$AAV?$List@P$AAUWDMeanGroup@WDDatas@@@Generic@Collections@System@@$AA
	callvirt	?get@Count@?$List@P$AAUWDMeanGroup@WDDatas@@@Generic@Collections@System@@$$FU$AAMHXZ
	brtrue.s	$LN5@DataLength
; Line 525
	ldc.i.0		0		; i32 0x0
	ret		
$LN5@DataLength:
; Line 527
	ldarg.1				; inIdx$
	ldc.i.0		0		; i32 0x0
	blt.s		$LN3@DataLength
	ldarg.0				; this$
	ldfld		?MeanGroup@WDMean@WDDatas@@3P$AAV?$List@P$AAUWDMeanGroup@WDDatas@@@Generic@Collections@System@@$AA
	callvirt	?get@Count@?$List@P$AAUWDMeanGroup@WDDatas@@@Generic@Collections@System@@$$FU$AAMHXZ
	ldarg.1				; inIdx$
	blt.s		$LN3@DataLength
; Line 532
	ldarg.0				; this$
	ldfld		?MeanGroup@WDMean@WDDatas@@3P$AAV?$List@P$AAUWDMeanGroup@WDDatas@@@Generic@Collections@System@@$AA
	ldarg.1				; inIdx$
	callvirt	?get@default@?$List@P$AAUWDMeanGroup@WDDatas@@@Generic@Collections@System@@$$FU$AAMP$AAUWDMeanGroup@WDDatas@@H@Z
	ldfld		?MeanFlg@WDMeanGroup@WDDatas@@3HA
	ldc.i.0		0		; i32 0x0
	beq.s		$LN8@DataLength
	ldc.i4.s	20		; i32 0x14
	br.s		$LN9@DataLength
$LN8@DataLength:
	ldc.i4		1000		; i32 0x3e8
$LN9@DataLength:
	ret		
$LN3@DataLength:
; Line 529
	ldc.i.0		0		; i32 0x0
	ret		
 .end ?DataLength@WDMean@WDDatas@@$$FQ$AAMHH@Z		; WDDatas::WDMean::DataLength
;	.proc.end.i4
; Function compile flags: /Ogtp
	.text
	.comdat	noduplicate, ?RecLength@WDMean@WDDatas@@$$FQ$AAMHH@Z
.global	?RecLength@WDMean@WDDatas@@$$FQ$AAMHH@Z		; WDDatas::WDMean::RecLength
?RecLength@WDMean@WDDatas@@$$FQ$AAMHH@Z:		; WDDatas::WDMean::RecLength
;	.proc.def	D:I(I)

; Function Header:
; max stack depth = 2
; function size = 75 bytes
; local varsig tk = 0x0 
; Exception Information:
; 0 handlers, each consisting of filtered handlers

;	.formal.i4 1,"inIdx$" SIG: i4
;	.formal.mptr 0,"this$" SIG: Optional C Binding Modifier(token:0x4B7DF9).class (token:0x4B7DFB)

;	.proc.beg
; Line 548
	ldarg.0				; this$
	ldfld		?MeanGroup@WDMean@WDDatas@@3P$AAV?$List@P$AAUWDMeanGroup@WDDatas@@@Generic@Collections@System@@$AA
	callvirt	?get@Count@?$List@P$AAUWDMeanGroup@WDDatas@@@Generic@Collections@System@@$$FU$AAMHXZ
	brtrue.s	$LN5@RecLength
; Line 550
	ldc.i.0		0		; i32 0x0
	ret		
$LN5@RecLength:
; Line 552
	ldarg.1				; inIdx$
	ldc.i.0		0		; i32 0x0
	blt.s		$LN3@RecLength
	ldarg.0				; this$
	ldfld		?MeanGroup@WDMean@WDDatas@@3P$AAV?$List@P$AAUWDMeanGroup@WDDatas@@@Generic@Collections@System@@$AA
	callvirt	?get@Count@?$List@P$AAUWDMeanGroup@WDDatas@@@Generic@Collections@System@@$$FU$AAMHXZ
	ldarg.1				; inIdx$
	blt.s		$LN3@RecLength
; Line 557
	ldarg.0				; this$
	ldfld		?MeanGroup@WDMean@WDDatas@@3P$AAV?$List@P$AAUWDMeanGroup@WDDatas@@@Generic@Collections@System@@$AA
	ldarg.1				; inIdx$
	callvirt	?get@default@?$List@P$AAUWDMeanGroup@WDDatas@@@Generic@Collections@System@@$$FU$AAMP$AAUWDMeanGroup@WDDatas@@H@Z
	ldfld		?MeanFlg@WDMeanGroup@WDDatas@@3HA
	brtrue.s	$LN2@RecLength
; Line 559
	call		?getHeaderLength@DataRecord@FJIsam@@$$FSMHXZ
	ldc.i4		1000		; i32 0x3e8
	add		
	ret		
$LN2@RecLength:
; Line 561
	call		?getHeaderLength@DataRecord@FJIsam@@$$FSMHXZ
	ldc.i4.s	20		; i32 0x14
	add		
	ret		
$LN3@RecLength:
; Line 554
	ldc.i.0		0		; i32 0x0
	ret		
 .end ?RecLength@WDMean@WDDatas@@$$FQ$AAMHH@Z		; WDDatas::WDMean::RecLength
;	.proc.end.i4
; Function compile flags: /Ogtp
	.text
	.comdat	noduplicate, ?getWordID@WDMean@WDDatas@@$$FQ$AAMHXZ
.global	?getWordID@WDMean@WDDatas@@$$FQ$AAMHXZ		; WDDatas::WDMean::getWordID
?getWordID@WDMean@WDDatas@@$$FQ$AAMHXZ:			; WDDatas::WDMean::getWordID
;	.proc.def	D:I()

; Function Header:
; max stack depth = 1
; function size = 7 bytes
; local varsig tk = 0x0 
; Exception Information:
; 0 handlers, each consisting of filtered handlers

;	.formal.mptr 0,"this$" SIG: Optional C Binding Modifier(token:0x4B7DF9).class (token:0x4B7DFB)

;	.proc.beg
; Line 571
	ldarg.0				; this$
	ldfld		?WordID@WDMean@WDDatas@@3HA
	ret		
 .end ?getWordID@WDMean@WDDatas@@$$FQ$AAMHXZ		; WDDatas::WDMean::getWordID
;	.proc.end.i4
; Function compile flags: /Ogtp
	.text
	.comdat	noduplicate, ?getMeanNo@WDMean@WDDatas@@$$FQ$AAMHXZ
.global	?getMeanNo@WDMean@WDDatas@@$$FQ$AAMHXZ		; WDDatas::WDMean::getMeanNo
?getMeanNo@WDMean@WDDatas@@$$FQ$AAMHXZ:			; WDDatas::WDMean::getMeanNo
;	.proc.def	D:I()

; Function Header:
; max stack depth = 1
; function size = 7 bytes
; local varsig tk = 0x0 
; Exception Information:
; 0 handlers, each consisting of filtered handlers

;	.formal.mptr 0,"this$" SIG: Optional C Binding Modifier(token:0x4B7DF9).class (token:0x4B7DFB)

;	.proc.beg
; Line 577
	ldarg.0				; this$
	ldfld		?MeanNo@WDMean@WDDatas@@3HA
	ret		
 .end ?getMeanNo@WDMean@WDDatas@@$$FQ$AAMHXZ		; WDDatas::WDMean::getMeanNo
;	.proc.end.i4
	.bss
.local	$T13210,0
.local	$StringLiteralTok$??_C@_1CE@JLDEEGBG@R?$AG?$JI?$FOS?V_?$JHfB0k0?$KI0?i0?$PM0Lvzu?$BP0W0?$HO0W0_0?$AC?$AA?$AA@,4
; Function compile flags: /Ogtp
	.text
	.comdat	noduplicate, ?getGroup@WDMean@WDDatas@@$$FQ$AAMP$AAUWDMeanGroup@2@H@Z
.global	?getGroup@WDMean@WDDatas@@$$FQ$AAMP$AAUWDMeanGroup@2@H@Z ; WDDatas::WDMean::getGroup
?getGroup@WDMean@WDDatas@@$$FQ$AAMP$AAUWDMeanGroup@2@H@Z: ; WDDatas::WDMean::getGroup
;	.proc.def	D:P(I)

; Function Header:
; max stack depth = 5
; function size = 229 bytes
; local varsig tk = 0x11000014 
; Exception Information:
; 1 handlers, each consisting of filtered handlers

;	.formal.i4 1,"inIdx$" SIG: i4
;	.formal.mptr 0,"this$" SIG: Optional C Binding Modifier(token:0x4B7DF9).class (token:0x4B7DFB)
;	.local.mptr 2,"tmpWDDataException$12478" SIG: class (token:0x4A97C5)
;	.local.mptr 3,"tmpWDDataException$12487" SIG: class (token:0x4A97C5)
;	.local.mptr 6,"exp$12486" SIG: class (token:0x4A9739)
;	.local.i4 4,"$T13207" SIG: szarray (token:0x4F6241)
;	.local.i4 5,"$T13206" SIG: szarray (token:0x4EE9F9)
;	.local.mptr 1,"tmpGroup$" SIG: class (token:0x4A92F5)
;	.local.mptr 0,"rtGroup$" SIG: class (token:0x4A92F5)

;	.proc.beg
; Line 582
	ldnull		0		; i32 0x0
	stloc.0				; rtGroup$
; Line 587
	ldarg.0				; this$
	ldfld		?MeanGroup@WDMean@WDDatas@@3P$AAV?$List@P$AAUWDMeanGroup@WDDatas@@@Generic@Collections@System@@$AA
	callvirt	?get@Count@?$List@P$AAUWDMeanGroup@WDDatas@@@Generic@Collections@System@@$$FU$AAMHXZ
	brtrue.s	$LN4@getGroup
; Line 589
	ldnull		0		; i32 0x0
	ret		
$LN4@getGroup:
; Line 593
	ldarg.1				; inIdx$
	ldc.i.0		0		; i32 0x0
	blt		$LN2@getGroup
	ldarg.1				; inIdx$
	ldarg.0				; this$
	ldfld		?MeanGroup@WDMean@WDDatas@@3P$AAV?$List@P$AAUWDMeanGroup@WDDatas@@@Generic@Collections@System@@$AA
	callvirt	?get@Count@?$List@P$AAUWDMeanGroup@WDDatas@@@Generic@Collections@System@@$$FU$AAMHXZ
	bge		$LN2@getGroup
$LN16@getGroup:
; Line 604
	ldarg.0				; this$
	ldfld		?MeanGroup@WDMean@WDDatas@@3P$AAV?$List@P$AAUWDMeanGroup@WDDatas@@@Generic@Collections@System@@$AA
	ldarg.1				; inIdx$
	callvirt	?get@default@?$List@P$AAUWDMeanGroup@WDDatas@@@Generic@Collections@System@@$$FU$AAMP$AAUWDMeanGroup@WDDatas@@H@Z
	stloc.1				; tmpGroup$
; Line 606
	newobj		??0WDMeanGroup@WDDatas@@$$FQ$AAM@XZ
	stloc.0				; rtGroup$
; Line 607
	ldloc.0				; rtGroup$
	ldloc.1				; tmpGroup$
	ldfld		?MeanFlg@WDMeanGroup@WDDatas@@3HA
	stfld		?MeanFlg@WDMeanGroup@WDDatas@@3HA
; Line 608
	ldc.i.2		2		; i32 0x2
	newarr		$TypeTok$110DD6FC$
	stloc.s		5		; $T13206
	ldloc.0				; rtGroup$
	ldloc.s		5		; $T13206
	stfld		?GroupGt@WDMeanGroup@WDDatas@@3P$01AEA
; Line 609
	ldloc.1				; tmpGroup$
	ldfld		?GroupGt@WDMeanGroup@WDDatas@@3P$01AEA
	ldc.i.0		0		; i32 0x0
	ldloc.s		5		; $T13206
	ldc.i.0		0		; i32 0x0
	ldc.i.2		2		; i32 0x2
	call		?BlockCopy@Buffer@System@@$$FSMXP$AAVArray@2@H0HH@Z
; Line 610
	ldc.i.2		2		; i32 0x2
	newarr		$TypeTok$110DD6FC$
	stloc.s		4		; $T13207
	ldloc.0				; rtGroup$
	ldloc.s		4		; $T13207
	stfld		?GroupLt@WDMeanGroup@WDDatas@@3P$01AEA
; Line 611
	ldloc.1				; tmpGroup$
	ldfld		?GroupLt@WDMeanGroup@WDDatas@@3P$01AEA
	ldc.i.0		0		; i32 0x0
	ldloc.s		4		; $T13207
	ldc.i.0		0		; i32 0x0
	ldc.i.2		2		; i32 0x2
	call		?BlockCopy@Buffer@System@@$$FSMXP$AAVArray@2@H0HH@Z
; Line 612
	ldloc.0				; rtGroup$
	ldloc.1				; tmpGroup$
	ldfld		?GroupRank@WDMeanGroup@WDDatas@@3HA
	stfld		?GroupRank@WDMeanGroup@WDDatas@@3HA
; Line 613
	ldloc.0				; rtGroup$
	ldnull		0		; i32 0x0
	stfld		?DataRec@WDMeanGroup@WDDatas@@3P$AAVDataRecord@FJIsam@@$AA
	leave.s		$LN7@getGroup
__catch$?getGroup@WDMean@WDDatas@@$$FQ$AAMP$AAUWDMeanGroup@2@H@Z$0:
; Line 615
	imp.push	
	stloc.s		6		; exp$12486
; Line 617
	ldstr		$StringLiteralTok$??_C@_1CE@JLDEEGBG@R?$AG?$JI?$FOS?V_?$JHfB0k0?$KI0?i0?$PM0Lvzu?$BP0W0?$HO0W0_0?$AC?$AA?$AA@
	ldloc.s		6		; exp$12486
	newobj		??0WDDatasException@WDDatas@@$$FQ$AAM@P$AAVString@System@@P$AAVException@3@@Z
	stloc.3				; tmpWDDataException$12487
; Line 618
	ldloc.3				; tmpWDDataException$12487
	ldc.i4		10211		; i32 0x27e3
	stfld		?ErrorCode@WDDatasException@WDDatas@@3HA
; Line 619
	ldloc.3				; tmpWDDataException$12487
	ldc.i.2		2		; i32 0x2
	stfld		?ErrorCode2@WDDatasException@WDDatas@@3HA
; Line 620
	ldloc.3				; tmpWDDataException$12487
	throw.u2	
$LN12@getGroup:
	leave.s		$LN7@getGroup
$LN7@getGroup:
; Line 622
	ldloc.0				; rtGroup$
	ret		
$LN2@getGroup:
; Line 596
	ldstr		$StringLiteralTok$??_C@_1CA@KIOCOIAC@0?$KE0?s0?G0?C0?$KP0?$LJ0nc?$AH?$FL?$JK0LN?$ANkc0g0Y0?$AC?$AA?$AA@
	newobj		??0WDDatasException@WDDatas@@$$FQ$AAM@P$AAVString@System@@@Z
	stloc.2				; tmpWDDataException$12478
; Line 597
	ldloc.2				; tmpWDDataException$12478
	ldc.i4		10211		; i32 0x27e3
	stfld		?ErrorCode@WDDatasException@WDDatas@@3HA
; Line 598
	ldloc.2				; tmpWDDataException$12478
	ldc.i.1		1		; i32 0x1
	stfld		?ErrorCode2@WDDatasException@WDDatas@@3HA
; Line 599
	ldloc.2				; tmpWDDataException$12478
	throw.u2	
$LN5@getGroup:
$LN15@getGroup:
; Line 623
	ldnull		
	ret		
 .end ?getGroup@WDMean@WDDatas@@$$FQ$AAMP$AAUWDMeanGroup@2@H@Z ; WDDatas::WDMean::getGroup
;	.proc.end.mptr
	.bss
.local	$T13228,0
.local	$StringLiteralTok$??_C@_1CK@ELJDLCIL@a?$APTs0?U0?i0?$LAS?V_?$JHfB0k0?$KI0?i0?$PM0Lvzu?$BP0W0?$HO0W0_0?$AC?$AA?$AA@,4
.local	$StringLiteralTok$??_C@_1BI@ENNMKLKE@R?$AG?$JI?$FO?$GA?EX10L0B0?$IK0?$HO0?$FL0?$JD0?$AC?$AA?$AA@,4
; Function compile flags: /Ogtp
	.text
	.comdat	noduplicate, ?getMeanFlg@WDMean@WDDatas@@$$FQ$AAMHH@Z
.global	?getMeanFlg@WDMean@WDDatas@@$$FQ$AAMHH@Z	; WDDatas::WDMean::getMeanFlg
?getMeanFlg@WDMean@WDDatas@@$$FQ$AAMHH@Z:		; WDDatas::WDMean::getMeanFlg
;	.proc.def	D:I(I)

; Function Header:
; max stack depth = 4
; function size = 154 bytes
; local varsig tk = 0x11000015 
; Exception Information:
; 1 handlers, each consisting of filtered handlers

;	.formal.i4 1,"inIdx$" SIG: i4
;	.formal.mptr 0,"this$" SIG: Optional C Binding Modifier(token:0x4B7DF9).class (token:0x4B7DFB)
;	.local.mptr 0,"tmpWDDataException$12500" SIG: class (token:0x4A97C5)
;	.local.mptr 1,"tmpWDDataException$12504" SIG: class (token:0x4A97C5)
;	.local.mptr 3,"exp$12503" SIG: class (token:0x4A9739)
;	.local.i4 4,"$T13226"
;	.local.mptr 2,"tmpWDDataException$12495" SIG: class (token:0x4A97C5)

;	.proc.beg
; Line 628
	ldarg.0				; this$
	ldfld		?MeanGroup@WDMean@WDDatas@@3P$AAV?$List@P$AAUWDMeanGroup@WDDatas@@@Generic@Collections@System@@$AA
	callvirt	?get@Count@?$List@P$AAUWDMeanGroup@WDDatas@@@Generic@Collections@System@@$$FU$AAMHXZ
	brtrue.s	$LN4@getMeanFlg
; Line 631
	ldstr		$StringLiteralTok$??_C@_1BI@ENNMKLKE@R?$AG?$JI?$FO?$GA?EX10L0B0?$IK0?$HO0?$FL0?$JD0?$AC?$AA?$AA@
	newobj		??0WDDatasException@WDDatas@@$$FQ$AAM@P$AAVString@System@@@Z
	stloc.2				; tmpWDDataException$12495
; Line 632
	ldloc.2				; tmpWDDataException$12495
	ldc.i4		10212		; i32 0x27e4
	stfld		?ErrorCode@WDDatasException@WDDatas@@3HA
; Line 633
	ldloc.2				; tmpWDDataException$12495
	ldc.i.1		1		; i32 0x1
	stfld		?ErrorCode2@WDDatasException@WDDatas@@3HA
; Line 634
	ldloc.2				; tmpWDDataException$12495
	throw.u2	
$LN4@getMeanFlg:
; Line 638
	ldarg.1				; inIdx$
	ldc.i.0		0		; i32 0x0
	blt.s		$LN2@getMeanFlg
	ldarg.1				; inIdx$
	ldarg.0				; this$
	ldfld		?MeanGroup@WDMean@WDDatas@@3P$AAV?$List@P$AAUWDMeanGroup@WDDatas@@@Generic@Collections@System@@$AA
	callvirt	?get@Count@?$List@P$AAUWDMeanGroup@WDDatas@@@Generic@Collections@System@@$$FU$AAMHXZ
	bge.s		$LN2@getMeanFlg
$LN16@getMeanFlg:
; Line 649
	ldarg.0				; this$
	ldfld		?MeanGroup@WDMean@WDDatas@@3P$AAV?$List@P$AAUWDMeanGroup@WDDatas@@@Generic@Collections@System@@$AA
	ldarg.1				; inIdx$
	callvirt	?get@default@?$List@P$AAUWDMeanGroup@WDDatas@@@Generic@Collections@System@@$$FU$AAMP$AAUWDMeanGroup@WDDatas@@H@Z
	ldfld		?MeanFlg@WDMeanGroup@WDDatas@@3HA
; Line 658
	stloc.s		4		; $T13226
	leave.s		$LN17@getMeanFlg
__catch$?getMeanFlg@WDMean@WDDatas@@$$FQ$AAMHH@Z$0:
; Line 651
	imp.push	
	stloc.3				; exp$12503
; Line 653
	ldstr		$StringLiteralTok$??_C@_1CK@ELJDLCIL@a?$APTs0?U0?i0?$LAS?V_?$JHfB0k0?$KI0?i0?$PM0Lvzu?$BP0W0?$HO0W0_0?$AC?$AA?$AA@
	ldloc.3				; exp$12503
	newobj		??0WDDatasException@WDDatas@@$$FQ$AAM@P$AAVString@System@@P$AAVException@3@@Z
	stloc.1				; tmpWDDataException$12504
; Line 654
	ldloc.1				; tmpWDDataException$12504
	ldc.i4		10212		; i32 0x27e4
	stfld		?ErrorCode@WDDatasException@WDDatas@@3HA
; Line 655
	ldloc.1				; tmpWDDataException$12504
	ldc.i.3		3		; i32 0x3
	stfld		?ErrorCode2@WDDatasException@WDDatas@@3HA
; Line 656
	ldloc.1				; tmpWDDataException$12504
	throw.u2	
$LN12@getMeanFlg:
	leave.s		$LN10@getMeanFlg
$LN2@getMeanFlg:
; Line 641
	ldstr		$StringLiteralTok$??_C@_1CA@KIOCOIAC@0?$KE0?s0?G0?C0?$KP0?$LJ0nc?$AH?$FL?$JK0LN?$ANkc0g0Y0?$AC?$AA?$AA@
	newobj		??0WDDatasException@WDDatas@@$$FQ$AAM@P$AAVString@System@@@Z
	stloc.0				; tmpWDDataException$12500
; Line 642
	ldloc.0				; tmpWDDataException$12500
	ldc.i4		10212		; i32 0x27e4
	stfld		?ErrorCode@WDDatasException@WDDatas@@3HA
; Line 643
	ldloc.0				; tmpWDDataException$12500
	ldc.i.2		2		; i32 0x2
	stfld		?ErrorCode2@WDDatasException@WDDatas@@3HA
; Line 644
	ldloc.0				; tmpWDDataException$12500
	throw.u2	
$LN10@getMeanFlg:
$LN15@getMeanFlg:
; Line 658
	ldc.i.0		0		; i32 0x0
	ret		
$LN17@getMeanFlg:
	ldloc.s		4		; $T13226
	ret		
 .end ?getMeanFlg@WDMean@WDDatas@@$$FQ$AAMHH@Z		; WDDatas::WDMean::getMeanFlg
;	.proc.end.i4
	.bss
.local	$T13244,0
.local	$StringLiteralTok$??_C@_1CA@PDKIJOOO@0?G0?$PM0?$LP0n0?$LD0?T0?$PM0kY1eW0W0?$HO0W0_0?$AC?$AA?$AA@,4
.local	$StringLiteralTok$??_C@_1CA@DCBKAEPK@0?$LD0?T0?$PMQH0?G0?$PM0?$LP?$JFw0Lw?m0Y0N0?$HO0Y0?$AC?$AA?$AA@,4
; Function compile flags: /Ogtp
	.text
	.comdat	noduplicate, ?getGroupGt@WDMean@WDDatas@@$$FQ$AAMP$01AEHP$01AE@Z
.global	?getGroupGt@WDMean@WDDatas@@$$FQ$AAMP$01AEHP$01AE@Z ; WDDatas::WDMean::getGroupGt
?getGroupGt@WDMean@WDDatas@@$$FQ$AAMP$01AEHP$01AE@Z:	; WDDatas::WDMean::getGroupGt
;	.proc.def	D:P(IP)

; Function Header:
; max stack depth = 5
; function size = 224 bytes
; local varsig tk = 0x11000016 
; Exception Information:
; 1 handlers, each consisting of filtered handlers

;	.formal.mptr 2,"inData$" SIG: szarray (token:0x4BA511)
;	.formal.i4 1,"inIdx$" SIG: i4
;	.formal.mptr 0,"this$" SIG: Optional C Binding Modifier(token:0x4B7DF9).class (token:0x4B7DFB)
;	.local.mptr 1,"tmpWDDataException$12521" SIG: class (token:0x4A97C5)
;	.local.mptr 2,"tmpWDDataException$12533" SIG: class (token:0x4A97C5)
;	.local.mptr 5,"exp$12532" SIG: class (token:0x4A9739)
;	.local.mptr 3,"tmpWDDataException$12526" SIG: class (token:0x4A97C5)
;	.local.mptr 4,"tmpWDDataException$12517" SIG: class (token:0x4A97C5)
;	.local.mptr 0,"rtData$" SIG: szarray (token:0x4BA511)

;	.proc.beg
; Line 662
	ldnull		0		; i32 0x0
	stloc.0				; rtData$
; Line 666
	ldarg.0				; this$
	ldfld		?MeanGroup@WDMean@WDDatas@@3P$AAV?$List@P$AAUWDMeanGroup@WDDatas@@@Generic@Collections@System@@$AA
	callvirt	?get@Count@?$List@P$AAUWDMeanGroup@WDDatas@@@Generic@Collections@System@@$$FU$AAMHXZ
	brtrue.s	$LN7@getGroupGt
; Line 669
	ldstr		$StringLiteralTok$??_C@_1BI@ENNMKLKE@R?$AG?$JI?$FO?$GA?EX10L0B0?$IK0?$HO0?$FL0?$JD0?$AC?$AA?$AA@
	newobj		??0WDDatasException@WDDatas@@$$FQ$AAM@P$AAVString@System@@@Z
	stloc.s		4		; tmpWDDataException$12517
; Line 670
	ldloc.s		4		; tmpWDDataException$12517
	ldc.i4		10206		; i32 0x27de
	stfld		?ErrorCode@WDDatasException@WDDatas@@3HA
; Line 671
	ldloc.s		4		; tmpWDDataException$12517
	ldc.i.1		1		; i32 0x1
	stfld		?ErrorCode2@WDDatasException@WDDatas@@3HA
; Line 672
	ldloc.s		4		; tmpWDDataException$12517
	throw.u2	
$LN7@getGroupGt:
; Line 676
	ldarg.1				; inIdx$
	ldc.i.0		0		; i32 0x0
	blt		$LN5@getGroupGt
	ldarg.1				; inIdx$
	ldarg.0				; this$
	ldfld		?MeanGroup@WDMean@WDDatas@@3P$AAV?$List@P$AAUWDMeanGroup@WDDatas@@@Generic@Collections@System@@$AA
	callvirt	?get@Count@?$List@P$AAUWDMeanGroup@WDDatas@@@Generic@Collections@System@@$$FU$AAMHXZ
	bge		$LN5@getGroupGt
$LN19@getGroupGt:
; Line 688
	ldarg.2				; inData$
	brfalse.s	$LN3@getGroupGt
; Line 690
	ldarg.2				; inData$
	ldlen		
	ldc.i.2		2		; i32 0x2
	bge.s		$LN2@getGroupGt
; Line 693
	ldstr		$StringLiteralTok$??_C@_1CA@DCBKAEPK@0?$LD0?T0?$PMQH0?G0?$PM0?$LP?$JFw0Lw?m0Y0N0?$HO0Y0?$AC?$AA?$AA@
	newobj		??0WDDatasException@WDDatas@@$$FQ$AAM@P$AAVString@System@@@Z
	stloc.3				; tmpWDDataException$12526
; Line 694
	ldloc.3				; tmpWDDataException$12526
	ldc.i4		10206		; i32 0x27de
	stfld		?ErrorCode@WDDatasException@WDDatas@@3HA
; Line 695
	ldloc.3				; tmpWDDataException$12526
	ldc.i.3		3		; i32 0x3
	stfld		?ErrorCode2@WDDatasException@WDDatas@@3HA
; Line 696
	ldloc.3				; tmpWDDataException$12526
	throw.u2	
$LN2@getGroupGt:
; Line 698
	ldarg.2				; inData$
	stloc.0				; rtData$
; Line 699
	br.s		$LN1@getGroupGt
$LN3@getGroupGt:
; Line 701
	ldc.i.2		2		; i32 0x2
	newarr		$TypeTok$110DD6FC$
	stloc.0				; rtData$
$LN1@getGroupGt:
; Line 705
	ldarg.0				; this$
	ldfld		?MeanGroup@WDMean@WDDatas@@3P$AAV?$List@P$AAUWDMeanGroup@WDDatas@@@Generic@Collections@System@@$AA
	ldarg.1				; inIdx$
	callvirt	?get@default@?$List@P$AAUWDMeanGroup@WDDatas@@@Generic@Collections@System@@$$FU$AAMP$AAUWDMeanGroup@WDDatas@@H@Z
	ldfld		?GroupGt@WDMeanGroup@WDDatas@@3P$01AEA
	ldc.i.0		0		; i32 0x0
	ldloc.0				; rtData$
	ldc.i.0		0		; i32 0x0
	ldc.i.2		2		; i32 0x2
	call		?BlockCopy@Buffer@System@@$$FSMXP$AAVArray@2@H0HH@Z
	leave.s		$LN10@getGroupGt
__catch$?getGroupGt@WDMean@WDDatas@@$$FQ$AAMP$01AEHP$01AE@Z$0:
; Line 707
	imp.push	
	stloc.s		5		; exp$12532
; Line 709
	ldstr		$StringLiteralTok$??_C@_1CA@PDKIJOOO@0?G0?$PM0?$LP0n0?$LD0?T0?$PM0kY1eW0W0?$HO0W0_0?$AC?$AA?$AA@
	ldloc.s		5		; exp$12532
	newobj		??0WDDatasException@WDDatas@@$$FQ$AAM@P$AAVString@System@@P$AAVException@3@@Z
	stloc.2				; tmpWDDataException$12533
; Line 710
	ldloc.2				; tmpWDDataException$12533
	ldc.i4		10206		; i32 0x27de
	stfld		?ErrorCode@WDDatasException@WDDatas@@3HA
; Line 711
	ldloc.2				; tmpWDDataException$12533
	ldc.i.4		4		; i32 0x4
	stfld		?ErrorCode2@WDDatasException@WDDatas@@3HA
; Line 712
	ldloc.2				; tmpWDDataException$12533
	throw.u2	
$LN15@getGroupGt:
	leave.s		$LN10@getGroupGt
$LN10@getGroupGt:
; Line 716
	ldloc.0				; rtData$
	ret		
$LN5@getGroupGt:
; Line 679
	ldstr		$StringLiteralTok$??_C@_1CA@KIOCOIAC@0?$KE0?s0?G0?C0?$KP0?$LJ0nc?$AH?$FL?$JK0LN?$ANkc0g0Y0?$AC?$AA?$AA@
	newobj		??0WDDatasException@WDDatas@@$$FQ$AAM@P$AAVString@System@@@Z
	stloc.1				; tmpWDDataException$12521
; Line 680
	ldloc.1				; tmpWDDataException$12521
	ldc.i4		10206		; i32 0x27de
	stfld		?ErrorCode@WDDatasException@WDDatas@@3HA
; Line 681
	ldloc.1				; tmpWDDataException$12521
	ldc.i.2		2		; i32 0x2
	stfld		?ErrorCode2@WDDatasException@WDDatas@@3HA
; Line 682
	ldloc.1				; tmpWDDataException$12521
	throw.u2	
$LN8@getGroupGt:
$LN18@getGroupGt:
; Line 718
	ldnull		
	ret		
 .end ?getGroupGt@WDMean@WDDatas@@$$FQ$AAMP$01AEHP$01AE@Z ; WDDatas::WDMean::getGroupGt
;	.proc.end.mptr
	.bss
.local	$T13260,0
; Function compile flags: /Ogtp
	.text
	.comdat	noduplicate, ?getGroupLt@WDMean@WDDatas@@$$FQ$AAMP$01AEHP$01AE@Z
.global	?getGroupLt@WDMean@WDDatas@@$$FQ$AAMP$01AEHP$01AE@Z ; WDDatas::WDMean::getGroupLt
?getGroupLt@WDMean@WDDatas@@$$FQ$AAMP$01AEHP$01AE@Z:	; WDDatas::WDMean::getGroupLt
;	.proc.def	D:P(IP)

; Function Header:
; max stack depth = 5
; function size = 224 bytes
; local varsig tk = 0x11000016 
; Exception Information:
; 1 handlers, each consisting of filtered handlers

;	.formal.mptr 2,"inData$" SIG: szarray (token:0x4BA511)
;	.formal.i4 1,"inIdx$" SIG: i4
;	.formal.mptr 0,"this$" SIG: Optional C Binding Modifier(token:0x4B7DF9).class (token:0x4B7DFB)
;	.local.mptr 1,"tmpWDDataException$12550" SIG: class (token:0x4A97C5)
;	.local.mptr 2,"tmpWDDataException$12561" SIG: class (token:0x4A97C5)
;	.local.mptr 5,"exp$12560" SIG: class (token:0x4A9739)
;	.local.mptr 3,"tmpWDDataException$12555" SIG: class (token:0x4A97C5)
;	.local.mptr 4,"tmpWDDataException$12546" SIG: class (token:0x4A97C5)
;	.local.mptr 0,"rtData$" SIG: szarray (token:0x4BA511)

;	.proc.beg
; Line 722
	ldnull		0		; i32 0x0
	stloc.0				; rtData$
; Line 726
	ldarg.0				; this$
	ldfld		?MeanGroup@WDMean@WDDatas@@3P$AAV?$List@P$AAUWDMeanGroup@WDDatas@@@Generic@Collections@System@@$AA
	callvirt	?get@Count@?$List@P$AAUWDMeanGroup@WDDatas@@@Generic@Collections@System@@$$FU$AAMHXZ
	brtrue.s	$LN7@getGroupLt
; Line 729
	ldstr		$StringLiteralTok$??_C@_1BI@ENNMKLKE@R?$AG?$JI?$FO?$GA?EX10L0B0?$IK0?$HO0?$FL0?$JD0?$AC?$AA?$AA@
	newobj		??0WDDatasException@WDDatas@@$$FQ$AAM@P$AAVString@System@@@Z
	stloc.s		4		; tmpWDDataException$12546
; Line 730
	ldloc.s		4		; tmpWDDataException$12546
	ldc.i4		10207		; i32 0x27df
	stfld		?ErrorCode@WDDatasException@WDDatas@@3HA
; Line 731
	ldloc.s		4		; tmpWDDataException$12546
	ldc.i.1		1		; i32 0x1
	stfld		?ErrorCode2@WDDatasException@WDDatas@@3HA
; Line 732
	ldloc.s		4		; tmpWDDataException$12546
	throw.u2	
$LN7@getGroupLt:
; Line 736
	ldarg.1				; inIdx$
	ldc.i.0		0		; i32 0x0
	blt		$LN5@getGroupLt
	ldarg.1				; inIdx$
	ldarg.0				; this$
	ldfld		?MeanGroup@WDMean@WDDatas@@3P$AAV?$List@P$AAUWDMeanGroup@WDDatas@@@Generic@Collections@System@@$AA
	callvirt	?get@Count@?$List@P$AAUWDMeanGroup@WDDatas@@@Generic@Collections@System@@$$FU$AAMHXZ
	bge		$LN5@getGroupLt
$LN19@getGroupLt:
; Line 748
	ldarg.2				; inData$
	brfalse.s	$LN3@getGroupLt
; Line 750
	ldarg.2				; inData$
	ldlen		
	ldc.i.2		2		; i32 0x2
	bge.s		$LN2@getGroupLt
; Line 753
	ldstr		$StringLiteralTok$??_C@_1CA@DCBKAEPK@0?$LD0?T0?$PMQH0?G0?$PM0?$LP?$JFw0Lw?m0Y0N0?$HO0Y0?$AC?$AA?$AA@
	newobj		??0WDDatasException@WDDatas@@$$FQ$AAM@P$AAVString@System@@@Z
	stloc.3				; tmpWDDataException$12555
; Line 754
	ldloc.3				; tmpWDDataException$12555
	ldc.i4		10207		; i32 0x27df
	stfld		?ErrorCode@WDDatasException@WDDatas@@3HA
; Line 755
	ldloc.3				; tmpWDDataException$12555
	ldc.i.3		3		; i32 0x3
	stfld		?ErrorCode2@WDDatasException@WDDatas@@3HA
; Line 756
	ldloc.3				; tmpWDDataException$12555
	throw.u2	
$LN2@getGroupLt:
; Line 758
	ldarg.2				; inData$
	stloc.0				; rtData$
; Line 759
	br.s		$LN1@getGroupLt
$LN3@getGroupLt:
; Line 760
	ldc.i.2		2		; i32 0x2
	newarr		$TypeTok$110DD6FC$
	stloc.0				; rtData$
$LN1@getGroupLt:
; Line 764
	ldarg.0				; this$
	ldfld		?MeanGroup@WDMean@WDDatas@@3P$AAV?$List@P$AAUWDMeanGroup@WDDatas@@@Generic@Collections@System@@$AA
	ldarg.1				; inIdx$
	callvirt	?get@default@?$List@P$AAUWDMeanGroup@WDDatas@@@Generic@Collections@System@@$$FU$AAMP$AAUWDMeanGroup@WDDatas@@H@Z
	ldfld		?GroupLt@WDMeanGroup@WDDatas@@3P$01AEA
	ldc.i.0		0		; i32 0x0
	ldloc.0				; rtData$
	ldc.i.0		0		; i32 0x0
	ldc.i.2		2		; i32 0x2
	call		?BlockCopy@Buffer@System@@$$FSMXP$AAVArray@2@H0HH@Z
	leave.s		$LN10@getGroupLt
__catch$?getGroupLt@WDMean@WDDatas@@$$FQ$AAMP$01AEHP$01AE@Z$0:
; Line 766
	imp.push	
	stloc.s		5		; exp$12560
; Line 768
	ldstr		$StringLiteralTok$??_C@_1CA@PDKIJOOO@0?G0?$PM0?$LP0n0?$LD0?T0?$PM0kY1eW0W0?$HO0W0_0?$AC?$AA?$AA@
	ldloc.s		5		; exp$12560
	newobj		??0WDDatasException@WDDatas@@$$FQ$AAM@P$AAVString@System@@P$AAVException@3@@Z
	stloc.2				; tmpWDDataException$12561
; Line 769
	ldloc.2				; tmpWDDataException$12561
	ldc.i4		10207		; i32 0x27df
	stfld		?ErrorCode@WDDatasException@WDDatas@@3HA
; Line 770
	ldloc.2				; tmpWDDataException$12561
	ldc.i.3		3		; i32 0x3
	stfld		?ErrorCode2@WDDatasException@WDDatas@@3HA
; Line 771
	ldloc.2				; tmpWDDataException$12561
	throw.u2	
$LN15@getGroupLt:
	leave.s		$LN10@getGroupLt
$LN10@getGroupLt:
; Line 775
	ldloc.0				; rtData$
	ret		
$LN5@getGroupLt:
; Line 739
	ldstr		$StringLiteralTok$??_C@_1CA@KIOCOIAC@0?$KE0?s0?G0?C0?$KP0?$LJ0nc?$AH?$FL?$JK0LN?$ANkc0g0Y0?$AC?$AA?$AA@
	newobj		??0WDDatasException@WDDatas@@$$FQ$AAM@P$AAVString@System@@@Z
	stloc.1				; tmpWDDataException$12550
; Line 740
	ldloc.1				; tmpWDDataException$12550
	ldc.i4		10207		; i32 0x27df
	stfld		?ErrorCode@WDDatasException@WDDatas@@3HA
; Line 741
	ldloc.1				; tmpWDDataException$12550
	ldc.i.2		2		; i32 0x2
	stfld		?ErrorCode2@WDDatasException@WDDatas@@3HA
; Line 742
	ldloc.1				; tmpWDDataException$12550
	throw.u2	
$LN8@getGroupLt:
$LN18@getGroupLt:
; Line 776
	ldnull		
	ret		
 .end ?getGroupLt@WDMean@WDDatas@@$$FQ$AAMP$01AEHP$01AE@Z ; WDDatas::WDMean::getGroupLt
;	.proc.end.mptr
	.bss
.local	$T13278,0
.local	$StringLiteralTok$??_C@_1CM@NGLFBLKH@R?$AG?$JI?$FO0?i0?s0?$KP0nS?V_?$JHfB0k0?$KI0?i0?$PM0Lvzu?$BP0W0?$HO0W0_0?$AC?$AA?$AA@,4
; Function compile flags: /Ogtp
	.text
	.comdat	noduplicate, ?getGroupRank@WDMean@WDDatas@@$$FQ$AAMHH@Z
.global	?getGroupRank@WDMean@WDDatas@@$$FQ$AAMHH@Z	; WDDatas::WDMean::getGroupRank
?getGroupRank@WDMean@WDDatas@@$$FQ$AAMHH@Z:		; WDDatas::WDMean::getGroupRank
;	.proc.def	D:I(I)

; Function Header:
; max stack depth = 4
; function size = 154 bytes
; local varsig tk = 0x11000015 
; Exception Information:
; 1 handlers, each consisting of filtered handlers

;	.formal.i4 1,"inIdx$" SIG: i4
;	.formal.mptr 0,"this$" SIG: Optional C Binding Modifier(token:0x4B7DF9).class (token:0x4B7DFB)
;	.local.mptr 0,"tmpWDDataException$12572" SIG: class (token:0x4A97C5)
;	.local.mptr 1,"tmpWDDataException$12576" SIG: class (token:0x4A97C5)
;	.local.mptr 3,"exp$12575" SIG: class (token:0x4A9739)
;	.local.i4 4,"$T13276"
;	.local.mptr 2,"tmpWDDataException$12568" SIG: class (token:0x4A97C5)

;	.proc.beg
; Line 782
	ldarg.0				; this$
	ldfld		?MeanGroup@WDMean@WDDatas@@3P$AAV?$List@P$AAUWDMeanGroup@WDDatas@@@Generic@Collections@System@@$AA
	callvirt	?get@Count@?$List@P$AAUWDMeanGroup@WDDatas@@@Generic@Collections@System@@$$FU$AAMHXZ
	brtrue.s	$LN4@getGroupRa
; Line 785
	ldstr		$StringLiteralTok$??_C@_1BI@ENNMKLKE@R?$AG?$JI?$FO?$GA?EX10L0B0?$IK0?$HO0?$FL0?$JD0?$AC?$AA?$AA@
	newobj		??0WDDatasException@WDDatas@@$$FQ$AAM@P$AAVString@System@@@Z
	stloc.2				; tmpWDDataException$12568
; Line 786
	ldloc.2				; tmpWDDataException$12568
	ldc.i4		10214		; i32 0x27e6
	stfld		?ErrorCode@WDDatasException@WDDatas@@3HA
; Line 787
	ldloc.2				; tmpWDDataException$12568
	ldc.i.1		1		; i32 0x1
	stfld		?ErrorCode2@WDDatasException@WDDatas@@3HA
; Line 788
	ldloc.2				; tmpWDDataException$12568
	throw.u2	
$LN4@getGroupRa:
; Line 792
	ldarg.1				; inIdx$
	ldc.i.0		0		; i32 0x0
	blt.s		$LN2@getGroupRa
	ldarg.1				; inIdx$
	ldarg.0				; this$
	ldfld		?MeanGroup@WDMean@WDDatas@@3P$AAV?$List@P$AAUWDMeanGroup@WDDatas@@@Generic@Collections@System@@$AA
	callvirt	?get@Count@?$List@P$AAUWDMeanGroup@WDDatas@@@Generic@Collections@System@@$$FU$AAMHXZ
	bge.s		$LN2@getGroupRa
$LN16@getGroupRa:
; Line 803
	ldarg.0				; this$
	ldfld		?MeanGroup@WDMean@WDDatas@@3P$AAV?$List@P$AAUWDMeanGroup@WDDatas@@@Generic@Collections@System@@$AA
	ldarg.1				; inIdx$
	callvirt	?get@default@?$List@P$AAUWDMeanGroup@WDDatas@@@Generic@Collections@System@@$$FU$AAMP$AAUWDMeanGroup@WDDatas@@H@Z
	ldfld		?GroupRank@WDMeanGroup@WDDatas@@3HA
; Line 812
	stloc.s		4		; $T13276
	leave.s		$LN17@getGroupRa
__catch$?getGroupRank@WDMean@WDDatas@@$$FQ$AAMHH@Z$0:
; Line 805
	imp.push	
	stloc.3				; exp$12575
; Line 807
	ldstr		$StringLiteralTok$??_C@_1CM@NGLFBLKH@R?$AG?$JI?$FO0?i0?s0?$KP0nS?V_?$JHfB0k0?$KI0?i0?$PM0Lvzu?$BP0W0?$HO0W0_0?$AC?$AA?$AA@
	ldloc.3				; exp$12575
	newobj		??0WDDatasException@WDDatas@@$$FQ$AAM@P$AAVString@System@@P$AAVException@3@@Z
	stloc.1				; tmpWDDataException$12576
; Line 808
	ldloc.1				; tmpWDDataException$12576
	ldc.i4		10214		; i32 0x27e6
	stfld		?ErrorCode@WDDatasException@WDDatas@@3HA
; Line 809
	ldloc.1				; tmpWDDataException$12576
	ldc.i.3		3		; i32 0x3
	stfld		?ErrorCode2@WDDatasException@WDDatas@@3HA
; Line 810
	ldloc.1				; tmpWDDataException$12576
	throw.u2	
$LN12@getGroupRa:
	leave.s		$LN10@getGroupRa
$LN2@getGroupRa:
; Line 795
	ldstr		$StringLiteralTok$??_C@_1CA@KIOCOIAC@0?$KE0?s0?G0?C0?$KP0?$LJ0nc?$AH?$FL?$JK0LN?$ANkc0g0Y0?$AC?$AA?$AA@
	newobj		??0WDDatasException@WDDatas@@$$FQ$AAM@P$AAVString@System@@@Z
	stloc.0				; tmpWDDataException$12572
; Line 796
	ldloc.0				; tmpWDDataException$12572
	ldc.i4		10214		; i32 0x27e6
	stfld		?ErrorCode@WDDatasException@WDDatas@@3HA
; Line 797
	ldloc.0				; tmpWDDataException$12572
	ldc.i.2		2		; i32 0x2
	stfld		?ErrorCode2@WDDatasException@WDDatas@@3HA
; Line 798
	ldloc.0				; tmpWDDataException$12572
	throw.u2	
$LN10@getGroupRa:
$LN15@getGroupRa:
; Line 812
	ldc.i.0		0		; i32 0x0
	ret		
$LN17@getGroupRa:
	ldloc.s		4		; $T13276
	ret		
 .end ?getGroupRank@WDMean@WDDatas@@$$FQ$AAMHH@Z	; WDDatas::WDMean::getGroupRank
;	.proc.end.i4
; Function compile flags: /Ogtp
	.text
	.comdat	noduplicate, ?getSpeech@WDMean@WDDatas@@$$FQ$AAMEXZ
.global	?getSpeech@WDMean@WDDatas@@$$FQ$AAMEXZ		; WDDatas::WDMean::getSpeech
?getSpeech@WDMean@WDDatas@@$$FQ$AAMEXZ:			; WDDatas::WDMean::getSpeech
;	.proc.def	D:I()

; Function Header:
; max stack depth = 1
; function size = 7 bytes
; local varsig tk = 0x0 
; Exception Information:
; 0 handlers, each consisting of filtered handlers

;	.formal.mptr 0,"this$" SIG: Optional C Binding Modifier(token:0x4B7DF9).class (token:0x4B7DFB)

;	.proc.beg
; Line 817
	ldarg.0				; this$
	ldfld		?Speech@WDMean@WDDatas@@3EA
	ret		
 .end ?getSpeech@WDMean@WDDatas@@$$FQ$AAMEXZ		; WDDatas::WDMean::getSpeech
;	.proc.end.u1
; Function compile flags: /Ogtp
	.text
	.comdat	noduplicate, ?getRank@WDMean@WDDatas@@$$FQ$AAMHXZ
.global	?getRank@WDMean@WDDatas@@$$FQ$AAMHXZ		; WDDatas::WDMean::getRank
?getRank@WDMean@WDDatas@@$$FQ$AAMHXZ:			; WDDatas::WDMean::getRank
;	.proc.def	D:I()

; Function Header:
; max stack depth = 1
; function size = 7 bytes
; local varsig tk = 0x0 
; Exception Information:
; 0 handlers, each consisting of filtered handlers

;	.formal.mptr 0,"this$" SIG: Optional C Binding Modifier(token:0x4B7DF9).class (token:0x4B7DFB)

;	.proc.beg
; Line 823
	ldarg.0				; this$
	ldfld		?Rank@WDMean@WDDatas@@3HA
	ret		
 .end ?getRank@WDMean@WDDatas@@$$FQ$AAMHXZ		; WDDatas::WDMean::getRank
;	.proc.end.i4
.global	
	.bss
.local	$T13287,0
.local	$StringLiteralTok$??_C@_11LOCGONAA@?$AA?$AA@,4
.local	$va_argTok$_W,4
.local	$TypeTok$110031CC$,4
.local	,4
; Function compile flags: /Ogtp
	.text
	.comdat	noduplicate, ?getMean@WDMean@WDDatas@@$$FQ$AAMP$AAVString@System@@P$AAV34@@Z
.global	?getMean@WDMean@WDDatas@@$$FQ$AAMP$AAVString@System@@P$AAV34@@Z ; WDDatas::WDMean::getMean
?getMean@WDMean@WDDatas@@$$FQ$AAMP$AAVString@System@@P$AAV34@@Z: ; WDDatas::WDMean::getMean
;	.proc.def	D:P(P)

; Function Header:
; max stack depth = 3
; function size = 82 bytes
; local varsig tk = 0x11000018 
; Exception Information:
; 0 handlers, each consisting of filtered handlers

;	.formal.mptr 0,"this$" SIG: Optional C Binding Modifier(token:0x4B7DF9).class (token:0x4B7DFB)
;	.formal.mptr 1,"inData$" SIG: string
;	.local.mptr 0,"$T12689" SIG: szarray (token:0x4B9995)

;	.proc.beg
; Line 829
	ldarg.1				; inData$
	ldnull		0		; i32 0x0
	call		??9String@System@@$$FSM_NP$AAV01@0@Z
	brfalse.s	$LN4@getMean
; Line 831
	ldarg.1				; inData$
	ldc.i.0		0		; i32 0x0
	call		?Remove@String@System@@$$FQ$AAMP$AAV12@H@Z
	pop		
; Line 832
	ldarg.1				; inData$
	ldc.i.0		0		; i32 0x0
	ldarg.0				; this$
	ldfld		?Mean@WDMean@WDDatas@@3P$AAVString@System@@$AA
	call		?Insert@String@System@@$$FQ$AAMP$AAV12@HP$AAV12@@Z
	pop		
; Line 833
	ldarg.1				; inData$
	ret		
$LN4@getMean:
; Line 835
	ldarg.0				; this$
	ldfld		?Mean@WDMean@WDDatas@@3P$AAVString@System@@$AA
	call		?get@Length@String@System@@$$FQ$AAMHXZ
	ldc.i.0		0		; i32 0x0
	ble.s		$LN2@getMean
; Line 837
	ldc.i.1		1		; i32 0x1
	newarr		$TypeTok$110031CC$
	stloc.0				; $T12689
	ldloc.0				; $T12689
	ldc.i.0		0		; i32 0x0
	ldelema		$va_argTok$_W
	ldc.i.0		0		; u16 0x0
	stind.i2	
	ldarg.0				; this$
	ldfld		?Mean@WDMean@WDDatas@@3P$AAVString@System@@$AA
	ldloc.0				; $T12689
	call		?Trim@String@System@@$$FQ$AAMP$AAV12@P$01A_W@Z
	ret		
$LN2@getMean:
; Line 839
	ldstr		$StringLiteralTok$??_C@_11LOCGONAA@?$AA?$AA@
	ret		
 .end ?getMean@WDMean@WDDatas@@$$FQ$AAMP$AAVString@System@@P$AAV34@@Z ; WDDatas::WDMean::getMean
;	.proc.end.mptr
	.bss
.local	$T13290,0
; Function compile flags: /Ogtp
	.text
	.comdat	noduplicate, ?getExample@WDMean@WDDatas@@$$FQ$AAMP$AAVString@System@@P$AAV34@@Z
.global	?getExample@WDMean@WDDatas@@$$FQ$AAMP$AAVString@System@@P$AAV34@@Z ; WDDatas::WDMean::getExample
?getExample@WDMean@WDDatas@@$$FQ$AAMP$AAVString@System@@P$AAV34@@Z: ; WDDatas::WDMean::getExample
;	.proc.def	D:P(P)

; Function Header:
; max stack depth = 3
; function size = 82 bytes
; local varsig tk = 0x11000018 
; Exception Information:
; 0 handlers, each consisting of filtered handlers

;	.formal.mptr 0,"this$" SIG: Optional C Binding Modifier(token:0x4B7DF9).class (token:0x4B7DFB)
;	.formal.mptr 1,"inData$" SIG: string
;	.local.mptr 0,"$T12703" SIG: szarray (token:0x4B9995)

;	.proc.beg
; Line 848
	ldarg.1				; inData$
	ldnull		0		; i32 0x0
	call		??9String@System@@$$FSM_NP$AAV01@0@Z
	brfalse.s	$LN4@getExample
; Line 850
	ldarg.1				; inData$
	ldc.i.0		0		; i32 0x0
	call		?Remove@String@System@@$$FQ$AAMP$AAV12@H@Z
	pop		
; Line 851
	ldarg.1				; inData$
	ldc.i.0		0		; i32 0x0
	ldarg.0				; this$
	ldfld		?Example@WDMean@WDDatas@@3P$AAVString@System@@$AA
	call		?Insert@String@System@@$$FQ$AAMP$AAV12@HP$AAV12@@Z
	pop		
; Line 852
	ldarg.1				; inData$
	ret		
$LN4@getExample:
; Line 854
	ldarg.0				; this$
	ldfld		?Example@WDMean@WDDatas@@3P$AAVString@System@@$AA
	call		?get@Length@String@System@@$$FQ$AAMHXZ
	ldc.i.0		0		; i32 0x0
	ble.s		$LN2@getExample
; Line 856
	ldc.i.1		1		; i32 0x1
	newarr		$TypeTok$110031CC$
	stloc.0				; $T12703
	ldloc.0				; $T12703
	ldc.i.0		0		; i32 0x0
	ldelema		$va_argTok$_W
	ldc.i.0		0		; u16 0x0
	stind.i2	
	ldarg.0				; this$
	ldfld		?Example@WDMean@WDDatas@@3P$AAVString@System@@$AA
	ldloc.0				; $T12703
	call		?Trim@String@System@@$$FQ$AAMP$AAV12@P$01A_W@Z
	ret		
$LN2@getExample:
; Line 858
	ldstr		$StringLiteralTok$??_C@_11LOCGONAA@?$AA?$AA@
	ret		
 .end ?getExample@WDMean@WDDatas@@$$FQ$AAMP$AAVString@System@@P$AAV34@@Z ; WDDatas::WDMean::getExample
;	.proc.end.mptr
; Function compile flags: /Ogtp
	.text
	.comdat	noduplicate, ?MeanGroupCount@WDMean@WDDatas@@$$FQ$AAMHXZ
.global	?MeanGroupCount@WDMean@WDDatas@@$$FQ$AAMHXZ	; WDDatas::WDMean::MeanGroupCount
?MeanGroupCount@WDMean@WDDatas@@$$FQ$AAMHXZ:		; WDDatas::WDMean::MeanGroupCount
;	.proc.def	D:I()

; Function Header:
; max stack depth = 1
; function size = 12 bytes
; local varsig tk = 0x0 
; Exception Information:
; 0 handlers, each consisting of filtered handlers

;	.formal.mptr 0,"this$" SIG: Optional C Binding Modifier(token:0x4B7DF9).class (token:0x4B7DFB)

;	.proc.beg
; Line 867
	ldarg.0				; this$
	ldfld		?MeanGroup@WDMean@WDDatas@@3P$AAV?$List@P$AAUWDMeanGroup@WDDatas@@@Generic@Collections@System@@$AA
	callvirt	?get@Count@?$List@P$AAUWDMeanGroup@WDDatas@@@Generic@Collections@System@@$$FU$AAMHXZ
	ret		
 .end ?MeanGroupCount@WDMean@WDDatas@@$$FQ$AAMHXZ	; WDDatas::WDMean::MeanGroupCount
;	.proc.end.i4
	.bss
.local	$T13296,0
.local	$StringLiteralTok$??_C@_1BG@GAPALFHB@SX?$IK?$JO?$AAI?$AAD0LN?$ANkc0g0Y0?$AC?$AA?$AA@,4
; Function compile flags: /Ogtp
	.text
	.comdat	noduplicate, ?setWordID@WDMean@WDDatas@@$$FQ$AAMXH@Z
.global	?setWordID@WDMean@WDDatas@@$$FQ$AAMXH@Z		; WDDatas::WDMean::setWordID
?setWordID@WDMean@WDDatas@@$$FQ$AAMXH@Z:		; WDDatas::WDMean::setWordID
;	.proc.def	D:V(I)

; Function Header:
; max stack depth = 2
; function size = 43 bytes
; local varsig tk = 0x11000019 
; Exception Information:
; 0 handlers, each consisting of filtered handlers

;	.formal.mptr 0,"this$" SIG: Optional C Binding Modifier(token:0x4B7DF9).class (token:0x4B7DFB)
;	.formal.i4 1,"inData$" SIG: i4
;	.local.mptr 0,"tmpWDDataException$12715" SIG: class (token:0x4A97C5)

;	.proc.beg
; Line 875
	ldarg.1				; inData$
	ldc.i.0		0		; i32 0x0
	bgt.s		$LN1@setWordID
; Line 878
	ldstr		$StringLiteralTok$??_C@_1BG@GAPALFHB@SX?$IK?$JO?$AAI?$AAD0LN?$ANkc0g0Y0?$AC?$AA?$AA@
	newobj		??0WDDatasException@WDDatas@@$$FQ$AAM@P$AAVString@System@@@Z
	stloc.0				; tmpWDDataException$12715
; Line 879
	ldloc.0				; tmpWDDataException$12715
	ldc.i4		10208		; i32 0x27e0
	stfld		?ErrorCode@WDDatasException@WDDatas@@3HA
; Line 880
	ldloc.0				; tmpWDDataException$12715
	ldc.i.1		1		; i32 0x1
	stfld		?ErrorCode2@WDDatasException@WDDatas@@3HA
; Line 881
	ldloc.0				; tmpWDDataException$12715
	throw.u2	
$LN1@setWordID:
; Line 884
	ldarg.0				; this$
	ldarg.1				; inData$
	stfld		?WordID@WDMean@WDDatas@@3HA
; Line 885
	ret		
 .end ?setWordID@WDMean@WDDatas@@$$FQ$AAMXH@Z		; WDDatas::WDMean::setWordID
;	.proc.end.void
	.bss
.local	$T13300,0
.local	$StringLiteralTok$??_C@_1BG@FADACBCC@a?$APTs?$AAN?$AAo0LN?$ANkc0g0Y0?$AC?$AA?$AA@,4
; Function compile flags: /Ogtp
	.text
	.comdat	noduplicate, ?setMeanNo@WDMean@WDDatas@@$$FQ$AAMXH@Z
.global	?setMeanNo@WDMean@WDDatas@@$$FQ$AAMXH@Z		; WDDatas::WDMean::setMeanNo
?setMeanNo@WDMean@WDDatas@@$$FQ$AAMXH@Z:		; WDDatas::WDMean::setMeanNo
;	.proc.def	D:V(I)

; Function Header:
; max stack depth = 2
; function size = 43 bytes
; local varsig tk = 0x11000019 
; Exception Information:
; 0 handlers, each consisting of filtered handlers

;	.formal.mptr 0,"this$" SIG: Optional C Binding Modifier(token:0x4B7DF9).class (token:0x4B7DFB)
;	.formal.i4 1,"inData$" SIG: i4
;	.local.mptr 0,"tmpWDDataException$12723" SIG: class (token:0x4A97C5)

;	.proc.beg
; Line 891
	ldarg.1				; inData$
	ldc.i.0		0		; i32 0x0
	bgt.s		$LN1@setMeanNo
; Line 894
	ldstr		$StringLiteralTok$??_C@_1BG@FADACBCC@a?$APTs?$AAN?$AAo0LN?$ANkc0g0Y0?$AC?$AA?$AA@
	newobj		??0WDDatasException@WDDatas@@$$FQ$AAM@P$AAVString@System@@@Z
	stloc.0				; tmpWDDataException$12723
; Line 895
	ldloc.0				; tmpWDDataException$12723
	ldc.i4		10209		; i32 0x27e1
	stfld		?ErrorCode@WDDatasException@WDDatas@@3HA
; Line 896
	ldloc.0				; tmpWDDataException$12723
	ldc.i.1		1		; i32 0x1
	stfld		?ErrorCode2@WDDatasException@WDDatas@@3HA
; Line 897
	ldloc.0				; tmpWDDataException$12723
	throw.u2	
$LN1@setMeanNo:
; Line 900
	ldarg.0				; this$
	ldarg.1				; inData$
	stfld		?MeanNo@WDMean@WDDatas@@3HA
; Line 901
	ret		
 .end ?setMeanNo@WDMean@WDDatas@@$$FQ$AAMXH@Z		; WDDatas::WDMean::setMeanNo
;	.proc.end.void
.global	
	.bss
.local	,4
; Function compile flags: /Ogtp
	.text
	.comdat	noduplicate, ?setSpeech@WDMean@WDDatas@@$$FQ$AAMXE@Z
.global	?setSpeech@WDMean@WDDatas@@$$FQ$AAMXE@Z		; WDDatas::WDMean::setSpeech
?setSpeech@WDMean@WDDatas@@$$FQ$AAMXE@Z:		; WDDatas::WDMean::setSpeech
;	.proc.def	D:V(I)

; Function Header:
; max stack depth = 2
; function size = 8 bytes
; local varsig tk = 0x0 
; Exception Information:
; 0 handlers, each consisting of filtered handlers

;	.formal.u1 1,"inData$" SIG: u1
;	.formal.mptr 0,"this$" SIG: Optional C Binding Modifier(token:0x4B7DF9).class (token:0x4B7DFB)

;	.proc.beg
; Line 993
	ldarg.0				; this$
	ldarg.1				; inData$
	stfld		?Speech@WDMean@WDDatas@@3EA
; Line 994
	ret		
 .end ?setSpeech@WDMean@WDDatas@@$$FQ$AAMXE@Z		; WDDatas::WDMean::setSpeech
;	.proc.end.void
; Function compile flags: /Ogtp
	.text
	.comdat	noduplicate, ?setRank@WDMean@WDDatas@@$$FQ$AAMXE@Z
.global	?setRank@WDMean@WDDatas@@$$FQ$AAMXE@Z		; WDDatas::WDMean::setRank
?setRank@WDMean@WDDatas@@$$FQ$AAMXE@Z:			; WDDatas::WDMean::setRank
;	.proc.def	D:V(I)

; Function Header:
; max stack depth = 2
; function size = 8 bytes
; local varsig tk = 0x0 
; Exception Information:
; 0 handlers, each consisting of filtered handlers

;	.formal.u1 1,"inData$" SIG: u1
;	.formal.mptr 0,"this$" SIG: Optional C Binding Modifier(token:0x4B7DF9).class (token:0x4B7DFB)

;	.proc.beg
; Line 1007
	ldarg.0				; this$
	ldarg.1				; inData$
	stfld		?Rank@WDMean@WDDatas@@3HA
; Line 1008
	ret		
 .end ?setRank@WDMean@WDDatas@@$$FQ$AAMXE@Z		; WDDatas::WDMean::setRank
;	.proc.end.void
	.bss
.local	$T13320,0
.local	$StringLiteralTok$??_C@_1BM@EDMMBBJI@a?$APTs0n?$IK?9?$FL?$JK0kY1eW0W0?$HO0W0_0?$AC?$AA?$AA@,4
.local	$StringLiteralTok$??_C@_1BE@NLLAAHPB@a?$APTs0L?$JFw0Y0N0?$HO0Y0?$AC?$AA?$AA@,4
.local	$StringLiteralTok$??_C@_1BE@EANDNGCJ@a?$APTs0Lg?$CK?$IK?9?$FL?$JK0g0Y0?$AC?$AA?$AA@,4
; Function compile flags: /Ogtp
	.text
	.comdat	noduplicate, ?setMean@WDMean@WDDatas@@$$FQ$AAMXP$AAVString@System@@@Z
.global	?setMean@WDMean@WDDatas@@$$FQ$AAMXP$AAVString@System@@@Z ; WDDatas::WDMean::setMean
?setMean@WDMean@WDDatas@@$$FQ$AAMXP$AAVString@System@@@Z: ; WDDatas::WDMean::setMean
;	.proc.def	D:V(P)

; Function Header:
; max stack depth = 4
; function size = 150 bytes
; local varsig tk = 0x1100001B 
; Exception Information:
; 1 handlers, each consisting of filtered handlers

;	.formal.mptr 0,"this$" SIG: Optional C Binding Modifier(token:0x4B7DF9).class (token:0x4B7DFB)
;	.formal.mptr 1,"inData$" SIG: string
;	.local.mptr 0,"tmpWDDataException$12799" SIG: class (token:0x4A97C5)
;	.local.mptr 3,"exp$12798" SIG: class (token:0x4A9739)
;	.local.mptr 1,"tmpWDDataException$12792" SIG: class (token:0x4A97C5)
;	.local.mptr 2,"tmpWDDataException$12788" SIG: class (token:0x4A97C5)

;	.proc.beg
; Line 1014
	ldarg.1				; inData$
	ldnull		0		; i32 0x0
	call		??8String@System@@$$FSM_NP$AAV01@0@Z
	brfalse.s	$LN4@setMean
; Line 1017
	ldstr		$StringLiteralTok$??_C@_1BE@EANDNGCJ@a?$APTs0Lg?$CK?$IK?9?$FL?$JK0g0Y0?$AC?$AA?$AA@
	newobj		??0WDDatasException@WDDatas@@$$FQ$AAM@P$AAVString@System@@@Z
	stloc.2				; tmpWDDataException$12788
; Line 1018
	ldloc.2				; tmpWDDataException$12788
	ldc.i4		10213		; i32 0x27e5
	stfld		?ErrorCode@WDDatasException@WDDatas@@3HA
; Line 1019
	ldloc.2				; tmpWDDataException$12788
	ldc.i.1		1		; i32 0x1
	stfld		?ErrorCode2@WDDatasException@WDDatas@@3HA
; Line 1020
	ldloc.2				; tmpWDDataException$12788
	throw.u2	
$LN4@setMean:
; Line 1022
	ldarg.1				; inData$
	call		?get@Length@String@System@@$$FQ$AAMHXZ
	ldc.i.1		1		; i32 0x1
	shl		
	ldc.i4		500		; i32 0x1f4
	ble.s		$LN3@setMean
; Line 1025
	ldstr		$StringLiteralTok$??_C@_1BE@NLLAAHPB@a?$APTs0L?$JFw0Y0N0?$HO0Y0?$AC?$AA?$AA@
	newobj		??0WDDatasException@WDDatas@@$$FQ$AAM@P$AAVString@System@@@Z
	stloc.1				; tmpWDDataException$12792
; Line 1026
	ldloc.1				; tmpWDDataException$12792
	ldc.i4		10213		; i32 0x27e5
	stfld		?ErrorCode@WDDatasException@WDDatas@@3HA
; Line 1027
	ldloc.1				; tmpWDDataException$12792
	ldc.i.2		2		; i32 0x2
	stfld		?ErrorCode2@WDDatasException@WDDatas@@3HA
; Line 1028
	ldloc.1				; tmpWDDataException$12792
	throw.u2	
$LN3@setMean:
	nop		
$LN16@setMean:
; Line 1034
	ldarg.0				; this$
	ldfld		?Mean@WDMean@WDDatas@@3P$AAVString@System@@$AA
	ldnull		0		; i32 0x0
	call		??9String@System@@$$FSM_NP$AAV01@0@Z
	pop		
; Line 1038
	ldarg.0				; this$
	ldarg.1				; inData$
	call		?Copy@String@System@@$$FSMP$AAV12@P$AAV12@@Z
	stfld		?Mean@WDMean@WDDatas@@3P$AAVString@System@@$AA
	leave.s		$LN7@setMean
__catch$?setMean@WDMean@WDDatas@@$$FQ$AAMXP$AAVString@System@@@Z$0:
; Line 1040
	imp.push	
	stloc.3				; exp$12798
; Line 1042
	ldstr		$StringLiteralTok$??_C@_1BM@EDMMBBJI@a?$APTs0n?$IK?9?$FL?$JK0kY1eW0W0?$HO0W0_0?$AC?$AA?$AA@
	ldloc.3				; exp$12798
	newobj		??0WDDatasException@WDDatas@@$$FQ$AAM@P$AAVString@System@@P$AAVException@3@@Z
	stloc.0				; tmpWDDataException$12799
; Line 1043
	ldloc.0				; tmpWDDataException$12799
	ldc.i4		10213		; i32 0x27e5
	stfld		?ErrorCode@WDDatasException@WDDatas@@3HA
; Line 1044
	ldloc.0				; tmpWDDataException$12799
	ldc.i.3		3		; i32 0x3
	stfld		?ErrorCode2@WDDatasException@WDDatas@@3HA
; Line 1045
	ldloc.0				; tmpWDDataException$12799
	throw.u2	
$LN12@setMean:
	leave.s		$LN7@setMean
$LN7@setMean:
$LN15@setMean:
; Line 1048
	ret		
 .end ?setMean@WDMean@WDDatas@@$$FQ$AAMXP$AAVString@System@@@Z ; WDDatas::WDMean::setMean
;	.proc.end.void
	.bss
.local	$T13336,0
; Function compile flags: /Ogtp
	.text
	.comdat	noduplicate, ?setExample@WDMean@WDDatas@@$$FQ$AAMXP$AAVString@System@@@Z
.global	?setExample@WDMean@WDDatas@@$$FQ$AAMXP$AAVString@System@@@Z ; WDDatas::WDMean::setExample
?setExample@WDMean@WDDatas@@$$FQ$AAMXP$AAVString@System@@@Z: ; WDDatas::WDMean::setExample
;	.proc.def	D:V(P)

; Function Header:
; max stack depth = 4
; function size = 150 bytes
; local varsig tk = 0x1100001B 
; Exception Information:
; 1 handlers, each consisting of filtered handlers

;	.formal.mptr 0,"this$" SIG: Optional C Binding Modifier(token:0x4B7DF9).class (token:0x4B7DFB)
;	.formal.mptr 1,"inData$" SIG: string
;	.local.mptr 0,"tmpWDDataException$12816" SIG: class (token:0x4A97C5)
;	.local.mptr 3,"exp$12815" SIG: class (token:0x4A9739)
;	.local.mptr 1,"tmpWDDataException$12810" SIG: class (token:0x4A97C5)
;	.local.mptr 2,"tmpWDDataException$12807" SIG: class (token:0x4A97C5)

;	.proc.beg
; Line 1054
	ldarg.1				; inData$
	ldnull		0		; i32 0x0
	call		??8String@System@@$$FSM_NP$AAV01@0@Z
	brfalse.s	$LN4@setExample
; Line 1057
	ldstr		$StringLiteralTok$??_C@_1BE@EANDNGCJ@a?$APTs0Lg?$CK?$IK?9?$FL?$JK0g0Y0?$AC?$AA?$AA@
	newobj		??0WDDatasException@WDDatas@@$$FQ$AAM@P$AAVString@System@@@Z
	stloc.2				; tmpWDDataException$12807
; Line 1058
	ldloc.2				; tmpWDDataException$12807
	ldc.i4		10217		; i32 0x27e9
	stfld		?ErrorCode@WDDatasException@WDDatas@@3HA
; Line 1059
	ldloc.2				; tmpWDDataException$12807
	ldc.i.1		1		; i32 0x1
	stfld		?ErrorCode2@WDDatasException@WDDatas@@3HA
; Line 1060
	ldloc.2				; tmpWDDataException$12807
	throw.u2	
$LN4@setExample:
; Line 1062
	ldarg.1				; inData$
	call		?get@Length@String@System@@$$FQ$AAMHXZ
	ldc.i.1		1		; i32 0x1
	shl		
	ldc.i4		400		; i32 0x190
	ble.s		$LN3@setExample
; Line 1065
	ldstr		$StringLiteralTok$??_C@_1BE@NLLAAHPB@a?$APTs0L?$JFw0Y0N0?$HO0Y0?$AC?$AA?$AA@
	newobj		??0WDDatasException@WDDatas@@$$FQ$AAM@P$AAVString@System@@@Z
	stloc.1				; tmpWDDataException$12810
; Line 1066
	ldloc.1				; tmpWDDataException$12810
	ldc.i4		10217		; i32 0x27e9
	stfld		?ErrorCode@WDDatasException@WDDatas@@3HA
; Line 1067
	ldloc.1				; tmpWDDataException$12810
	ldc.i.2		2		; i32 0x2
	stfld		?ErrorCode2@WDDatasException@WDDatas@@3HA
; Line 1068
	ldloc.1				; tmpWDDataException$12810
	throw.u2	
$LN3@setExample:
	nop		
$LN16@setExample:
; Line 1074
	ldarg.0				; this$
	ldfld		?Example@WDMean@WDDatas@@3P$AAVString@System@@$AA
	ldnull		0		; i32 0x0
	call		??9String@System@@$$FSM_NP$AAV01@0@Z
	pop		
; Line 1078
	ldarg.0				; this$
	ldarg.1				; inData$
	call		?Copy@String@System@@$$FSMP$AAV12@P$AAV12@@Z
	stfld		?Example@WDMean@WDDatas@@3P$AAVString@System@@$AA
	leave.s		$LN7@setExample
__catch$?setExample@WDMean@WDDatas@@$$FQ$AAMXP$AAVString@System@@@Z$0:
; Line 1080
	imp.push	
	stloc.3				; exp$12815
; Line 1082
	ldstr		$StringLiteralTok$??_C@_1BM@EDMMBBJI@a?$APTs0n?$IK?9?$FL?$JK0kY1eW0W0?$HO0W0_0?$AC?$AA?$AA@
	ldloc.3				; exp$12815
	newobj		??0WDDatasException@WDDatas@@$$FQ$AAM@P$AAVString@System@@P$AAVException@3@@Z
	stloc.0				; tmpWDDataException$12816
; Line 1083
	ldloc.0				; tmpWDDataException$12816
	ldc.i4		10217		; i32 0x27e9
	stfld		?ErrorCode@WDDatasException@WDDatas@@3HA
; Line 1084
	ldloc.0				; tmpWDDataException$12816
	ldc.i.3		3		; i32 0x3
	stfld		?ErrorCode2@WDDatasException@WDDatas@@3HA
; Line 1085
	ldloc.0				; tmpWDDataException$12816
	throw.u2	
$LN12@setExample:
	leave.s		$LN7@setExample
$LN7@setExample:
$LN15@setExample:
; Line 1088
	ret		
 .end ?setExample@WDMean@WDDatas@@$$FQ$AAMXP$AAVString@System@@@Z ; WDDatas::WDMean::setExample
;	.proc.end.void
	.bss
.local	$T13344,0
; Function compile flags: /Ogtp
	.text
	.comdat	noduplicate, ?Compare@WDMeanGrpComparer@WDDatas@@$$FU$AAMHP$AAUWDMeanGroup@2@0@Z
.global	?Compare@WDMeanGrpComparer@WDDatas@@$$FU$AAMHP$AAUWDMeanGroup@2@0@Z ; WDDatas::WDMeanGrpComparer::Compare
?Compare@WDMeanGrpComparer@WDDatas@@$$FU$AAMHP$AAUWDMeanGroup@2@0@Z: ; WDDatas::WDMeanGrpComparer::Compare
;	.proc.def	D:I(PP)

; Function Header:
; max stack depth = 3
; function size = 161 bytes
; local varsig tk = 0x1100001C 
; Exception Information:
; 0 handlers, each consisting of filtered handlers

;	.formal.mptr 2,"y$" SIG: class (token:0x4A92F5)
;	.formal.mptr 1,"x$" SIG: class (token:0x4A92F5)
;	.local.u1 3,"$T12987" SIG: u1
;	.local.u1 4,"$T12985" SIG: u1
;	.local.u1 5,"$T12983" SIG: u1
;	.local.i4 0,"Result$" SIG: i4
;	.local.u1 6,"$T12895" SIG: u1
;	.local.i4 1,"$T13341" SIG: i4
;	.local.i4 2,"$T13340" SIG: i4

;	.proc.beg
; Line 1182
	ldarg.1				; x$
	brtrue.s	$LN8@Compare
; Line 1184
	ldarg.2				; y$
	ldnull		0		; u32 0x0
	beq.s		$LN13@Compare
	ldc.i.1		1		; i32 0x1
	br.s		$LN14@Compare
$LN13@Compare:
	ldc.i.0		0		; i32 0x0
$LN14@Compare:
	ret		
$LN8@Compare:
; Line 1194
	ldarg.2				; y$
	brtrue.s	$LN7@Compare
; Line 1196
	ldc.i.-1	-1		; i32 0xffffffff
	ret		
$LN7@Compare:
; Line 1200
	ldarg.1				; x$
	ldfld		?MeanFlg@WDMeanGroup@WDDatas@@3HA
	stloc.2				; $T13340
	ldarg.2				; y$
	ldfld		?MeanFlg@WDMeanGroup@WDDatas@@3HA
	stloc.1				; $T13341
	ldloc.2				; $T13340
	ldloc.1				; $T13341
	bge.s		$LN6@Compare
; Line 1202
	ldc.i.-1	-1		; i32 0xffffffff
	ret		
$LN6@Compare:
; Line 1203
	ldloc.2				; $T13340
	ldloc.1				; $T13341
	ble.s		$LN4@Compare
; Line 1204
	ldc.i.1		1		; i32 0x1
	ret		
$LN4@Compare:
; Line 1208
	ldarg.1				; x$
	ldfld		?GroupGt@WDMeanGroup@WDDatas@@3P$01AEA
	ldc.i.0		0		; i32 0x0
	ldelem.u1	
	stloc.s		6		; $T12895
	ldloca.s	6		; $T12895
	ldarg.2				; y$
	ldfld		?GroupGt@WDMeanGroup@WDDatas@@3P$01AEA
	ldc.i.0		0		; i32 0x0
	ldelem.u1	
	call		?CompareTo@Byte@System@@$$FU$CAMHE@Z
	stloc.0				; Result$
; Line 1209
	ldloc.0				; Result$
	brtrue.s	$LN3@Compare
	ldc.i.0		0		; i32 0x0
	ret		
$LN3@Compare:
; Line 1210
	ldarg.1				; x$
	ldfld		?GroupGt@WDMeanGroup@WDDatas@@3P$01AEA
	ldc.i.1		1		; i32 0x1
	ldelem.u1	
	stloc.s		5		; $T12983
	ldloca.s	5		; $T12983
	ldarg.2				; y$
	ldfld		?GroupGt@WDMeanGroup@WDDatas@@3P$01AEA
	ldc.i.1		1		; i32 0x1
	ldelem.u1	
	call		?CompareTo@Byte@System@@$$FU$CAMHE@Z
	stloc.0				; Result$
; Line 1211
	ldloc.0				; Result$
	brtrue.s	$LN2@Compare
	ldc.i.0		0		; i32 0x0
	ret		
$LN2@Compare:
; Line 1214
	ldarg.1				; x$
	ldfld		?GroupLt@WDMeanGroup@WDDatas@@3P$01AEA
	ldc.i.0		0		; i32 0x0
	ldelem.u1	
	stloc.s		4		; $T12985
	ldloca.s	4		; $T12985
	ldarg.2				; y$
	ldfld		?GroupLt@WDMeanGroup@WDDatas@@3P$01AEA
	ldc.i.0		0		; i32 0x0
	ldelem.u1	
	call		?CompareTo@Byte@System@@$$FU$CAMHE@Z
	stloc.0				; Result$
; Line 1215
	ldloc.0				; Result$
	brtrue.s	$LN1@Compare
	ldc.i.0		0		; i32 0x0
	ret		
$LN1@Compare:
; Line 1216
	ldarg.1				; x$
	ldfld		?GroupLt@WDMeanGroup@WDDatas@@3P$01AEA
	ldc.i.1		1		; i32 0x1
	ldelem.u1	
	stloc.3				; $T12987
; Line 1219
	ldloca.s	3		; $T12987
	ldarg.2				; y$
	ldfld		?GroupLt@WDMeanGroup@WDDatas@@3P$01AEA
	ldc.i.1		1		; i32 0x1
	ldelem.u1	
	call		?CompareTo@Byte@System@@$$FU$CAMHE@Z
	ret		
 .end ?Compare@WDMeanGrpComparer@WDDatas@@$$FU$AAMHP$AAUWDMeanGroup@2@0@Z ; WDDatas::WDMeanGrpComparer::Compare
;	.proc.end.i4
; Function compile flags: /Ogtp
	.text
	.comdat	any, ?<Dispose>@WDRec@WDDatas@@$$FU$AAMXXZ
.global	?<Dispose>@WDRec@WDDatas@@$$FU$AAMXXZ		; WDDatas::WDRec::<Dispose>
?<Dispose>@WDRec@WDDatas@@$$FU$AAMXXZ:			; WDDatas::WDRec::<Dispose>
;	.proc.def	D:V()

; Function Header:
; max stack depth = 2
; function size = 14 bytes
; local varsig tk = 0x0 
; Exception Information:
; 0 handlers, each consisting of filtered handlers

;	.formal.mptr 0,"this$" SIG: Optional C Binding Modifier(token:0x4B83AD).class (token:0x4B83AF)

;	.proc.beg
	ldarg.0				; this$
	ldc.i.1		1		; u8 0x1
	callvirt	?<Dispose>@WDRec@WDDatas@@$$FM$AAMX_N@Z
	ldarg.0				; this$
	call		?SuppressFinalize@GC@System@@$$FSMXP$AAVObject@2@@Z
	ret		
 .end ?<Dispose>@WDRec@WDDatas@@$$FU$AAMXXZ		; WDDatas::WDRec::<Dispose>
;	.proc.end.void
; Function compile flags: /Ogtp
	.text
	.comdat	any, ?<Dispose>@WDMean@WDDatas@@$$FM$AAMX_N@Z
.global	?<Dispose>@WDMean@WDDatas@@$$FM$AAMX_N@Z	; WDDatas::WDMean::<Dispose>
?<Dispose>@WDMean@WDDatas@@$$FM$AAMX_N@Z:		; WDDatas::WDMean::<Dispose>
;	.proc.def	D:V(I)

; Function Header:
; max stack depth = 2
; function size = 27 bytes
; local varsig tk = 0x0 
; Exception Information:
; 1 handlers, each consisting of filtered handlers

;	.formal.mptr 0,"this$" SIG: Optional C Binding Modifier(token:0x4B7DF9).class (token:0x4B7DFB)
;	.formal.u1 1,"disposing$" SIG: bool

;	.proc.beg
	ldarg.1				; disposing$
	brfalse.s	$LN3@
$LN13@:
	ldarg.0				; this$
	call		??1WDMean@WDDatas@@$$FA$AAM@XZ
$LN2@:
	leave.s		$LN12@
$LN7@:
	ldarg.0				; this$
	ldc.i.1		1		; u8 0x1
	call		?<Dispose>@WDRec@WDDatas@@$$FM$AAMX_N@Z
$LN9@:
	endfinally	
$LN3@:
	ldarg.0				; this$
	ldc.i.0		0		; u8 0x0
	call		?<Dispose>@WDRec@WDDatas@@$$FM$AAMX_N@Z
$LN12@:
	ret		
 .end ?<Dispose>@WDMean@WDDatas@@$$FM$AAMX_N@Z		; WDDatas::WDMean::<Dispose>
;	.proc.end.void
; Function compile flags: /Ogtp
	.text
	.comdat	noduplicate, ?getRecord@WDMean@WDDatas@@$$FU$AAMP$AAVDataRecord@FJIsam@@XZ
.global	?getRecord@WDMean@WDDatas@@$$FU$AAMP$AAVDataRecord@FJIsam@@XZ ; WDDatas::WDMean::getRecord
?getRecord@WDMean@WDDatas@@$$FU$AAMP$AAVDataRecord@FJIsam@@XZ: ; WDDatas::WDMean::getRecord
;	.proc.def	D:P()

; Function Header:
; max stack depth = 2
; function size = 8 bytes
; local varsig tk = 0x0 
; Exception Information:
; 0 handlers, each consisting of filtered handlers

;	.formal.mptr 0,"this$" SIG: Optional C Binding Modifier(token:0x4B7DF9).class (token:0x4B7DFB)

;	.proc.beg
; Line 110
	ldarg.0				; this$
	ldc.i.0		0		; i32 0x0
	call		?getRecord@WDMean@WDDatas@@$$FQ$AAMP$AAVDataRecord@FJIsam@@H@Z
	ret		
 .end ?getRecord@WDMean@WDDatas@@$$FU$AAMP$AAVDataRecord@FJIsam@@XZ ; WDDatas::WDMean::getRecord
;	.proc.end.mptr
; Function compile flags: /Ogtp
	.text
	.comdat	noduplicate, ?Write@WDMean@WDDatas@@$$FU$AAMXXZ
.global	?Write@WDMean@WDDatas@@$$FU$AAMXXZ		; WDDatas::WDMean::Write
?Write@WDMean@WDDatas@@$$FU$AAMXXZ:			; WDDatas::WDMean::Write
;	.proc.def	D:V()

; Function Header:
; max stack depth = 2
; function size = 8 bytes
; local varsig tk = 0x0 
; Exception Information:
; 0 handlers, each consisting of filtered handlers

;	.formal.mptr 0,"this$" SIG: Optional C Binding Modifier(token:0x4B7DF9).class (token:0x4B7DFB)

;	.proc.beg
; Line 354
	ldarg.0				; this$
	ldc.i.0		0		; i32 0x0
	call		?Write@WDMean@WDDatas@@$$FQ$AAMXH@Z
; Line 355
	ret		
 .end ?Write@WDMean@WDDatas@@$$FU$AAMXXZ		; WDDatas::WDMean::Write
;	.proc.end.void
	.bss
.local	$T13388,0
.local	$StringLiteralTok$??_C@_1BM@DLGIPIP@0?G0?$PM0?$LPRJ?$JGd0kY1eW0W0?$HO0W0_0?$AC?$AA?$AA@,4
.local	$StringLiteralTok$??_C@_1CE@IIEEBPOB@?$AAI?$AAS?$AAA?$AAM0?G0?$PM0?$LPRJ?$JGd0kY1eW0W0?$HO0W0_0?$AC?$AA?$AA@,4
; Function compile flags: /Ogtp
	.text
	.comdat	noduplicate, ?Delete@WDMean@WDDatas@@$$FQ$AAMXH@Z
.global	?Delete@WDMean@WDDatas@@$$FQ$AAMXH@Z		; WDDatas::WDMean::Delete
?Delete@WDMean@WDDatas@@$$FQ$AAMXH@Z:			; WDDatas::WDMean::Delete
;	.proc.def	D:V(I)

; Function Header:
; max stack depth = 4
; function size = 450 bytes
; local varsig tk = 0x1100001D 
; Exception Information:
; 2 handlers, each consisting of filtered handlers

;	.formal.i4 1,"inIdx$" SIG: i4
;	.formal.mptr 0,"this$" SIG: Optional C Binding Modifier(token:0x4B7DF9).class (token:0x4B7DFB)
;	.local.mptr 1,"tmpWDDataException$12414" SIG: class (token:0x4A97C5)
;	.local.mptr 2,"tmpWDDataException$12437" SIG: class (token:0x4A97C5)
;	.local.mptr 7,"exp$12436" SIG: class (token:0x4A9739)
;	.local.mptr 5,"$T12430" SIG: class (token:0x4A9385)
;	.local.mptr 3,"tmpWDDataException$12423" SIG: class (token:0x4A97C5)
;	.local.mptr 8,"exp$12422" SIG: class (token:0x4A9739)
;	.local.mptr 9,"$T12421" SIG: class (token:0x4A9385)
;	.local.mptr 10,"$T12420" SIG: class (token:0x4A9859)
;	.local.mptr 6,"tmpParent$" SIG: class (token:0x4B06C9)
;	.local.mptr 0,"tmpRec$" SIG: class (token:0x4A9859)
;	.local.mptr 4,"tmpWDDataException$12410" SIG: class (token:0x4A97C5)

;	.proc.beg
; Line 440
	ldarg.0				; this$
	ldfld		?MeanGroup@WDMean@WDDatas@@3P$AAV?$List@P$AAUWDMeanGroup@WDDatas@@@Generic@Collections@System@@$AA
	callvirt	?get@Count@?$List@P$AAUWDMeanGroup@WDDatas@@@Generic@Collections@System@@$$FU$AAMHXZ
	brtrue.s	$LN12@Delete
; Line 443
	ldstr		$StringLiteralTok$??_C@_1BM@FNNMDIML@a?$APTs0?G0?$PM0?$LP0L?$FLXW?$CI0W0?$HO0?$FL0?$JD0?$AC?$AA?$AA@
	newobj		??0WDDatasException@WDDatas@@$$FQ$AAM@P$AAVString@System@@@Z
	stloc.s		4		; tmpWDDataException$12410
; Line 444
	ldloc.s		4		; tmpWDDataException$12410
	ldc.i4		10205		; i32 0x27dd
	stfld		?ErrorCode@WDDatasException@WDDatas@@3HA
; Line 445
	ldloc.s		4		; tmpWDDataException$12410
	ldc.i.1		1		; i32 0x1
	stfld		?ErrorCode2@WDDatasException@WDDatas@@3HA
; Line 446
	ldloc.s		4		; tmpWDDataException$12410
	throw.u2	
$LN12@Delete:
; Line 449
	ldarg.1				; inIdx$
	ldc.i.0		0		; i32 0x0
	blt		$LN10@Delete
	ldarg.1				; inIdx$
	ldarg.0				; this$
	ldfld		?MeanGroup@WDMean@WDDatas@@3P$AAV?$List@P$AAUWDMeanGroup@WDDatas@@@Generic@Collections@System@@$AA
	callvirt	?get@Count@?$List@P$AAUWDMeanGroup@WDDatas@@@Generic@Collections@System@@$$FU$AAMHXZ
	bge		$LN10@Delete
$LN36@Delete:
; Line 461
	ldarg.0				; this$
	ldfld		?MeanGroup@WDMean@WDDatas@@3P$AAV?$List@P$AAUWDMeanGroup@WDDatas@@@Generic@Collections@System@@$AA
	ldarg.1				; inIdx$
	callvirt	?get@default@?$List@P$AAUWDMeanGroup@WDDatas@@@Generic@Collections@System@@$$FU$AAMP$AAUWDMeanGroup@WDDatas@@H@Z
	ldfld		?DataRec@WDMeanGroup@WDDatas@@3P$AAVDataRecord@FJIsam@@$AA
	stloc.0				; tmpRec$
; Line 462
	ldloc.0				; tmpRec$
	brfalse.s	$LN15@Delete
; Line 464
	ldarg.0				; this$
	call		?getRecord@WDRec@WDDatas@@$$FU$AAMP$AAVDataRecord@FJIsam@@XZ
	call		?getParentFile@DataRecord@FJIsam@@$$FQ$AAMP$AAVObject@System@@XZ
	castClass	$TypeTok$11280448$
	stloc.s		6		; tmpParent$
; Line 466
	ldloc.s		6		; tmpParent$
	brfalse.s	$LN7@Delete
	ldarg.0				; this$
	call		?getRecord@WDRec@WDDatas@@$$FU$AAMP$AAVDataRecord@FJIsam@@XZ
	call		?getRecStat@DataRecord@FJIsam@@$$FQ$AAM?AW4DataRecStat_EN@2@XZ
	ldc.i.1		1		; i32 0x1
	bne.un.s	$LN7@Delete
; Line 468
	ldloc.s		6		; tmpParent$
	ldarg.0				; this$
	callvirt	?getRecord@WDMean@WDDatas@@$$FU$AAMP$AAVDataRecord@FJIsam@@XZ
	call		?DeleteRecord@FIsam@FJIsam@@$$FQ$AAMXP$AAVDataRecord@2@@Z
$LN7@Delete:
; Line 470
	ldloc.0				; tmpRec$
	stloc.s		10		; $T12420
	ldloc.0				; tmpRec$
	stloc.s		9		; $T12421
	ldloc.0				; tmpRec$
	callvirt	?<Dispose>@IDisposable@System@@$$FU$AAMXXZ
$LN15@Delete:
	leave.s		$LN19@Delete
__catch$?Delete@WDMean@WDDatas@@$$FQ$AAMXH@Z$0:
; Line 473
	imp.push	
	stloc.s		8		; exp$12422
; Line 475
	ldstr		$StringLiteralTok$??_C@_1CE@IIEEBPOB@?$AAI?$AAS?$AAA?$AAM0?G0?$PM0?$LPRJ?$JGd0kY1eW0W0?$HO0W0_0?$AC?$AA?$AA@
	ldloc.s		8		; exp$12422
	newobj		??0WDDatasException@WDDatas@@$$FQ$AAM@P$AAVString@System@@P$AAVException@3@@Z
	stloc.3				; tmpWDDataException$12423
; Line 476
	ldloc.3				; tmpWDDataException$12423
	ldc.i4		10205		; i32 0x27dd
	stfld		?ErrorCode@WDDatasException@WDDatas@@3HA
; Line 477
	ldloc.3				; tmpWDDataException$12423
	ldc.i.3		3		; i32 0x3
	stfld		?ErrorCode2@WDDatasException@WDDatas@@3HA
; Line 478
	ldloc.3				; tmpWDDataException$12423
	throw.u2	
$LN26@Delete:
	leave.s		$LN19@Delete
$LN19@Delete:
	nop		
$LN37@Delete:
; Line 485
	ldarg.0				; this$
	ldfld		?MeanGroup@WDMean@WDDatas@@3P$AAV?$List@P$AAUWDMeanGroup@WDDatas@@@Generic@Collections@System@@$AA
	ldarg.1				; inIdx$
	callvirt	?get@default@?$List@P$AAUWDMeanGroup@WDDatas@@@Generic@Collections@System@@$$FU$AAMP$AAUWDMeanGroup@WDDatas@@H@Z
	ldfld		?GroupGt@WDMeanGroup@WDDatas@@3P$01AEA
	brfalse.s	$LN5@Delete
	ldarg.0				; this$
	ldfld		?MeanGroup@WDMean@WDDatas@@3P$AAV?$List@P$AAUWDMeanGroup@WDDatas@@@Generic@Collections@System@@$AA
	ldarg.1				; inIdx$
	callvirt	?get@default@?$List@P$AAUWDMeanGroup@WDDatas@@@Generic@Collections@System@@$$FU$AAMP$AAUWDMeanGroup@WDDatas@@H@Z
	ldnull		0		; i32 0x0
	stfld		?GroupGt@WDMeanGroup@WDDatas@@3P$01AEA
$LN5@Delete:
; Line 486
	ldarg.0				; this$
	ldfld		?MeanGroup@WDMean@WDDatas@@3P$AAV?$List@P$AAUWDMeanGroup@WDDatas@@@Generic@Collections@System@@$AA
	ldarg.1				; inIdx$
	callvirt	?get@default@?$List@P$AAUWDMeanGroup@WDDatas@@@Generic@Collections@System@@$$FU$AAMP$AAUWDMeanGroup@WDDatas@@H@Z
	ldfld		?GroupLt@WDMeanGroup@WDDatas@@3P$01AEA
	brfalse.s	$LN4@Delete
	ldarg.0				; this$
	ldfld		?MeanGroup@WDMean@WDDatas@@3P$AAV?$List@P$AAUWDMeanGroup@WDDatas@@@Generic@Collections@System@@$AA
	ldarg.1				; inIdx$
	callvirt	?get@default@?$List@P$AAUWDMeanGroup@WDDatas@@@Generic@Collections@System@@$$FU$AAMP$AAUWDMeanGroup@WDDatas@@H@Z
	ldnull		0		; i32 0x0
	stfld		?GroupLt@WDMeanGroup@WDDatas@@3P$01AEA
$LN4@Delete:
; Line 487
	ldarg.0				; this$
	ldfld		?MeanGroup@WDMean@WDDatas@@3P$AAV?$List@P$AAUWDMeanGroup@WDDatas@@@Generic@Collections@System@@$AA
	ldarg.1				; inIdx$
	callvirt	?get@default@?$List@P$AAUWDMeanGroup@WDDatas@@@Generic@Collections@System@@$$FU$AAMP$AAUWDMeanGroup@WDDatas@@H@Z
	isInst		$TypeTok$1102D1B0$
	stloc.s		5		; $T12430
	ldloc.s		5		; $T12430
	brfalse.s	$LN17@Delete
	ldloc.s		5		; $T12430
	callvirt	?<Dispose>@IDisposable@System@@$$FU$AAMXXZ
$LN17@Delete:
; Line 488
	ldarg.0				; this$
	ldfld		?MeanGroup@WDMean@WDDatas@@3P$AAV?$List@P$AAUWDMeanGroup@WDDatas@@@Generic@Collections@System@@$AA
	ldarg.1				; inIdx$
	callvirt	?RemoveAt@?$List@P$AAUWDMeanGroup@WDDatas@@@Generic@Collections@System@@$$FU$AAMXH@Z
; Line 491
	ldarg.0				; this$
	ldfld		?MeanGroup@WDMean@WDDatas@@3P$AAV?$List@P$AAUWDMeanGroup@WDDatas@@@Generic@Collections@System@@$AA
	callvirt	?get@Count@?$List@P$AAUWDMeanGroup@WDDatas@@@Generic@Collections@System@@$$FU$AAMHXZ
	brtrue.s	$LN1@Delete
; Line 493
	ldarg.0				; this$
	ldc.i.0		0		; i32 0x0
	stfld		?WordID@WDMean@WDDatas@@3HA
; Line 494
	ldarg.0				; this$
	ldc.i.0		0		; i32 0x0
	stfld		?MeanNo@WDMean@WDDatas@@3HA
; Line 495
	ldarg.0				; this$
	ldfld		?Mean@WDMean@WDDatas@@3P$AAVString@System@@$AA
	ldnull		0		; i32 0x0
	call		??9String@System@@$$FSM_NP$AAV01@0@Z
	brfalse.s	$LN2@Delete
; Line 498
	ldarg.0				; this$
	ldnull		0		; i32 0x0
	stfld		?Mean@WDMean@WDDatas@@3P$AAVString@System@@$AA
$LN2@Delete:
; Line 500
	ldarg.0				; this$
	ldfld		?Example@WDMean@WDDatas@@3P$AAVString@System@@$AA
	ldnull		0		; i32 0x0
	call		??9String@System@@$$FSM_NP$AAV01@0@Z
	brfalse.s	$LN1@Delete
; Line 503
	ldarg.0				; this$
	ldnull		0		; i32 0x0
	stfld		?Example@WDMean@WDDatas@@3P$AAVString@System@@$AA
$LN1@Delete:
	leave.s		$LN28@Delete
__catch$?Delete@WDMean@WDDatas@@$$FQ$AAMXH@Z$2:
; Line 507
	imp.push	
	stloc.s		7		; exp$12436
; Line 509
	ldstr		$StringLiteralTok$??_C@_1BM@DLGIPIP@0?G0?$PM0?$LPRJ?$JGd0kY1eW0W0?$HO0W0_0?$AC?$AA?$AA@
	ldloc.s		7		; exp$12436
	newobj		??0WDDatasException@WDDatas@@$$FQ$AAM@P$AAVString@System@@P$AAVException@3@@Z
	stloc.2				; tmpWDDataException$12437
; Line 510
	ldloc.2				; tmpWDDataException$12437
	ldc.i4		10205		; i32 0x27dd
	stfld		?ErrorCode@WDDatasException@WDDatas@@3HA
; Line 511
	ldloc.2				; tmpWDDataException$12437
	ldc.i.4		4		; i32 0x4
	stfld		?ErrorCode2@WDDatasException@WDDatas@@3HA
; Line 512
	ldloc.2				; tmpWDDataException$12437
	throw.u2	
$LN30@Delete:
	leave.s		$LN28@Delete
$LN10@Delete:
; Line 452
	ldstr		$StringLiteralTok$??_C@_1CA@KIOCOIAC@0?$KE0?s0?G0?C0?$KP0?$LJ0nc?$AH?$FL?$JK0LN?$ANkc0g0Y0?$AC?$AA?$AA@
	newobj		??0WDDatasException@WDDatas@@$$FQ$AAM@P$AAVString@System@@@Z
	stloc.1				; tmpWDDataException$12414
; Line 453
	ldloc.1				; tmpWDDataException$12414
	ldc.i4		10205		; i32 0x27dd
	stfld		?ErrorCode@WDDatasException@WDDatas@@3HA
; Line 454
	ldloc.1				; tmpWDDataException$12414
	ldc.i.2		2		; i32 0x2
	stfld		?ErrorCode2@WDDatasException@WDDatas@@3HA
; Line 455
	ldloc.1				; tmpWDDataException$12414
	throw.u2	
$LN28@Delete:
$LN35@Delete:
; Line 516
	ret		
 .end ?Delete@WDMean@WDDatas@@$$FQ$AAMXH@Z		; WDDatas::WDMean::Delete
;	.proc.end.void
; Function compile flags: /Ogtp
	.text
	.comdat	noduplicate, ?RecLength@WDMean@WDDatas@@$$FU$AAMHXZ
.global	?RecLength@WDMean@WDDatas@@$$FU$AAMHXZ		; WDDatas::WDMean::RecLength
?RecLength@WDMean@WDDatas@@$$FU$AAMHXZ:			; WDDatas::WDMean::RecLength
;	.proc.def	D:I()

; Function Header:
; max stack depth = 2
; function size = 8 bytes
; local varsig tk = 0x0 
; Exception Information:
; 0 handlers, each consisting of filtered handlers

;	.formal.mptr 0,"this$" SIG: Optional C Binding Modifier(token:0x4B7DF9).class (token:0x4B7DFB)

;	.proc.beg
; Line 543
	ldarg.0				; this$
	ldc.i.0		0		; i32 0x0
	call		?RecLength@WDMean@WDDatas@@$$FQ$AAMHH@Z
	ret		
 .end ?RecLength@WDMean@WDDatas@@$$FU$AAMHXZ		; WDDatas::WDMean::RecLength
;	.proc.end.i4
.global	
	.bss
.local	$T13397,0
.local	,4
; Function compile flags: /Ogtp
	.text
	.comdat	noduplicate, ?addMeanGrp@WDMean@WDDatas@@$$FA$AAMHP$AAUWDMeanGroup@2@@Z
.global	?addMeanGrp@WDMean@WDDatas@@$$FA$AAMHP$AAUWDMeanGroup@2@@Z ; WDDatas::WDMean::addMeanGrp
?addMeanGrp@WDMean@WDDatas@@$$FA$AAMHP$AAUWDMeanGroup@2@@Z: ; WDDatas::WDMean::addMeanGrp
;	.proc.def	D:I(P)

; Function Header:
; max stack depth = 3
; function size = 91 bytes
; local varsig tk = 0x1100001F 
; Exception Information:
; 0 handlers, each consisting of filtered handlers

;	.formal.mptr 0,"this$" SIG: Optional C Binding Modifier(token:0x4B7DF9).class (token:0x4B7DFB)
;	.formal.mptr 1,"inMeanGrp$" SIG: class (token:0x4A92F5)
;	.local.mptr 0,"tmpMeanGrp$12854" SIG: class (token:0x4A92F5)
;	.local.mb16  1,"$S2$12849" SIG: genericInst (token:0x1000014) <class (token:0x4B8AE1)>

;	.proc.beg
; Line 1153
	ldarg.1				; inMeanGrp$
	brtrue.s	$LN4@addMeanGrp
; Line 1155
	ldc.i.-1	-1		; i32 0xffffffff
	ret		
$LN4@addMeanGrp:
; Line 1159
	ldarg.0				; this$
	ldfld		?MeanGroup@WDMean@WDDatas@@3P$AAV?$List@P$AAUWDMeanGroup@WDDatas@@@Generic@Collections@System@@$AA
	call		?GetEnumerator@?$List@P$AAUWDMeanGroup@WDDatas@@@Generic@Collections@System@@$$FQ$AAM?AVEnumerator@1234@XZ
	stloc.1				; $S2$12849
	ldloca.s	1		; $S2$12849
	call		?MoveNext@Enumerator@?$List@P$AAUWDMeanGroup@WDDatas@@@Generic@Collections@System@@$$FU$CAM_NXZ
	brfalse.s	$LN2@addMeanGrp
$LL3@addMeanGrp:
	ldloca.s	1		; $S2$12849
	call		?get@Current@Enumerator@?$List@P$AAUWDMeanGroup@WDDatas@@@Generic@Collections@System@@$$FU$CAMP$AAUWDMeanGroup@WDDatas@@XZ
	stloc.0				; tmpMeanGrp$12854
; Line 1161
	ldsfld		?WDMeanGrpComp@WDMean@WDDatas@@0P$AAVWDMeanGrpComparer@2@$AA
	ldloc.0				; tmpMeanGrp$12854
	ldarg.1				; inMeanGrp$
	callvirt	?Compare@WDMeanGrpComparer@WDDatas@@$$FU$AAMHP$AAUWDMeanGroup@2@0@Z
	brfalse.s	$LN8@addMeanGrp
; Line 1159
	ldloca.s	1		; $S2$12849
	call		?MoveNext@Enumerator@?$List@P$AAUWDMeanGroup@WDDatas@@@Generic@Collections@System@@$$FU$CAM_NXZ
	brtrue.s	$LL3@addMeanGrp
; Line 1161
	br.s		$LN2@addMeanGrp
$LN8@addMeanGrp:
; Line 1163
	ldc.i.-1	-1		; i32 0xffffffff
	ret		
$LN2@addMeanGrp:
; Line 1168
	ldarg.0				; this$
	ldfld		?MeanGroup@WDMean@WDDatas@@3P$AAV?$List@P$AAUWDMeanGroup@WDDatas@@@Generic@Collections@System@@$AA
	ldarg.1				; inMeanGrp$
	callvirt	?Add@?$List@P$AAUWDMeanGroup@WDDatas@@@Generic@Collections@System@@$$FU$AAMXP$AAUWDMeanGroup@WDDatas@@@Z
; Line 1170
	ldarg.0				; this$
	ldfld		?MeanGroup@WDMean@WDDatas@@3P$AAV?$List@P$AAUWDMeanGroup@WDDatas@@@Generic@Collections@System@@$AA
	ldsfld		?WDMeanGrpComp@WDMean@WDDatas@@0P$AAVWDMeanGrpComparer@2@$AA
	call		?Sort@?$List@P$AAUWDMeanGroup@WDDatas@@@Generic@Collections@System@@$$FQ$AAMXP$AAU?$IComparer@P$AAUWDMeanGroup@WDDatas@@@234@@Z
; Line 1173
	ldc.i.0		0		; i32 0x0
	ret		
 .end ?addMeanGrp@WDMean@WDDatas@@$$FA$AAMHP$AAUWDMeanGroup@2@@Z ; WDDatas::WDMean::addMeanGrp
;	.proc.end.i4
	.bss
.local	$T13420,0
.local	$StringLiteralTok$??_C@_1CO@ODMGDHEB@0?G0?$PM0?$LP0?l0?$LD0?$PM0?I?$IK?9?$FL?$JKfB0k0?$KI0?i0?$PM0Lvzu?$BP0W0?$HO0W0_0?$AC?$AA?$AA@,4
.local	$StringLiteralTok$??_C@_1BO@BAJKGKCH@0?G0?$PM0?$LP?$JFw0Lkc0W0O0B0?$IK0?$HO0?$FL0?$JD0?$AC?$AA?$AA@,4
.local	$StringLiteralTok$??_C@_1CE@HKPMDCGN@?$IKr_S0Y0?$ILa?$APTs0?G0?$PM0?$LP0g0o0B0?$IK0?$HO0?$FL0?$JD0?$AC?$AA?$AA@,4
.local	$StringLiteralTok$??_C@_1CG@BHOEGJEO@0?$LD0?T0?$PMQC0?G0?$PM0?$LP?$JFw0Lkc0W0O0B0?$IK0?$HO0?$FL0?$JD0?$AC?$AA?$AA@,4
.local	$StringLiteralTok$??_C@_1CK@KAGEDLKC@QeR?$JL0?G0?$PM0?$LP0?l0?$LD0?$PM0?I0L?$IK?9?$FL?$JK0U0?$IM0f0D0?$HO0?$FL0?$JD0?$AC?$AA?$AA@,4
; Function compile flags: /Ogtp
	.text
	.comdat	noduplicate, ?setRecord@WDMean@WDDatas@@$$FU$AAMXP$AAVDataRecord@FJIsam@@@Z
.global	?setRecord@WDMean@WDDatas@@$$FU$AAMXP$AAVDataRecord@FJIsam@@@Z ; WDDatas::WDMean::setRecord
?setRecord@WDMean@WDDatas@@$$FU$AAMXP$AAVDataRecord@FJIsam@@@Z: ; WDDatas::WDMean::setRecord
;	.proc.def	D:V(P)

; Function Header:
; max stack depth = 5
; function size = 588 bytes
; local varsig tk = 0x11000020 
; Exception Information:
; 2 handlers, each consisting of filtered handlers

;	.formal.mptr 0,"this$" SIG: Optional C Binding Modifier(token:0x4B7DF9).class (token:0x4B7DFB)
;	.formal.mptr 1,"inRec$" SIG: class (token:0x4A9859)
;	.local.mptr 3,"tmpWDDataException$12192" SIG: class (token:0x4A97C5)
;	.local.mptr 14,"exp$12191" SIG: class (token:0x4A9739)
;	.local.mptr 4,"tmpWDDataException$12185" SIG: class (token:0x4A97C5)
;	.local.mptr 5,"tmpWDDataException$12180" SIG: class (token:0x4A97C5)
;	.local.i4 9,"$T13417" SIG: szarray (token:0x442F09)
;	.local.i4 10,"$T13416" SIG: szarray (token:0x442E8D)
;	.local.mptr 2,"tmpWDMeanGroup$" SIG: class (token:0x4A92F5)
;	.local.mptr 6,"tmpWDDataException$12169" SIG: class (token:0x4A97C5)
;	.local.i4 11,"tmpMeanNo$" SIG: i4
;	.local.i4 12,"tmpWordID$" SIG: i4
;	.local.i4 1,"tmpPos$" SIG: i4
;	.local.mptr 7,"tmpWDDataException$12164" SIG: class (token:0x4A97C5)
;	.local.mptr 0,"tmpDat$" SIG: szarray (token:0x4BA511)
;	.local.mptr 8,"tmpWDDataException$12159" SIG: class (token:0x4A97C5)

;	.proc.beg
; Line 234
	ldarg.1				; inRec$
	brtrue.s	$LN13@setRecord
; Line 237
	ldstr		$StringLiteralTok$??_C@_1CK@KAGEDLKC@QeR?$JL0?G0?$PM0?$LP0?l0?$LD0?$PM0?I0L?$IK?9?$FL?$JK0U0?$IM0f0D0?$HO0?$FL0?$JD0?$AC?$AA?$AA@
	newobj		??0WDDatasException@WDDatas@@$$FQ$AAM@P$AAVString@System@@@Z
	stloc.s		8		; tmpWDDataException$12159
; Line 238
	ldloc.s		8		; tmpWDDataException$12159
	ldc.i4		10203		; i32 0x27db
	stfld		?ErrorCode@WDDatasException@WDDatas@@3HA
; Line 239
	ldloc.s		8		; tmpWDDataException$12159
	ldc.i.1		1		; i32 0x1
	stfld		?ErrorCode2@WDDatasException@WDDatas@@3HA
; Line 240
	ldloc.s		8		; tmpWDDataException$12159
	throw.u2	
$LN13@setRecord:
	nop		
$LN30@setRecord:
$LN31@setRecord:
; Line 245
	ldarg.1				; inRec$
	ldnull		0		; i32 0x0
	call		?getData@DataRecord@FJIsam@@$$FQ$AAMP$01AEP$01AE@Z
	stloc.0				; tmpDat$
; Line 248
	ldloc.0				; tmpDat$
	ldlen		
	stloc.s		13		
	ldloc.s		13		
	ldc.i4		1000		; i32 0x3e8
	beq.s		$LN11@setRecord
	ldloc.s		13		
	ldc.i4.s	20		; i32 0x14
	beq.s		$LN11@setRecord
; Line 251
	ldstr		$StringLiteralTok$??_C@_1CG@BHOEGJEO@0?$LD0?T0?$PMQC0?G0?$PM0?$LP?$JFw0Lkc0W0O0B0?$IK0?$HO0?$FL0?$JD0?$AC?$AA?$AA@
	newobj		??0WDDatasException@WDDatas@@$$FQ$AAM@P$AAVString@System@@@Z
	stloc.s		7		; tmpWDDataException$12164
; Line 252
	ldloc.s		7		; tmpWDDataException$12164
	ldc.i4		10203		; i32 0x27db
	stfld		?ErrorCode@WDDatasException@WDDatas@@3HA
; Line 253
	ldloc.s		7		; tmpWDDataException$12164
	ldc.i.2		2		; i32 0x2
	stfld		?ErrorCode2@WDDatasException@WDDatas@@3HA
; Line 254
	ldloc.s		7		; tmpWDDataException$12164
	throw.u2	
$LN11@setRecord:
; Line 257
	ldc.i.0		0		; i32 0x0
	stloc.1				; tmpPos$
; Line 260
	ldloc.0				; tmpDat$
	ldc.i.0		0		; i32 0x0
	call		?ArrayToInt32@FJIFuncs@FJIsam@@$$FSMHP$01AEH@Z
	stloc.s		12		; tmpWordID$
; Line 261
	ldc.i.4		4		; i32 0x4
	stloc.1				; tmpPos$
; Line 263
	ldloc.0				; tmpDat$
	ldc.i.4		4		; i32 0x4
	call		?ArrayToInt32@FJIFuncs@FJIsam@@$$FSMHP$01AEH@Z
	stloc.s		11		; tmpMeanNo$
; Line 264
	ldc.i.8		8		; i32 0x8
	stloc.1				; tmpPos$
; Line 267
	ldarg.0				; this$
	ldfld		?MeanGroup@WDMean@WDDatas@@3P$AAV?$List@P$AAUWDMeanGroup@WDDatas@@@Generic@Collections@System@@$AA
	callvirt	?get@Count@?$List@P$AAUWDMeanGroup@WDDatas@@@Generic@Collections@System@@$$FU$AAMHXZ
	brfalse.s	$LN10@setRecord
	ldloc.s		12		; tmpWordID$
	ldarg.0				; this$
	ldfld		?WordID@WDMean@WDDatas@@3HA
	bne.un.s	$LN9@setRecord
	ldloc.s		11		; tmpMeanNo$
	ldarg.0				; this$
	ldfld		?MeanNo@WDMean@WDDatas@@3HA
	beq.s		$LN10@setRecord
$LN9@setRecord:
; Line 270
	ldstr		$StringLiteralTok$??_C@_1CE@HKPMDCGN@?$IKr_S0Y0?$ILa?$APTs0?G0?$PM0?$LP0g0o0B0?$IK0?$HO0?$FL0?$JD0?$AC?$AA?$AA@
	newobj		??0WDDatasException@WDDatas@@$$FQ$AAM@P$AAVString@System@@@Z
	stloc.s		6		; tmpWDDataException$12169
; Line 271
	ldloc.s		6		; tmpWDDataException$12169
	ldc.i4		10203		; i32 0x27db
	stfld		?ErrorCode@WDDatasException@WDDatas@@3HA
; Line 272
	ldloc.s		6		; tmpWDDataException$12169
	ldc.i.3		3		; i32 0x3
	stfld		?ErrorCode2@WDDatasException@WDDatas@@3HA
; Line 273
	ldloc.s		6		; tmpWDDataException$12169
	throw.u2	
$LN10@setRecord:
; Line 276
	ldarg.0				; this$
	ldloc.s		12		; tmpWordID$
	stfld		?WordID@WDMean@WDDatas@@3HA
; Line 277
	ldarg.0				; this$
	ldloc.s		11		; tmpMeanNo$
	stfld		?MeanNo@WDMean@WDDatas@@3HA
; Line 280
	newobj		??0WDMeanGroup@WDDatas@@$$FQ$AAM@XZ
	stloc.2				; tmpWDMeanGroup$
; Line 283
	ldloc.2				; tmpWDMeanGroup$
	ldloc.0				; tmpDat$
	ldc.i.8		8		; i32 0x8
	call		?ArrayToInt32@FJIFuncs@FJIsam@@$$FSMHP$01AEH@Z
	stfld		?MeanFlg@WDMeanGroup@WDDatas@@3HA
; Line 284
	ldc.i4.s	12		; i32 0xc
	stloc.1				; tmpPos$
; Line 287
	ldc.i.2		2		; i32 0x2
	newarr		$TypeTok$110DD6FC$
	stloc.s		10		; $T13416
	ldloc.2				; tmpWDMeanGroup$
	ldloc.s		10		; $T13416
	stfld		?GroupGt@WDMeanGroup@WDDatas@@3P$01AEA
; Line 288
	ldloc.0				; tmpDat$
	ldc.i4.s	12		; i32 0xc
	ldloc.s		10		; $T13416
	ldc.i.0		0		; i32 0x0
	ldc.i.2		2		; i32 0x2
	call		?BlockCopy@Buffer@System@@$$FSMXP$AAVArray@2@H0HH@Z
; Line 289
	ldc.i4.s	14		; i32 0xe
	stloc.1				; tmpPos$
; Line 291
	ldc.i.2		2		; i32 0x2
	newarr		$TypeTok$110DD6FC$
	stloc.s		9		; $T13417
	ldloc.2				; tmpWDMeanGroup$
	ldloc.s		9		; $T13417
	stfld		?GroupLt@WDMeanGroup@WDDatas@@3P$01AEA
; Line 292
	ldloc.0				; tmpDat$
	ldc.i4.s	14		; i32 0xe
	ldloc.s		9		; $T13417
	ldc.i.0		0		; i32 0x0
	ldc.i.2		2		; i32 0x2
	call		?BlockCopy@Buffer@System@@$$FSMXP$AAVArray@2@H0HH@Z
; Line 293
	ldc.i4.s	16		; i32 0x10
	stloc.1				; tmpPos$
; Line 295
	ldloc.2				; tmpWDMeanGroup$
	ldloc.0				; tmpDat$
	ldc.i4.s	16		; i32 0x10
	call		?ArrayToInt32@FJIFuncs@FJIsam@@$$FSMHP$01AEH@Z
	stfld		?GroupRank@WDMeanGroup@WDDatas@@3HA
; Line 296
	ldc.i4.s	20		; i32 0x14
	stloc.1				; tmpPos$
; Line 298
	ldarg.0				; this$
	ldloc.2				; tmpWDMeanGroup$
	call		?addMeanGrp@WDMean@WDDatas@@$$FA$AAMHP$AAUWDMeanGroup@2@@Z
	brtrue		$LN5@setRecord
; Line 300
	ldloc.2				; tmpWDMeanGroup$
	ldarg.1				; inRec$
	stfld		?DataRec@WDMeanGroup@WDDatas@@3P$AAVDataRecord@FJIsam@@$AA
; Line 301
	ldloc.2				; tmpWDMeanGroup$
	ldfld		?MeanFlg@WDMeanGroup@WDDatas@@3HA
	ldc.i.0		0		; i32 0x0
	ble.s		$LN7@setRecord
; Line 303
	ldarg.1				; inRec$
	call		?getDataLength@DataRecord@FJIsam@@$$FQ$AAMHXZ
	ldc.i4.s	20		; i32 0x14
	beq		$LN5@setRecord
; Line 306
	ldstr		$StringLiteralTok$??_C@_1BO@BAJKGKCH@0?G0?$PM0?$LP?$JFw0Lkc0W0O0B0?$IK0?$HO0?$FL0?$JD0?$AC?$AA?$AA@
	newobj		??0WDDatasException@WDDatas@@$$FQ$AAM@P$AAVString@System@@@Z
	stloc.s		5		; tmpWDDataException$12180
; Line 307
	ldloc.s		5		; tmpWDDataException$12180
	ldc.i4		10203		; i32 0x27db
	stfld		?ErrorCode@WDDatasException@WDDatas@@3HA
; Line 308
	ldloc.s		5		; tmpWDDataException$12180
	ldc.i.4		4		; i32 0x4
	stfld		?ErrorCode2@WDDatasException@WDDatas@@3HA
; Line 309
	ldloc.s		5		; tmpWDDataException$12180
	throw.u2	
$LN7@setRecord:
; Line 312
	ldarg.1				; inRec$
	call		?getDataLength@DataRecord@FJIsam@@$$FQ$AAMHXZ
	ldc.i4		1000		; i32 0x3e8
	beq.s		$LN4@setRecord
; Line 315
	ldstr		$StringLiteralTok$??_C@_1BO@BAJKGKCH@0?G0?$PM0?$LP?$JFw0Lkc0W0O0B0?$IK0?$HO0?$FL0?$JD0?$AC?$AA?$AA@
	newobj		??0WDDatasException@WDDatas@@$$FQ$AAM@P$AAVString@System@@@Z
	stloc.s		4		; tmpWDDataException$12185
; Line 316
	ldloc.s		4		; tmpWDDataException$12185
	ldc.i4		10203		; i32 0x27db
	stfld		?ErrorCode@WDDatasException@WDDatas@@3HA
; Line 317
	ldloc.s		4		; tmpWDDataException$12185
	ldc.i.5		5		; i32 0x5
	stfld		?ErrorCode2@WDDatasException@WDDatas@@3HA
; Line 318
	ldloc.s		4		; tmpWDDataException$12185
	throw.u2	
$LN4@setRecord:
; Line 322
	ldarg.0				; this$
	ldloc.0				; tmpDat$
	ldc.i4.s	20		; i32 0x14
	ldelem.u1	
	stfld		?Speech@WDMean@WDDatas@@3EA
; Line 323
	ldc.i4.s	21		; i32 0x15
	stloc.1				; tmpPos$
; Line 325
	ldarg.0				; this$
	ldloc.0				; tmpDat$
	ldc.i4.s	21		; i32 0x15
	call		?ArrayToInt32@FJIFuncs@FJIsam@@$$FSMHP$01AEH@Z
	stfld		?Rank@WDMean@WDDatas@@3HA
; Line 326
	ldc.i4.s	25		; i32 0x19
	stloc.1				; tmpPos$
; Line 328
	ldarg.0				; this$
	ldfld		?Mean@WDMean@WDDatas@@3P$AAVString@System@@$AA
	ldnull		0		; i32 0x0
	call		??9String@System@@$$FSM_NP$AAV01@0@Z
	pop		
; Line 329
	ldarg.0				; this$
	ldloc.0				; tmpDat$
	ldc.i4.s	25		; i32 0x19
	ldc.i4		500		; i32 0x1f4
	call		?ArrayToString@FJIFuncs@FJIsam@@$$FSMP$AAVString@System@@P$01AEHH@Z
	stfld		?Mean@WDMean@WDDatas@@3P$AAVString@System@@$AA
; Line 330
	ldc.i4		525		; i32 0x20d
	stloc.1				; tmpPos$
; Line 332
	ldarg.0				; this$
	ldfld		?Example@WDMean@WDDatas@@3P$AAVString@System@@$AA
	ldnull		0		; i32 0x0
	call		??9String@System@@$$FSM_NP$AAV01@0@Z
	pop		
; Line 333
	ldarg.0				; this$
	ldloc.0				; tmpDat$
	ldc.i4		525		; i32 0x20d
	ldc.i4		400		; i32 0x190
	call		?ArrayToString@FJIFuncs@FJIsam@@$$FSMP$AAVString@System@@P$01AEHH@Z
	stfld		?Example@WDMean@WDDatas@@3P$AAVString@System@@$AA
; Line 334
	ldc.i4		925		; i32 0x39d
	stloc.1				; tmpPos$
$LN5@setRecord:
	leave.s		$LN21@setRecord
__catch$?setRecord@WDMean@WDDatas@@$$FU$AAMXP$AAVDataRecord@FJIsam@@@Z$0:
; Line 338
	imp.push	
	stloc.s		14		; exp$12191
; Line 340
	ldstr		$StringLiteralTok$??_C@_1CO@ODMGDHEB@0?G0?$PM0?$LP0?l0?$LD0?$PM0?I?$IK?9?$FL?$JKfB0k0?$KI0?i0?$PM0Lvzu?$BP0W0?$HO0W0_0?$AC?$AA?$AA@
	ldloc.s		14		; exp$12191
	newobj		??0WDDatasException@WDDatas@@$$FQ$AAM@P$AAVString@System@@P$AAVException@3@@Z
	stloc.3				; tmpWDDataException$12192
; Line 341
	ldloc.3				; tmpWDDataException$12192
	ldc.i4		10203		; i32 0x27db
	stfld		?ErrorCode@WDDatasException@WDDatas@@3HA
; Line 342
	ldloc.3				; tmpWDDataException$12192
	ldc.i.6		6		; i32 0x6
	stfld		?ErrorCode2@WDDatasException@WDDatas@@3HA
; Line 343
	ldloc.3				; tmpWDDataException$12192
	throw.u2	
$LN23@setRecord:
	leave.s		$LN21@setRecord
$LN22@setRecord:
; Line 345
	leave.s		__tryend$?setRecord@WDMean@WDDatas@@$$FU$AAMXP$AAVDataRecord@FJIsam@@@Z$2
$LN21@setRecord:
	leave.s		__tryend$?setRecord@WDMean@WDDatas@@$$FU$AAMXP$AAVDataRecord@FJIsam@@@Z$2
__catch$?setRecord@WDMean@WDDatas@@$$FU$AAMXP$AAVDataRecord@FJIsam@@@Z$1:
; Line 347
	endfinally	
__tryend$?setRecord@WDMean@WDDatas@@$$FU$AAMXP$AAVDataRecord@FJIsam@@@Z$2:
$LN29@setRecord:
; Line 349
	ret		
 .end ?setRecord@WDMean@WDDatas@@$$FU$AAMXP$AAVDataRecord@FJIsam@@@Z ; WDDatas::WDMean::setRecord
;	.proc.end.void
; Function compile flags: /Ogtp
	.text
	.comdat	noduplicate, ?Delete@WDMean@WDDatas@@$$FU$AAMXXZ
.global	?Delete@WDMean@WDDatas@@$$FU$AAMXXZ		; WDDatas::WDMean::Delete
?Delete@WDMean@WDDatas@@$$FU$AAMXXZ:			; WDDatas::WDMean::Delete
;	.proc.def	D:V()

; Function Header:
; max stack depth = 2
; function size = 8 bytes
; local varsig tk = 0x0 
; Exception Information:
; 0 handlers, each consisting of filtered handlers

;	.formal.mptr 0,"this$" SIG: Optional C Binding Modifier(token:0x4B7DF9).class (token:0x4B7DFB)

;	.proc.beg
; Line 431
	ldarg.0				; this$
	ldc.i.0		0		; i32 0x0
	call		?Delete@WDMean@WDDatas@@$$FQ$AAMXH@Z
; Line 432
	ret		
 .end ?Delete@WDMean@WDDatas@@$$FU$AAMXXZ		; WDDatas::WDMean::Delete
;	.proc.end.void
	.bss
.local	$T13440,0
.local	$StringLiteralTok$??_C@_1CE@BACADKG@R?$AG?$JI?$FO?$IK?9?$FL?$JKN?90k0?$KI0?i0?$PM0Lvzu?$BP0W0?$HO0W0_0?$AC?$AA?$AA@,4
.local	$StringLiteralTok$??_C@_1BG@CKOJIBBF@R?$AG?$JI?$FO?$JI?$AGOM0LN?$ANkc0g0Y0?$AC?$AA?$AA@,4
.local	$StringLiteralTok$??_C@_1BG@BDALBMHJ@R?$AG?$JI?$FO?2?$AP0Lw?m0Y0N0?$HO0Y0?$AC?$AA?$AA@,4
.local	$StringLiteralTok$??_C@_1BG@HBFLIOLG@R?$AG?$JI?$FO?2?$AP0Lg?$CK?$IK?9?$FL?$JK0g0Y0?$AC?$AA?$AA@,4
.local	$StringLiteralTok$??_C@_1BG@KNLCOGMJ@R?$AG?$JI?$FOY?80Lw?m0Y0N0?$HO0Y0?$AC?$AA?$AA@,4
.local	$StringLiteralTok$??_C@_1BG@MPOCHEAG@R?$AG?$JI?$FOY?80Lg?$CK?$IK?9?$FL?$JK0g0Y0?$AC?$AA?$AA@,4
.local	$StringLiteralTok$??_C@_1BI@PBIIFGAG@a?$APTs0?U0?i0?$LA0LN?$ANkc0g0Y0?$AC?$AA?$AA@,4
; Function compile flags: /Ogtp
	.text
	.comdat	noduplicate, ?setGroup@WDMean@WDDatas@@$$FQ$AAMXHP$01AE0H@Z
.global	?setGroup@WDMean@WDDatas@@$$FQ$AAMXHP$01AE0H@Z	; WDDatas::WDMean::setGroup
?setGroup@WDMean@WDDatas@@$$FQ$AAMXHP$01AE0H@Z:		; WDDatas::WDMean::setGroup
;	.proc.def	D:V(IPPI)

; Function Header:
; max stack depth = 5
; function size = 358 bytes
; local varsig tk = 0x11000021 
; Exception Information:
; 1 handlers, each consisting of filtered handlers

;	.formal.mptr 0,"this$" SIG: Optional C Binding Modifier(token:0x4B7DF9).class (token:0x4B7DFB)
;	.formal.i4 4,"inGroupRank$" SIG: i4
;	.formal.mptr 3,"inGroupLt$" SIG: szarray (token:0x4BA511)
;	.formal.mptr 2,"inGroupGt$" SIG: szarray (token:0x4BA511)
;	.formal.i4 1,"inMeanFlg$" SIG: i4
;	.local.mptr 1,"tmpWDDataException$12767" SIG: class (token:0x4A97C5)
;	.local.mptr 10,"exp$12766" SIG: class (token:0x4A9739)
;	.local.i4 8,"$T13438" SIG: szarray (token:0x4CD389)
;	.local.i4 9,"$T13437" SIG: szarray (token:0x4F3A1D)
;	.local.mptr 0,"tmpWDMeanGroup$" SIG: class (token:0x4A92F5)
;	.local.mptr 2,"tmpWDDataException$12757" SIG: class (token:0x4A97C5)
;	.local.mptr 3,"tmpWDDataException$12753" SIG: class (token:0x4A97C5)
;	.local.mptr 4,"tmpWDDataException$12749" SIG: class (token:0x4A97C5)
;	.local.mptr 5,"tmpWDDataException$12745" SIG: class (token:0x4A97C5)
;	.local.mptr 6,"tmpWDDataException$12741" SIG: class (token:0x4A97C5)
;	.local.mptr 7,"tmpWDDataException$12737" SIG: class (token:0x4A97C5)

;	.proc.beg
; Line 910
	ldarg.1				; inMeanFlg$
	ldc.i.0		0		; i32 0x0
	bge.s		$LN7@setGroup
; Line 913
	ldstr		$StringLiteralTok$??_C@_1BI@PBIIFGAG@a?$APTs0?U0?i0?$LA0LN?$ANkc0g0Y0?$AC?$AA?$AA@
	newobj		??0WDDatasException@WDDatas@@$$FQ$AAM@P$AAVString@System@@@Z
	stloc.s		7		; tmpWDDataException$12737
; Line 914
	ldloc.s		7		; tmpWDDataException$12737
	ldc.i4		10215		; i32 0x27e7
	stfld		?ErrorCode@WDDatasException@WDDatas@@3HA
; Line 915
	ldloc.s		7		; tmpWDDataException$12737
	ldc.i.1		1		; i32 0x1
	stfld		?ErrorCode2@WDDatasException@WDDatas@@3HA
; Line 916
	ldloc.s		7		; tmpWDDataException$12737
	throw.u2	
$LN7@setGroup:
; Line 918
	ldarg.2				; inGroupGt$
	brtrue.s	$LN6@setGroup
; Line 921
	ldstr		$StringLiteralTok$??_C@_1BG@MPOCHEAG@R?$AG?$JI?$FOY?80Lg?$CK?$IK?9?$FL?$JK0g0Y0?$AC?$AA?$AA@
	newobj		??0WDDatasException@WDDatas@@$$FQ$AAM@P$AAVString@System@@@Z
	stloc.s		6		; tmpWDDataException$12741
; Line 922
	ldloc.s		6		; tmpWDDataException$12741
	ldc.i4		10215		; i32 0x27e7
	stfld		?ErrorCode@WDDatasException@WDDatas@@3HA
; Line 923
	ldloc.s		6		; tmpWDDataException$12741
	ldc.i.2		2		; i32 0x2
	stfld		?ErrorCode2@WDDatasException@WDDatas@@3HA
; Line 924
	ldloc.s		6		; tmpWDDataException$12741
	throw.u2	
$LN6@setGroup:
; Line 926
	ldarg.2				; inGroupGt$
	ldlen		
	ldc.i.2		2		; i32 0x2
	bge.s		$LN5@setGroup
; Line 929
	ldstr		$StringLiteralTok$??_C@_1BG@KNLCOGMJ@R?$AG?$JI?$FOY?80Lw?m0Y0N0?$HO0Y0?$AC?$AA?$AA@
	newobj		??0WDDatasException@WDDatas@@$$FQ$AAM@P$AAVString@System@@@Z
	stloc.s		5		; tmpWDDataException$12745
; Line 930
	ldloc.s		5		; tmpWDDataException$12745
	ldc.i4		10215		; i32 0x27e7
	stfld		?ErrorCode@WDDatasException@WDDatas@@3HA
; Line 931
	ldloc.s		5		; tmpWDDataException$12745
	ldc.i.3		3		; i32 0x3
	stfld		?ErrorCode2@WDDatasException@WDDatas@@3HA
; Line 932
	ldloc.s		5		; tmpWDDataException$12745
	throw.u2	
$LN5@setGroup:
; Line 934
	ldarg.3				; inGroupLt$
	brtrue.s	$LN4@setGroup
; Line 937
	ldstr		$StringLiteralTok$??_C@_1BG@HBFLIOLG@R?$AG?$JI?$FO?2?$AP0Lg?$CK?$IK?9?$FL?$JK0g0Y0?$AC?$AA?$AA@
	newobj		??0WDDatasException@WDDatas@@$$FQ$AAM@P$AAVString@System@@@Z
	stloc.s		4		; tmpWDDataException$12749
; Line 938
	ldloc.s		4		; tmpWDDataException$12749
	ldc.i4		10215		; i32 0x27e7
	stfld		?ErrorCode@WDDatasException@WDDatas@@3HA
; Line 939
	ldloc.s		4		; tmpWDDataException$12749
	ldc.i.4		4		; i32 0x4
	stfld		?ErrorCode2@WDDatasException@WDDatas@@3HA
; Line 940
	ldloc.s		4		; tmpWDDataException$12749
	throw.u2	
$LN4@setGroup:
; Line 942
	ldarg.3				; inGroupLt$
	ldlen		
	ldc.i.2		2		; i32 0x2
	bge.s		$LN3@setGroup
; Line 945
	ldstr		$StringLiteralTok$??_C@_1BG@BDALBMHJ@R?$AG?$JI?$FO?2?$AP0Lw?m0Y0N0?$HO0Y0?$AC?$AA?$AA@
	newobj		??0WDDatasException@WDDatas@@$$FQ$AAM@P$AAVString@System@@@Z
	stloc.3				; tmpWDDataException$12753
; Line 946
	ldloc.3				; tmpWDDataException$12753
	ldc.i4		10215		; i32 0x27e7
	stfld		?ErrorCode@WDDatasException@WDDatas@@3HA
; Line 947
	ldloc.3				; tmpWDDataException$12753
	ldc.i.5		5		; i32 0x5
	stfld		?ErrorCode2@WDDatasException@WDDatas@@3HA
; Line 948
	ldloc.3				; tmpWDDataException$12753
	throw.u2	
$LN3@setGroup:
; Line 951
	ldarg.s		4		; inGroupRank$
	ldc.i.0		0		; i32 0x0
	bge.s		$LN2@setGroup
; Line 954
	ldstr		$StringLiteralTok$??_C@_1BG@CKOJIBBF@R?$AG?$JI?$FO?$JI?$AGOM0LN?$ANkc0g0Y0?$AC?$AA?$AA@
	newobj		??0WDDatasException@WDDatas@@$$FQ$AAM@P$AAVString@System@@@Z
	stloc.2				; tmpWDDataException$12757
; Line 955
	ldloc.2				; tmpWDDataException$12757
	ldc.i4		10215		; i32 0x27e7
	stfld		?ErrorCode@WDDatasException@WDDatas@@3HA
; Line 956
	ldloc.2				; tmpWDDataException$12757
	ldc.i.6		6		; i32 0x6
	stfld		?ErrorCode2@WDDatasException@WDDatas@@3HA
; Line 957
	ldloc.2				; tmpWDDataException$12757
	throw.u2	
$LN2@setGroup:
	nop		
$LN19@setGroup:
; Line 963
	newobj		??0WDMeanGroup@WDDatas@@$$FQ$AAM@XZ
	stloc.0				; tmpWDMeanGroup$
; Line 964
	ldloc.0				; tmpWDMeanGroup$
	ldarg.1				; inMeanFlg$
	stfld		?MeanFlg@WDMeanGroup@WDDatas@@3HA
; Line 968
	ldc.i.2		2		; i32 0x2
	newarr		$TypeTok$110DD6FC$
	stloc.s		9		; $T13437
	ldloc.0				; tmpWDMeanGroup$
	ldloc.s		9		; $T13437
	stfld		?GroupGt@WDMeanGroup@WDDatas@@3P$01AEA
; Line 969
	ldarg.2				; inGroupGt$
	ldc.i.0		0		; i32 0x0
	ldloc.s		9		; $T13437
	ldc.i.0		0		; i32 0x0
	ldc.i.2		2		; i32 0x2
	call		?BlockCopy@Buffer@System@@$$FSMXP$AAVArray@2@H0HH@Z
; Line 971
	ldc.i.2		2		; i32 0x2
	newarr		$TypeTok$110DD6FC$
	stloc.s		8		; $T13438
	ldloc.0				; tmpWDMeanGroup$
	ldloc.s		8		; $T13438
	stfld		?GroupLt@WDMeanGroup@WDDatas@@3P$01AEA
; Line 972
	ldarg.3				; inGroupLt$
	ldc.i.0		0		; i32 0x0
	ldloc.s		8		; $T13438
	ldc.i.0		0		; i32 0x0
	ldc.i.2		2		; i32 0x2
	call		?BlockCopy@Buffer@System@@$$FSMXP$AAVArray@2@H0HH@Z
; Line 974
	ldloc.0				; tmpWDMeanGroup$
	ldarg.s		4		; inGroupRank$
	stfld		?GroupRank@WDMeanGroup@WDDatas@@3HA
; Line 976
	ldloc.0				; tmpWDMeanGroup$
	ldnull		0		; i32 0x0
	stfld		?DataRec@WDMeanGroup@WDDatas@@3P$AAVDataRecord@FJIsam@@$AA
; Line 979
	ldarg.0				; this$
	ldloc.0				; tmpWDMeanGroup$
	call		?addMeanGrp@WDMean@WDDatas@@$$FA$AAMHP$AAUWDMeanGroup@2@@Z
	pop		
	leave.s		$LN10@setGroup
__catch$?setGroup@WDMean@WDDatas@@$$FQ$AAMXHP$01AE0H@Z$0:
; Line 981
	imp.push	
	stloc.s		10		; exp$12766
; Line 983
	ldstr		$StringLiteralTok$??_C@_1CE@BACADKG@R?$AG?$JI?$FO?$IK?9?$FL?$JKN?90k0?$KI0?i0?$PM0Lvzu?$BP0W0?$HO0W0_0?$AC?$AA?$AA@
	ldloc.s		10		; exp$12766
	newobj		??0WDDatasException@WDDatas@@$$FQ$AAM@P$AAVString@System@@P$AAVException@3@@Z
	stloc.1				; tmpWDDataException$12767
; Line 984
	ldloc.1				; tmpWDDataException$12767
	ldc.i4		10215		; i32 0x27e7
	stfld		?ErrorCode@WDDatasException@WDDatas@@3HA
; Line 985
	ldloc.1				; tmpWDDataException$12767
	ldc.i.6		6		; i32 0x6
	stfld		?ErrorCode2@WDDatasException@WDDatas@@3HA
; Line 986
	ldloc.1				; tmpWDDataException$12767
	throw.u2	
$LN15@setGroup:
	leave.s		$LN10@setGroup
$LN10@setGroup:
$LN18@setGroup:
; Line 988
	ret		
 .end ?setGroup@WDMean@WDDatas@@$$FQ$AAMXHP$01AE0H@Z	; WDDatas::WDMean::setGroup
;	.proc.end.void
.global	
	.bss
.local	$T13459,0
.local	$StringLiteralTok$??_C@_1BM@GJKJDKMP@0S0na?$APTs0o?$HNPT?$AI0g0M0?$HO0?$FL0?$JD0?$AC?$AA?$AA@,4
.local	$StringLiteralTok$??_C@_1CG@FFFFEIOP@a?$APTs0n?$HNPT?$AIfB0k0?$KI0?i0?$PM0Lvzu?$BP0W0?$HO0W0_0?$AC?$AA?$AA@,4
.local	,4
; Function compile flags: /Ogtp
	.text
	.comdat	noduplicate, ?MergeMean@WDMean@WDDatas@@$$FQ$AAMXP$AAV12@@Z
.global	?MergeMean@WDMean@WDDatas@@$$FQ$AAMXP$AAV12@@Z	; WDDatas::WDMean::MergeMean
?MergeMean@WDMean@WDDatas@@$$FQ$AAMXP$AAV12@@Z:		; WDDatas::WDMean::MergeMean
;	.proc.def	D:V(P)

; Function Header:
; max stack depth = 4
; function size = 241 bytes
; local varsig tk = 0x11000023 
; Exception Information:
; 1 handlers, each consisting of filtered handlers

;	.formal.mptr 0,"this$" SIG: Optional C Binding Modifier(token:0x4B7DF9).class (token:0x4B7DFB)
;	.formal.mptr 1,"inData$" SIG: class (token:0x4B5641)
;	.local.mptr 0,"tmpWDDataException$12825" SIG: class (token:0x4A97C5)
;	.local.mptr 1,"tmpWDDataException$12838" SIG: class (token:0x4A97C5)
;	.local.mptr 3,"exp$12837" SIG: class (token:0x4A9739)
;	.local.mptr 2,"tmpWDMeanGroup$12835" SIG: class (token:0x4A92F5)
;	.local.mb16  4,"$S1$12829" SIG: genericInst (token:0x1000014) <class (token:0x4B8AE1)>

;	.proc.beg
; Line 1094
	ldarg.1				; inData$
	brfalse		$LN1@MergeMean
; Line 1100
	ldarg.0				; this$
	ldfld		?WordID@WDMean@WDDatas@@3HA
	ldarg.1				; inData$
	ldfld		?WordID@WDMean@WDDatas@@3HA
	bne.un		$LN7@MergeMean
	ldarg.0				; this$
	ldfld		?MeanNo@WDMean@WDDatas@@3HA
	ldarg.1				; inData$
	ldfld		?MeanNo@WDMean@WDDatas@@3HA
	bne.un		$LN7@MergeMean
$LN22@MergeMean:
; Line 1112
	ldarg.1				; inData$
	ldfld		?MeanGroup@WDMean@WDDatas@@3P$AAV?$List@P$AAUWDMeanGroup@WDDatas@@@Generic@Collections@System@@$AA
	call		?GetEnumerator@?$List@P$AAUWDMeanGroup@WDDatas@@@Generic@Collections@System@@$$FQ$AAM?AVEnumerator@1234@XZ
	stloc.s		4		; $S1$12829
$LL5@MergeMean:
	ldloca.s	4		; $S1$12829
	call		?MoveNext@Enumerator@?$List@P$AAUWDMeanGroup@WDDatas@@@Generic@Collections@System@@$$FU$CAM_NXZ
	brfalse.s	$LN4@MergeMean
	ldloca.s	4		; $S1$12829
	call		?get@Current@Enumerator@?$List@P$AAUWDMeanGroup@WDDatas@@@Generic@Collections@System@@$$FU$CAMP$AAUWDMeanGroup@WDDatas@@XZ
	stloc.2				; tmpWDMeanGroup$12835
; Line 1114
	ldarg.0				; this$
	ldloc.2				; tmpWDMeanGroup$12835
	call		?addMeanGrp@WDMean@WDDatas@@$$FA$AAMHP$AAUWDMeanGroup@2@@Z
	pop		
; Line 1118
	ldloc.2				; tmpWDMeanGroup$12835
	ldfld		?MeanFlg@WDMeanGroup@WDDatas@@3HA
	brtrue.s	$LN3@MergeMean
	ldarg.0				; this$
	ldfld		?Speech@WDMean@WDDatas@@3EA
	brtrue.s	$LN3@MergeMean
; Line 1120
	ldarg.0				; this$
	ldarg.1				; inData$
	ldfld		?Speech@WDMean@WDDatas@@3EA
	stfld		?Speech@WDMean@WDDatas@@3EA
$LN3@MergeMean:
; Line 1122
	br.s		$LL5@MergeMean
$LN4@MergeMean:
	leave.s		$LN12@MergeMean
__catch$?MergeMean@WDMean@WDDatas@@$$FQ$AAMXP$AAV12@@Z$0:
; Line 1124
	imp.push	
	stloc.3				; exp$12837
; Line 1126
	ldstr		$StringLiteralTok$??_C@_1CG@FFFFEIOP@a?$APTs0n?$HNPT?$AIfB0k0?$KI0?i0?$PM0Lvzu?$BP0W0?$HO0W0_0?$AC?$AA?$AA@
	ldloc.3				; exp$12837
	newobj		??0WDDatasException@WDDatas@@$$FQ$AAM@P$AAVString@System@@P$AAVException@3@@Z
	stloc.1				; tmpWDDataException$12838
; Line 1127
	ldloc.1				; tmpWDDataException$12838
	ldc.i4		10218		; i32 0x27ea
	stfld		?ErrorCode@WDDatasException@WDDatas@@3HA
; Line 1128
	ldloc.1				; tmpWDDataException$12838
	ldc.i.3		3		; i32 0x3
	stfld		?ErrorCode2@WDDatasException@WDDatas@@3HA
; Line 1129
	ldloc.1				; tmpWDDataException$12838
	throw.u2	
$LN17@MergeMean:
	leave.s		$LN12@MergeMean
$LN12@MergeMean:
; Line 1135
	ldarg.0				; this$
	ldfld		?Mean@WDMean@WDDatas@@3P$AAVString@System@@$AA
	ldnull		0		; i32 0x0
	call		??8String@System@@$$FSM_NP$AAV01@0@Z
	brfalse.s	$LN2@MergeMean
; Line 1137
	ldarg.0				; this$
	ldarg.1				; inData$
	ldfld		?Mean@WDMean@WDDatas@@3P$AAVString@System@@$AA
	call		?Copy@String@System@@$$FSMP$AAV12@P$AAV12@@Z
	stfld		?Mean@WDMean@WDDatas@@3P$AAVString@System@@$AA
$LN2@MergeMean:
; Line 1141
	ldarg.0				; this$
	ldfld		?Example@WDMean@WDDatas@@3P$AAVString@System@@$AA
	ldnull		0		; i32 0x0
	call		??8String@System@@$$FSM_NP$AAV01@0@Z
	brfalse.s	$LN1@MergeMean
; Line 1143
	ldarg.0				; this$
	ldarg.1				; inData$
	ldfld		?Example@WDMean@WDDatas@@3P$AAVString@System@@$AA
	call		?Copy@String@System@@$$FSMP$AAV12@P$AAV12@@Z
	stfld		?Example@WDMean@WDDatas@@3P$AAVString@System@@$AA
	br.s		$LN1@MergeMean
$LN7@MergeMean:
; Line 1103
	ldstr		$StringLiteralTok$??_C@_1BM@GJKJDKMP@0S0na?$APTs0o?$HNPT?$AI0g0M0?$HO0?$FL0?$JD0?$AC?$AA?$AA@
	newobj		??0WDDatasException@WDDatas@@$$FQ$AAM@P$AAVString@System@@@Z
	stloc.0				; tmpWDDataException$12825
; Line 1104
	ldloc.0				; tmpWDDataException$12825
	ldc.i4		10218		; i32 0x27ea
	stfld		?ErrorCode@WDDatasException@WDDatas@@3HA
; Line 1105
	ldloc.0				; tmpWDDataException$12825
	ldc.i.1		1		; i32 0x1
	stfld		?ErrorCode2@WDDatasException@WDDatas@@3HA
; Line 1106
	ldloc.0				; tmpWDDataException$12825
	throw.u2	
$LN1@MergeMean:
$LN21@MergeMean:
; Line 1146
	ret		
 .end ?MergeMean@WDMean@WDDatas@@$$FQ$AAMXP$AAV12@@Z	; WDDatas::WDMean::MergeMean
;	.proc.end.void
	.bss
.local	$T13484,0
.local	$StringLiteralTok$??_C@_1CE@JDMCCNFK@0?G0?$PM0?$LP?$IK?9?$FL?$JK0g0?$KI0?i0?$PM0Lvzu?$BP0W0?$HO0W0_0?$AC?$AA?$AA@,4
.local	$StringLiteralTok$??_C@_1CM@PBCFFGHA@0?G0?$PM0?$LP0?l0?$LD0?$PM0?I0La?$APTs0?G0?$PM0?$LP0g0o0B0?$IK0?$HO0?$FL0?$JD0?$AC?$AA?$AA@,4
; Function compile flags: /Ogtp
	.text
	.comdat	noduplicate, ??0WDMean@WDDatas@@$$FQ$AAM@P$AAVDataRecord@FJIsam@@@Z
.global	??0WDMean@WDDatas@@$$FQ$AAM@P$AAVDataRecord@FJIsam@@@Z ; WDDatas::WDMean::WDMean
??0WDMean@WDDatas@@$$FQ$AAM@P$AAVDataRecord@FJIsam@@@Z:	; WDDatas::WDMean::WDMean
;	.proc.def	D:V(P)

; Function Header:
; max stack depth = 4
; function size = 188 bytes
; local varsig tk = 0x11000024 
; Exception Information:
; 2 handlers, each consisting of filtered handlers

;	.formal.mptr 1,"inRec$" SIG: class (token:0x4A9859)
;	.formal.mptr 0,"this$" SIG: Optional C Binding Modifier(token:0x4B7DF9).class (token:0x4B7DFB)
;	.local.mptr 0,"tmpWDDataException$11952" SIG: class (token:0x4A97C5)
;	.local.mptr 1,"tmpWDDataException$11419" SIG: class (token:0x4A97C5)
;	.local.mptr 2,"exp$11950" SIG: class (token:0x4A9739)

;	.proc.beg
; Line 41
	ldnull		0		; i32 0x0
	stloc.2				; exp$11950
	ldarg.0				; this$
	call		??0Object@System@@$$FQ$AAM@XZ
$LN19@WDMean@3:
; Line 44
	ldsfld		?WDMeanGrpComp@WDMean@WDDatas@@0P$AAVWDMeanGrpComparer@2@$AA
	brtrue.s	$LN4@WDMean@3
	newobj		??0WDMeanGrpComparer@WDDatas@@$$FQ$AAM@XZ
	stsfld		?WDMeanGrpComp@WDMean@WDDatas@@0P$AAVWDMeanGrpComparer@2@$AA
$LN4@WDMean@3:
; Line 47
	ldarg.0				; this$
	ldc.i.0		0		; i32 0x0
	stfld		?WordID@WDMean@WDDatas@@3HA
; Line 48
	ldarg.0				; this$
	ldc.i.0		0		; i32 0x0
	stfld		?MeanNo@WDMean@WDDatas@@3HA
; Line 49
	ldarg.0				; this$
	newobj		??0?$List@P$AAUWDMeanGroup@WDDatas@@@Generic@Collections@System@@$$FQ$AAM@XZ
	stfld		?MeanGroup@WDMean@WDDatas@@3P$AAV?$List@P$AAUWDMeanGroup@WDDatas@@@Generic@Collections@System@@$AA
; Line 50
	ldarg.0				; this$
	ldc.i.0		0		; u8 0x0
	stfld		?Speech@WDMean@WDDatas@@3EA
; Line 51
	ldarg.0				; this$
	ldc.i.0		0		; i32 0x0
	stfld		?Rank@WDMean@WDDatas@@3HA
; Line 52
	ldarg.0				; this$
	ldnull		0		; i32 0x0
	call		?setRecord@WDRec@WDDatas@@$$FU$AAMXP$AAVDataRecord@FJIsam@@@Z
; Line 54
	ldarg.1				; inRec$
	brfalse.s	$LN7@WDMean@3
; Line 61
	ldarg.1				; inRec$
	call		?getDataLength@DataRecord@FJIsam@@$$FQ$AAMHXZ
	ldc.i4		1000		; i32 0x3e8
	bne.un.s	$LN23@WDMean@3
	leave.s		$LN2@WDMean@3
$LN23@WDMean@3:
	ldarg.1				; inRec$
	call		?getDataLength@DataRecord@FJIsam@@$$FQ$AAMHXZ
	ldc.i4.s	20		; i32 0x14
	bne.un.s	$LN24@WDMean@3
	leave.s		$LN2@WDMean@3
$LN24@WDMean@3:
; Line 64
	ldstr		$StringLiteralTok$??_C@_1CM@PBCFFGHA@0?G0?$PM0?$LP0?l0?$LD0?$PM0?I0La?$APTs0?G0?$PM0?$LP0g0o0B0?$IK0?$HO0?$FL0?$JD0?$AC?$AA?$AA@
	newobj		??0WDDatasException@WDDatas@@$$FQ$AAM@P$AAVString@System@@@Z
	stloc.1				; tmpWDDataException$11419
; Line 65
	ldloc.1				; tmpWDDataException$11419
	ldc.i4		10201		; i32 0x27d9
	stfld		?ErrorCode@WDDatasException@WDDatas@@3HA
; Line 66
	ldloc.1				; tmpWDDataException$11419
	ldc.i.1		1		; i32 0x1
	stfld		?ErrorCode2@WDDatasException@WDDatas@@3HA
; Line 67
	ldloc.1				; tmpWDDataException$11419
	throw.u2	
$LN2@WDMean@3:
; File c:\users\amotoo\documents\myproject\worddicbt\wddatas\wddatas.h
	nop		
$LN20@WDMean@3:
; File c:\users\amotoo\documents\myproject\worddicbt\wddatas\wdmean.cpp
; Line 73
	ldarg.0				; this$
	ldarg.1				; inRec$
	callvirt	?setRecord@WDMean@WDDatas@@$$FU$AAMXP$AAVDataRecord@FJIsam@@@Z
	leave.s		$LN7@WDMean@3
__catch$??0WDMean@WDDatas@@$$FQ$AAM@P$AAVDataRecord@FJIsam@@@Z$0:
; Line 74
	imp.push	
	stloc.2				; exp$11950
; Line 76
	ldstr		$StringLiteralTok$??_C@_1CE@JDMCCNFK@0?G0?$PM0?$LP?$IK?9?$FL?$JK0g0?$KI0?i0?$PM0Lvzu?$BP0W0?$HO0W0_0?$AC?$AA?$AA@
	ldloc.2				; exp$11950
	newobj		??0WDDatasException@WDDatas@@$$FQ$AAM@P$AAVString@System@@P$AAVException@3@@Z
	stloc.0				; tmpWDDataException$11952
; Line 77
	ldloc.0				; tmpWDDataException$11952
	ldc.i4		10201		; i32 0x27d9
	stfld		?ErrorCode@WDDatasException@WDDatas@@3HA
; Line 78
	ldloc.0				; tmpWDDataException$11952
	ldc.i.2		2		; i32 0x2
	stfld		?ErrorCode2@WDDatasException@WDDatas@@3HA
; Line 79
	ldloc.0				; tmpWDDataException$11952
	throw.u2	
$LN13@WDMean@3:
	leave.s		$LN7@WDMean@3
$LN7@WDMean@3:
$LN6@WDMean@3:
$LN18@WDMean@3:
; Line 81
	leave.s		$LN21@WDMean@3
$LN22@WDMean@3:
	ldarg.0				; this$
	ldc.i.1		1		; u8 0x1
	call		?<Dispose>@WDRec@WDDatas@@$$FM$AAMX_N@Z
	endfinally	
$LN21@WDMean@3:
; Line 61
	ret		
 .end ??0WDMean@WDDatas@@$$FQ$AAM@P$AAVDataRecord@FJIsam@@@Z ; WDDatas::WDMean::WDMean
;	.proc.end.void
