; Listing generated by Microsoft (R) Optimizing Compiler Version 16.00.30319.01 

; Generated by VC++ for Common Language Runtime
.file "C:\Users\aMotoo\Documents\MyProject\WordDicBT\WDDatas\WDRelation.cpp"
.global	
	.bss
.local	,4
; Function compile flags: /Ogtp
	.text
	.comdat	any, ??0WDRec@WDDatas@@$$FQ$AAM@XZ
.global	??0WDRec@WDDatas@@$$FQ$AAM@XZ			; WDDatas::WDRec::WDRec
??0WDRec@WDDatas@@$$FQ$AAM@XZ:				; WDDatas::WDRec::WDRec
;	.proc.def	D:V()

; Function Header:
; max stack depth = 1
; function size = 7 bytes
; local varsig tk = 0x0 
; Exception Information:
; 0 handlers, each consisting of filtered handlers

;	.formal.mptr 0,"this$" SIG: Optional C Binding Modifier(token:0x4D9EB1).class (token:0x4D9EB3)

;	.proc.beg
	ldarg.0				; this$
	call		??0Object@System@@$$FQ$AAM@XZ
	ret		
 .end ??0WDRec@WDDatas@@$$FQ$AAM@XZ			; WDDatas::WDRec::WDRec
;	.proc.end.void
; Function compile flags: /Ogtp
	.text
	.comdat	any, ?<Dispose>@WDRec@WDDatas@@$$FM$AAMX_N@Z
.global	?<Dispose>@WDRec@WDDatas@@$$FM$AAMX_N@Z		; WDDatas::WDRec::<Dispose>
?<Dispose>@WDRec@WDDatas@@$$FM$AAMX_N@Z:		; WDDatas::WDRec::<Dispose>
;	.proc.def	D:V(I)

; Function Header:
; max stack depth = 1
; function size = 18 bytes
; local varsig tk = 0x0 
; Exception Information:
; 0 handlers, each consisting of filtered handlers

;	.formal.mptr 0,"this$" SIG: Optional C Binding Modifier(token:0x4D9EB1).class (token:0x4D9EB3)
;	.formal.u1 1,"disposing$" SIG: bool

;	.proc.beg
	ldarg.1				; disposing$
	brfalse.s	$LN2@
	ldarg.0				; this$
	call		??1WDRec@WDDatas@@$$FA$AAM@XZ
	br.s		$LN1@
$LN2@:
	ldarg.0				; this$
	call		?<Finalize>@Object@System@@$$FM$AAMXXZ
$LN1@:
	ret		
 .end ?<Dispose>@WDRec@WDDatas@@$$FM$AAMX_N@Z		; WDDatas::WDRec::<Dispose>
;	.proc.end.void
.global	
	.bss
.local	,4
; Function compile flags: /Ogtp
	.text
	.comdat	any, ?<Dispose>@WDWord@WDDatas@@$$FM$AAMX_N@Z
.global	?<Dispose>@WDWord@WDDatas@@$$FM$AAMX_N@Z	; WDDatas::WDWord::<Dispose>
?<Dispose>@WDWord@WDDatas@@$$FM$AAMX_N@Z:		; WDDatas::WDWord::<Dispose>
;	.proc.def	D:V(I)

; Function Header:
; max stack depth = 2
; function size = 27 bytes
; local varsig tk = 0x0 
; Exception Information:
; 1 handlers, each consisting of filtered handlers

;	.formal.mptr 0,"this$" SIG: Optional C Binding Modifier(token:0x4D5A1D).class (token:0x4D5A1F)
;	.formal.u1 1,"disposing$" SIG: bool

;	.proc.beg
	ldarg.1				; disposing$
	brfalse.s	$LN3@
$LN13@:
	ldarg.0				; this$
	call		??1WDWord@WDDatas@@$$FA$AAM@XZ
$LN2@:
	leave.s		$LN12@
$LN7@:
	ldarg.0				; this$
	ldc.i.1		1		; u8 0x1
	call		?<Dispose>@WDRec@WDDatas@@$$FM$AAMX_N@Z
$LN9@:
	endfinally	
$LN3@:
	ldarg.0				; this$
	ldc.i.0		0		; u8 0x0
	call		?<Dispose>@WDRec@WDDatas@@$$FM$AAMX_N@Z
$LN12@:
	ret		
 .end ?<Dispose>@WDWord@WDDatas@@$$FM$AAMX_N@Z		; WDDatas::WDWord::<Dispose>
;	.proc.end.void
.global	
	.bss
.local	,4
; Function compile flags: /Ogtp
	.text
	.comdat	any, ??0WDMeanGroup@WDDatas@@$$FQ$AAM@XZ
.global	??0WDMeanGroup@WDDatas@@$$FQ$AAM@XZ		; WDDatas::WDMeanGroup::WDMeanGroup
??0WDMeanGroup@WDDatas@@$$FQ$AAM@XZ:			; WDDatas::WDMeanGroup::WDMeanGroup
;	.proc.def	D:V()

; Function Header:
; max stack depth = 1
; function size = 7 bytes
; local varsig tk = 0x0 
; Exception Information:
; 0 handlers, each consisting of filtered handlers

;	.formal.mptr 0,"this$" SIG: Optional C Binding Modifier(token:0x4D59F1).class (token:0x4D59F3)

;	.proc.beg
	ldarg.0				; this$
	call		??0Object@System@@$$FQ$AAM@XZ
	ret		
 .end ??0WDMeanGroup@WDDatas@@$$FQ$AAM@XZ		; WDDatas::WDMeanGroup::WDMeanGroup
;	.proc.end.void
.global	
	.bss
.local	,4
; Function compile flags: /Ogtp
	.text
	.comdat	any, ??0WDMeanGrpComparer@WDDatas@@$$FQ$AAM@XZ
.global	??0WDMeanGrpComparer@WDDatas@@$$FQ$AAM@XZ	; WDDatas::WDMeanGrpComparer::WDMeanGrpComparer
??0WDMeanGrpComparer@WDDatas@@$$FQ$AAM@XZ:		; WDDatas::WDMeanGrpComparer::WDMeanGrpComparer
;	.proc.def	D:V()

; Function Header:
; max stack depth = 1
; function size = 7 bytes
; local varsig tk = 0x0 
; Exception Information:
; 0 handlers, each consisting of filtered handlers

;	.formal.mptr 0,"this$" SIG: Optional C Binding Modifier(token:0x4D5959).class (token:0x4D595B)

;	.proc.beg
	ldarg.0				; this$
	call		??0Object@System@@$$FQ$AAM@XZ
	ret		
 .end ??0WDMeanGrpComparer@WDDatas@@$$FQ$AAM@XZ		; WDDatas::WDMeanGrpComparer::WDMeanGrpComparer
;	.proc.end.void
.global	
	.bss
.local	,4
; Function compile flags: /Ogtp
	.text
	.comdat	any, ?<Dispose>@WDMean@WDDatas@@$$FM$AAMX_N@Z
.global	?<Dispose>@WDMean@WDDatas@@$$FM$AAMX_N@Z	; WDDatas::WDMean::<Dispose>
?<Dispose>@WDMean@WDDatas@@$$FM$AAMX_N@Z:		; WDDatas::WDMean::<Dispose>
;	.proc.def	D:V(I)

; Function Header:
; max stack depth = 2
; function size = 27 bytes
; local varsig tk = 0x0 
; Exception Information:
; 1 handlers, each consisting of filtered handlers

;	.formal.mptr 0,"this$" SIG: Optional C Binding Modifier(token:0x4D5815).class (token:0x4D5817)
;	.formal.u1 1,"disposing$" SIG: bool

;	.proc.beg
	ldarg.1				; disposing$
	brfalse.s	$LN3@
$LN13@:
	ldarg.0				; this$
	call		??1WDMean@WDDatas@@$$FA$AAM@XZ
$LN2@:
	leave.s		$LN12@
$LN7@:
	ldarg.0				; this$
	ldc.i.1		1		; u8 0x1
	call		?<Dispose>@WDRec@WDDatas@@$$FM$AAMX_N@Z
$LN9@:
	endfinally	
$LN3@:
	ldarg.0				; this$
	ldc.i.0		0		; u8 0x0
	call		?<Dispose>@WDRec@WDDatas@@$$FM$AAMX_N@Z
$LN12@:
	ret		
 .end ?<Dispose>@WDMean@WDDatas@@$$FM$AAMX_N@Z		; WDDatas::WDMean::<Dispose>
;	.proc.end.void
.global	?WDMeanGrpComp@WDMean@WDDatas@@0P$AAVWDMeanGrpComparer@2@$AA ; WDDatas::WDMean::WDMeanGrpComp
	.bss
.local	?WDMeanGrpComp@WDMean@WDDatas@@0P$AAVWDMeanGrpComparer@2@$AA,4 ; WDDatas::WDMean::WDMeanGrpComp
; Function compile flags: /Ogtp
	.text
	.comdat	any, ?.cctor@WDMean@WDDatas@@$$FSMXXZ
.global	?.cctor@WDMean@WDDatas@@$$FSMXXZ		; ?.cctor@WDMean@WDDatas@@$$FSMXXZ
?.cctor@WDMean@WDDatas@@$$FSMXXZ:			; ?.cctor@WDMean@WDDatas@@$$FSMXXZ
;	.proc.def	D:V()

; Function Header:
; max stack depth = 1
; function size = 7 bytes
; local varsig tk = 0x0 
; Exception Information:
; 0 handlers, each consisting of filtered handlers


;	.proc.beg
	ldnull		0		; i32 0x0
	stsfld		?WDMeanGrpComp@WDMean@WDDatas@@0P$AAVWDMeanGrpComparer@2@$AA
	ret		
 .end ?.cctor@WDMean@WDDatas@@$$FSMXXZ			; ?.cctor@WDMean@WDDatas@@$$FSMXXZ
;	.proc.end.void
.global	
	.bss
.local	,4
; Function compile flags: /Ogtp
	.text
	.comdat	any, ?<Dispose>@WDTrans@WDDatas@@$$FM$AAMX_N@Z
.global	?<Dispose>@WDTrans@WDDatas@@$$FM$AAMX_N@Z	; WDDatas::WDTrans::<Dispose>
?<Dispose>@WDTrans@WDDatas@@$$FM$AAMX_N@Z:		; WDDatas::WDTrans::<Dispose>
;	.proc.def	D:V(I)

; Function Header:
; max stack depth = 2
; function size = 27 bytes
; local varsig tk = 0x0 
; Exception Information:
; 1 handlers, each consisting of filtered handlers

;	.formal.mptr 0,"this$" SIG: Optional C Binding Modifier(token:0x4D5625).class (token:0x4D5627)
;	.formal.u1 1,"disposing$" SIG: bool

;	.proc.beg
	ldarg.1				; disposing$
	brfalse.s	$LN3@
$LN13@:
	ldarg.0				; this$
	call		??1WDTrans@WDDatas@@$$FA$AAM@XZ
$LN2@:
	leave.s		$LN12@
$LN7@:
	ldarg.0				; this$
	ldc.i.1		1		; u8 0x1
	call		?<Dispose>@WDRec@WDDatas@@$$FM$AAMX_N@Z
$LN9@:
	endfinally	
$LN3@:
	ldarg.0				; this$
	ldc.i.0		0		; u8 0x0
	call		?<Dispose>@WDRec@WDDatas@@$$FM$AAMX_N@Z
$LN12@:
	ret		
 .end ?<Dispose>@WDTrans@WDDatas@@$$FM$AAMX_N@Z		; WDDatas::WDTrans::<Dispose>
;	.proc.end.void
.global	
	.bss
.local	,4
; Function compile flags: /Ogtp
	.text
	.comdat	any, ?<Dispose>@WDGroup@WDDatas@@$$FM$AAMX_N@Z
.global	?<Dispose>@WDGroup@WDDatas@@$$FM$AAMX_N@Z	; WDDatas::WDGroup::<Dispose>
?<Dispose>@WDGroup@WDDatas@@$$FM$AAMX_N@Z:		; WDDatas::WDGroup::<Dispose>
;	.proc.def	D:V(I)

; Function Header:
; max stack depth = 2
; function size = 27 bytes
; local varsig tk = 0x0 
; Exception Information:
; 1 handlers, each consisting of filtered handlers

;	.formal.mptr 0,"this$" SIG: Optional C Binding Modifier(token:0x4D5451).class (token:0x4D5453)
;	.formal.u1 1,"disposing$" SIG: bool

;	.proc.beg
	ldarg.1				; disposing$
	brfalse.s	$LN3@
$LN13@:
	ldarg.0				; this$
	call		??1WDGroup@WDDatas@@$$FA$AAM@XZ
$LN2@:
	leave.s		$LN12@
$LN7@:
	ldarg.0				; this$
	ldc.i.1		1		; u8 0x1
	call		?<Dispose>@WDRec@WDDatas@@$$FM$AAMX_N@Z
$LN9@:
	endfinally	
$LN3@:
	ldarg.0				; this$
	ldc.i.0		0		; u8 0x0
	call		?<Dispose>@WDRec@WDDatas@@$$FM$AAMX_N@Z
$LN12@:
	ret		
 .end ?<Dispose>@WDGroup@WDDatas@@$$FM$AAMX_N@Z		; WDDatas::WDGroup::<Dispose>
;	.proc.end.void
.global	
	.bss
.local	,4
; Function compile flags: /Ogtp
	.text
	.comdat	any, ?<Dispose>@WDSegment@WDDatas@@$$FM$AAMX_N@Z
.global	?<Dispose>@WDSegment@WDDatas@@$$FM$AAMX_N@Z	; WDDatas::WDSegment::<Dispose>
?<Dispose>@WDSegment@WDDatas@@$$FM$AAMX_N@Z:		; WDDatas::WDSegment::<Dispose>
;	.proc.def	D:V(I)

; Function Header:
; max stack depth = 2
; function size = 27 bytes
; local varsig tk = 0x0 
; Exception Information:
; 1 handlers, each consisting of filtered handlers

;	.formal.mptr 0,"this$" SIG: Optional C Binding Modifier(token:0x4D5305).class (token:0x4D5307)
;	.formal.u1 1,"disposing$" SIG: bool

;	.proc.beg
	ldarg.1				; disposing$
	brfalse.s	$LN3@
$LN13@:
	ldarg.0				; this$
	call		??1WDSegment@WDDatas@@$$FA$AAM@XZ
$LN2@:
	leave.s		$LN12@
$LN7@:
	ldarg.0				; this$
	ldc.i.1		1		; u8 0x1
	call		?<Dispose>@WDRec@WDDatas@@$$FM$AAMX_N@Z
$LN9@:
	endfinally	
$LN3@:
	ldarg.0				; this$
	ldc.i.0		0		; u8 0x0
	call		?<Dispose>@WDRec@WDDatas@@$$FM$AAMX_N@Z
$LN12@:
	ret		
 .end ?<Dispose>@WDSegment@WDDatas@@$$FM$AAMX_N@Z	; WDDatas::WDSegment::<Dispose>
;	.proc.end.void
.global	?RelationNo@WDRelation@WDDatas@@3P$AAV?$List@H@Generic@Collections@System@@$AA ; WDDatas::WDRelation::RelationNo
.global	?RelationID@WDRelation@WDDatas@@3P$AAV?$List@H@Generic@Collections@System@@$AA ; WDDatas::WDRelation::RelationID
.global	?RelationType@WDRelation@WDDatas@@3P$AAV?$List@H@Generic@Collections@System@@$AA ; WDDatas::WDRelation::RelationType
.global	?MeanNo@WDRelation@WDDatas@@3HA			; WDDatas::WDRelation::MeanNo
.global	?WordID@WDRelation@WDDatas@@3HA			; WDDatas::WDRelation::WordID
.global	
	.bss
.local	?RelationNo@WDRelation@WDDatas@@3P$AAV?$List@H@Generic@Collections@System@@$AA,4 ; WDDatas::WDRelation::RelationNo
.local	?RelationID@WDRelation@WDDatas@@3P$AAV?$List@H@Generic@Collections@System@@$AA,4 ; WDDatas::WDRelation::RelationID
.local	?RelationType@WDRelation@WDDatas@@3P$AAV?$List@H@Generic@Collections@System@@$AA,4 ; WDDatas::WDRelation::RelationType
.local	?MeanNo@WDRelation@WDDatas@@3HA,4		; WDDatas::WDRelation::MeanNo
.local	?WordID@WDRelation@WDDatas@@3HA,4		; WDDatas::WDRelation::WordID
.local	,4
; Function compile flags: /Ogtp
	.text
	.comdat	noduplicate, ??0WDRelation@WDDatas@@$$FQ$AAM@XZ
.global	??0WDRelation@WDDatas@@$$FQ$AAM@XZ		; WDDatas::WDRelation::WDRelation
??0WDRelation@WDDatas@@$$FQ$AAM@XZ:			; WDDatas::WDRelation::WDRelation
;	.proc.def	D:V()

; Function Header:
; max stack depth = 2
; function size = 64 bytes
; local varsig tk = 0x0 
; Exception Information:
; 1 handlers, each consisting of filtered handlers

;	.formal.mptr 0,"this$" SIG: Optional C Binding Modifier(token:0x4D5595).class (token:0x4D5597)

;	.proc.beg
; File c:\users\amotoo\documents\myproject\worddicbt\wddatas\wdrelation.cpp
; Line 24
	ldarg.0				; this$
	call		??0Object@System@@$$FQ$AAM@XZ
$LN6@WDRelation:
; Line 26
	ldarg.0				; this$
	ldc.i.0		0		; i32 0x0
	stfld		?WordID@WDRelation@WDDatas@@3HA
; Line 27
	ldarg.0				; this$
	ldc.i.0		0		; i32 0x0
	stfld		?MeanNo@WDRelation@WDDatas@@3HA
; Line 28
	ldarg.0				; this$
	newobj		??0?$List@H@Generic@Collections@System@@$$FQ$AAM@XZ
	stfld		?RelationType@WDRelation@WDDatas@@3P$AAV?$List@H@Generic@Collections@System@@$AA
; Line 29
	ldarg.0				; this$
	newobj		??0?$List@H@Generic@Collections@System@@$$FQ$AAM@XZ
	stfld		?RelationID@WDRelation@WDDatas@@3P$AAV?$List@H@Generic@Collections@System@@$AA
; Line 30
	ldarg.0				; this$
	newobj		??0?$List@H@Generic@Collections@System@@$$FQ$AAM@XZ
	stfld		?RelationNo@WDRelation@WDDatas@@3P$AAV?$List@H@Generic@Collections@System@@$AA
	leave.s		$LN7@WDRelation
$LN8@WDRelation:
	ldarg.0				; this$
	ldc.i.1		1		; u8 0x1
	call		?<Dispose>@WDRec@WDDatas@@$$FM$AAMX_N@Z
	endfinally	
$LN7@WDRelation:
; Line 31
	ret		
 .end ??0WDRelation@WDDatas@@$$FQ$AAM@XZ		; WDDatas::WDRelation::WDRelation
;	.proc.end.void
	.bss
.local	$T12658,0
.local	$TypeTok$1102D1B0$,4
; Function compile flags: /Ogtp
	.text
	.comdat	noduplicate, ??1WDRelation@WDDatas@@$$FA$AAM@XZ
.global	??1WDRelation@WDDatas@@$$FA$AAM@XZ		; WDDatas::WDRelation::~WDRelation
??1WDRelation@WDDatas@@$$FA$AAM@XZ:			; WDDatas::WDRelation::~WDRelation
;	.proc.def	D:V()

; Function Header:
; max stack depth = 1
; function size = 85 bytes
; local varsig tk = 0x1100000A 
; Exception Information:
; 0 handlers, each consisting of filtered handlers

;	.formal.mptr 0,"this$" SIG: Optional C Binding Modifier(token:0x4D5595).class (token:0x4D5597)
;	.local.mptr 0,"$T11978" SIG: class (token:0x4D4289)
;	.local.u4 1,"$T12657" SIG: genericInst (token:0x100000E) <i4>
;	.local.mptr 2,"$T11975" SIG: class (token:0x4D4289)
;	.local.u4 3,"$T12656" SIG: genericInst (token:0x100000E) <i4>
;	.local.mptr 4,"$T11969" SIG: class (token:0x4D4289)
;	.local.u4 5,"$T12655" SIG: genericInst (token:0x100000E) <i4>

;	.proc.beg
; Line 77
	ldarg.0				; this$
	ldfld		?RelationType@WDRelation@WDDatas@@3P$AAV?$List@H@Generic@Collections@System@@$AA
	stloc.s		5		; $T12655
	ldloc.s		5		; $T12655
	brfalse.s	$LN6@WDRelation@2
	ldloc.s		5		; $T12655
	isInst		$TypeTok$1102D1B0$
	stloc.s		4		; $T11969
	ldloc.s		4		; $T11969
	brfalse.s	$LN6@WDRelation@2
	ldloc.s		4		; $T11969
	callvirt	?<Dispose>@IDisposable@System@@$$FU$AAMXXZ
$LN6@WDRelation@2:
; Line 78
	ldarg.0				; this$
	ldfld		?RelationID@WDRelation@WDDatas@@3P$AAV?$List@H@Generic@Collections@System@@$AA
	stloc.3				; $T12656
	ldloc.3				; $T12656
	brfalse.s	$LN8@WDRelation@2
	ldloc.3				; $T12656
	isInst		$TypeTok$1102D1B0$
	stloc.2				; $T11975
	ldloc.2				; $T11975
	brfalse.s	$LN8@WDRelation@2
	ldloc.2				; $T11975
	callvirt	?<Dispose>@IDisposable@System@@$$FU$AAMXXZ
$LN8@WDRelation@2:
; Line 79
	ldarg.0				; this$
	ldfld		?RelationNo@WDRelation@WDDatas@@3P$AAV?$List@H@Generic@Collections@System@@$AA
	stloc.1				; $T12657
	ldloc.1				; $T12657
	brfalse.s	$LN10@WDRelation@2
	ldloc.1				; $T12657
	isInst		$TypeTok$1102D1B0$
	stloc.0				; $T11978
	ldloc.0				; $T11978
	brfalse.s	$LN10@WDRelation@2
	ldloc.0				; $T11978
	callvirt	?<Dispose>@IDisposable@System@@$$FU$AAMXXZ
$LN10@WDRelation@2:
; Line 80
	ret		
 .end ??1WDRelation@WDDatas@@$$FA$AAM@XZ		; WDDatas::WDRelation::~WDRelation
;	.proc.end.void
	.bss
.local	$T12662,0
; Function compile flags: /Ogtp
	.text
	.comdat	noduplicate, ?DataLength@WDRelation@WDDatas@@$$FQ$AAMHXZ
.global	?DataLength@WDRelation@WDDatas@@$$FQ$AAMHXZ	; WDDatas::WDRelation::DataLength
?DataLength@WDRelation@WDDatas@@$$FQ$AAMHXZ:		; WDDatas::WDRelation::DataLength
;	.proc.def	D:I()

; Function Header:
; max stack depth = 3
; function size = 26 bytes
; local varsig tk = 0x1100000B 
; Exception Information:
; 0 handlers, each consisting of filtered handlers

;	.formal.mptr 0,"this$" SIG: Optional C Binding Modifier(token:0x4D5595).class (token:0x4D5597)
;	.local.u4 0,"$T12661" SIG: genericInst (token:0x100000E) <i4>

;	.proc.beg
; Line 292
	ldarg.0				; this$
	ldfld		?RelationType@WDRelation@WDDatas@@3P$AAV?$List@H@Generic@Collections@System@@$AA
	stloc.0				; $T12661
	ldloc.0				; $T12661
	brtrue.s	$LN2@DataLength
; Line 294
	ldc.i.0		0		; i32 0x0
; Line 295
	br.s		$LN1@DataLength
$LN2@DataLength:
; Line 298
	ldloc.0				; $T12661
	callvirt	?get@Count@?$List@H@Generic@Collections@System@@$$FU$AAMHXZ
	ldc.i4.s	12		; i32 0xc
	mul		
$LN1@DataLength:
; Line 304
	ldc.i4.s	12		; i32 0xc
	add		
	ret		
 .end ?DataLength@WDRelation@WDDatas@@$$FQ$AAMHXZ	; WDDatas::WDRelation::DataLength
;	.proc.end.i4
	.bss
.local	$T12672,0
; Function compile flags: /Ogtp
	.text
	.comdat	noduplicate, ?RecLength@WDRelation@WDDatas@@$$FU$AAMHXZ
.global	?RecLength@WDRelation@WDDatas@@$$FU$AAMHXZ	; WDDatas::WDRelation::RecLength
?RecLength@WDRelation@WDDatas@@$$FU$AAMHXZ:		; WDDatas::WDRelation::RecLength
;	.proc.def	D:I()

; Function Header:
; max stack depth = 3
; function size = 32 bytes
; local varsig tk = 0x1100000B 
; Exception Information:
; 0 handlers, each consisting of filtered handlers

;	.formal.mptr 0,"this$" SIG: Optional C Binding Modifier(token:0x4D5595).class (token:0x4D5597)
;	.local.u4 0,"$T12671" SIG: genericInst (token:0x100000E) <i4>

;	.proc.beg
; Line 310
	ldarg.0				; this$
	ldfld		?RelationType@WDRelation@WDDatas@@3P$AAV?$List@H@Generic@Collections@System@@$AA
	stloc.0				; $T12671
	ldloc.0				; $T12671
	brtrue.s	$LN4@RecLength
	ldc.i.0		0		; i32 0x0
	br.s		$LN3@RecLength
$LN4@RecLength:
	ldloc.0				; $T12671
	callvirt	?get@Count@?$List@H@Generic@Collections@System@@$$FU$AAMHXZ
	ldc.i4.s	12		; i32 0xc
	mul		
$LN3@RecLength:
	call		?getHeaderLength@DataRecord@FJIsam@@$$FSMHXZ
	add		
	ldc.i4.s	12		; i32 0xc
	add		
	ret		
 .end ?RecLength@WDRelation@WDDatas@@$$FU$AAMHXZ	; WDDatas::WDRelation::RecLength
;	.proc.end.i4
; Function compile flags: /Ogtp
	.text
	.comdat	noduplicate, ?getWordID@WDRelation@WDDatas@@$$FQ$AAMHXZ
.global	?getWordID@WDRelation@WDDatas@@$$FQ$AAMHXZ	; WDDatas::WDRelation::getWordID
?getWordID@WDRelation@WDDatas@@$$FQ$AAMHXZ:		; WDDatas::WDRelation::getWordID
;	.proc.def	D:I()

; Function Header:
; max stack depth = 1
; function size = 7 bytes
; local varsig tk = 0x0 
; Exception Information:
; 0 handlers, each consisting of filtered handlers

;	.formal.mptr 0,"this$" SIG: Optional C Binding Modifier(token:0x4D5595).class (token:0x4D5597)

;	.proc.beg
; Line 319
	ldarg.0				; this$
	ldfld		?WordID@WDRelation@WDDatas@@3HA
	ret		
 .end ?getWordID@WDRelation@WDDatas@@$$FQ$AAMHXZ	; WDDatas::WDRelation::getWordID
;	.proc.end.i4
; Function compile flags: /Ogtp
	.text
	.comdat	noduplicate, ?getMeanNo@WDRelation@WDDatas@@$$FQ$AAMHXZ
.global	?getMeanNo@WDRelation@WDDatas@@$$FQ$AAMHXZ	; WDDatas::WDRelation::getMeanNo
?getMeanNo@WDRelation@WDDatas@@$$FQ$AAMHXZ:		; WDDatas::WDRelation::getMeanNo
;	.proc.def	D:I()

; Function Header:
; max stack depth = 1
; function size = 7 bytes
; local varsig tk = 0x0 
; Exception Information:
; 0 handlers, each consisting of filtered handlers

;	.formal.mptr 0,"this$" SIG: Optional C Binding Modifier(token:0x4D5595).class (token:0x4D5597)

;	.proc.beg
; Line 325
	ldarg.0				; this$
	ldfld		?MeanNo@WDRelation@WDDatas@@3HA
	ret		
 .end ?getMeanNo@WDRelation@WDDatas@@$$FQ$AAMHXZ	; WDDatas::WDRelation::getMeanNo
;	.proc.end.i4
.global	?ErrorCode2@WDDatasException@WDDatas@@3HA	; WDDatas::WDDatasException::ErrorCode2
.global	?ErrorCode@WDDatasException@WDDatas@@3HA	; WDDatas::WDDatasException::ErrorCode
.global	
.global	
	.bss
.local	$T12683,0
.local	?ErrorCode2@WDDatasException@WDDatas@@3HA,4	; WDDatas::WDDatasException::ErrorCode2
.local	?ErrorCode@WDDatasException@WDDatas@@3HA,4	; WDDatas::WDDatasException::ErrorCode
.local	$StringLiteralTok$??_C@_1CA@KNNNLHNN@0?$KE0?s0?G0?C0?$KP0?$LJc?$AH?$FL?$JK0L?$HL?DV?rY?$BG0g0Y0?$AC?$AA?$AA@,4
.local	,4
.local	,4
; Function compile flags: /Ogtp
	.text
	.comdat	noduplicate, ?getRelationType@WDRelation@WDDatas@@$$FQ$AAMHH@Z
.global	?getRelationType@WDRelation@WDDatas@@$$FQ$AAMHH@Z ; WDDatas::WDRelation::getRelationType
?getRelationType@WDRelation@WDDatas@@$$FQ$AAMHH@Z:	; WDDatas::WDRelation::getRelationType
;	.proc.def	D:I(I)

; Function Header:
; max stack depth = 2
; function size = 71 bytes
; local varsig tk = 0x1100000E 
; Exception Information:
; 0 handlers, each consisting of filtered handlers

;	.formal.i4 1,"inIdx$" SIG: i4
;	.formal.mptr 0,"this$" SIG: Optional C Binding Modifier(token:0x4D5595).class (token:0x4D5597)
;	.local.mptr 0,"tmpWDDataException$12255" SIG: class (token:0x4D43A5)
;	.local.u4 1,"$T12680" SIG: genericInst (token:0x100000E) <i4>

;	.proc.beg
; Line 331
	ldarg.0				; this$
	ldfld		?RelationType@WDRelation@WDDatas@@3P$AAV?$List@H@Generic@Collections@System@@$AA
	stloc.1				; $T12680
	ldloc.1				; $T12680
	brtrue.s	$LN3@getRelatio
	ldc.i.-1	-1		; i32 0xffffffff
	ret		
$LN3@getRelatio:
; Line 333
	ldarg.1				; inIdx$
	ldc.i.0		0		; i32 0x0
	blt.s		$LN1@getRelatio
	ldarg.1				; inIdx$
	ldloc.1				; $T12680
	callvirt	?get@Count@?$List@H@Generic@Collections@System@@$$FU$AAMHXZ
	bge.s		$LN1@getRelatio
; Line 341
	ldarg.0				; this$
	ldfld		?RelationType@WDRelation@WDDatas@@3P$AAV?$List@H@Generic@Collections@System@@$AA
	ldarg.1				; inIdx$
	callvirt	?get@default@?$List@H@Generic@Collections@System@@$$FU$AAMHH@Z
	ret		
$LN1@getRelatio:
; Line 336
	ldstr		$StringLiteralTok$??_C@_1CA@KNNNLHNN@0?$KE0?s0?G0?C0?$KP0?$LJc?$AH?$FL?$JK0L?$HL?DV?rY?$BG0g0Y0?$AC?$AA?$AA@
	newobj		??0WDDatasException@WDDatas@@$$FQ$AAM@P$AAVString@System@@@Z
	stloc.0				; tmpWDDataException$12255
; Line 337
	ldloc.0				; tmpWDDataException$12255
	ldc.i4		10606		; i32 0x296e
	stfld		?ErrorCode@WDDatasException@WDDatas@@3HA
; Line 338
	ldloc.0				; tmpWDDataException$12255
	ldc.i.1		1		; i32 0x1
	stfld		?ErrorCode2@WDDatasException@WDDatas@@3HA
; Line 339
	ldloc.0				; tmpWDDataException$12255
	throw.u2	
; Line 342
	ldc.i.0		0		; i32 0x0
	ret		
 .end ?getRelationType@WDRelation@WDDatas@@$$FQ$AAMHH@Z	; WDDatas::WDRelation::getRelationType
;	.proc.end.i4
	.bss
.local	$T12688,0
; Function compile flags: /Ogtp
	.text
	.comdat	noduplicate, ?getRelationID@WDRelation@WDDatas@@$$FQ$AAMHH@Z
.global	?getRelationID@WDRelation@WDDatas@@$$FQ$AAMHH@Z	; WDDatas::WDRelation::getRelationID
?getRelationID@WDRelation@WDDatas@@$$FQ$AAMHH@Z:	; WDDatas::WDRelation::getRelationID
;	.proc.def	D:I(I)

; Function Header:
; max stack depth = 2
; function size = 71 bytes
; local varsig tk = 0x1100000E 
; Exception Information:
; 0 handlers, each consisting of filtered handlers

;	.formal.i4 1,"inIdx$" SIG: i4
;	.formal.mptr 0,"this$" SIG: Optional C Binding Modifier(token:0x4D5595).class (token:0x4D5597)
;	.local.mptr 0,"tmpWDDataException$12265" SIG: class (token:0x4D43A5)
;	.local.u4 1,"$T12687" SIG: genericInst (token:0x100000E) <i4>

;	.proc.beg
; Line 347
	ldarg.0				; this$
	ldfld		?RelationID@WDRelation@WDDatas@@3P$AAV?$List@H@Generic@Collections@System@@$AA
	stloc.1				; $T12687
	ldloc.1				; $T12687
	brtrue.s	$LN3@getRelatio@2
	ldc.i.-1	-1		; i32 0xffffffff
	ret		
$LN3@getRelatio@2:
; Line 349
	ldarg.1				; inIdx$
	ldc.i.0		0		; i32 0x0
	blt.s		$LN1@getRelatio@2
	ldarg.1				; inIdx$
	ldloc.1				; $T12687
	callvirt	?get@Count@?$List@H@Generic@Collections@System@@$$FU$AAMHXZ
	bge.s		$LN1@getRelatio@2
; Line 357
	ldarg.0				; this$
	ldfld		?RelationID@WDRelation@WDDatas@@3P$AAV?$List@H@Generic@Collections@System@@$AA
	ldarg.1				; inIdx$
	callvirt	?get@default@?$List@H@Generic@Collections@System@@$$FU$AAMHH@Z
	ret		
$LN1@getRelatio@2:
; Line 352
	ldstr		$StringLiteralTok$??_C@_1CA@KNNNLHNN@0?$KE0?s0?G0?C0?$KP0?$LJc?$AH?$FL?$JK0L?$HL?DV?rY?$BG0g0Y0?$AC?$AA?$AA@
	newobj		??0WDDatasException@WDDatas@@$$FQ$AAM@P$AAVString@System@@@Z
	stloc.0				; tmpWDDataException$12265
; Line 353
	ldloc.0				; tmpWDDataException$12265
	ldc.i4		10607		; i32 0x296f
	stfld		?ErrorCode@WDDatasException@WDDatas@@3HA
; Line 354
	ldloc.0				; tmpWDDataException$12265
	ldc.i.1		1		; i32 0x1
	stfld		?ErrorCode2@WDDatasException@WDDatas@@3HA
; Line 355
	ldloc.0				; tmpWDDataException$12265
	throw.u2	
; Line 358
	ldc.i.0		0		; i32 0x0
	ret		
 .end ?getRelationID@WDRelation@WDDatas@@$$FQ$AAMHH@Z	; WDDatas::WDRelation::getRelationID
;	.proc.end.i4
	.bss
.local	$T12693,0
; Function compile flags: /Ogtp
	.text
	.comdat	noduplicate, ?getRelationNo@WDRelation@WDDatas@@$$FQ$AAMHH@Z
.global	?getRelationNo@WDRelation@WDDatas@@$$FQ$AAMHH@Z	; WDDatas::WDRelation::getRelationNo
?getRelationNo@WDRelation@WDDatas@@$$FQ$AAMHH@Z:	; WDDatas::WDRelation::getRelationNo
;	.proc.def	D:I(I)

; Function Header:
; max stack depth = 2
; function size = 71 bytes
; local varsig tk = 0x1100000E 
; Exception Information:
; 0 handlers, each consisting of filtered handlers

;	.formal.i4 1,"inIdx$" SIG: i4
;	.formal.mptr 0,"this$" SIG: Optional C Binding Modifier(token:0x4D5595).class (token:0x4D5597)
;	.local.mptr 0,"tmpWDDataException$12274" SIG: class (token:0x4D43A5)
;	.local.u4 1,"$T12692" SIG: genericInst (token:0x100000E) <i4>

;	.proc.beg
; Line 363
	ldarg.0				; this$
	ldfld		?RelationNo@WDRelation@WDDatas@@3P$AAV?$List@H@Generic@Collections@System@@$AA
	stloc.1				; $T12692
	ldloc.1				; $T12692
	brtrue.s	$LN3@getRelatio@3
	ldc.i.-1	-1		; i32 0xffffffff
	ret		
$LN3@getRelatio@3:
; Line 365
	ldarg.1				; inIdx$
	ldc.i.0		0		; i32 0x0
	blt.s		$LN1@getRelatio@3
	ldarg.1				; inIdx$
	ldloc.1				; $T12692
	callvirt	?get@Count@?$List@H@Generic@Collections@System@@$$FU$AAMHXZ
	bge.s		$LN1@getRelatio@3
; Line 373
	ldarg.0				; this$
	ldfld		?RelationNo@WDRelation@WDDatas@@3P$AAV?$List@H@Generic@Collections@System@@$AA
	ldarg.1				; inIdx$
	callvirt	?get@default@?$List@H@Generic@Collections@System@@$$FU$AAMHH@Z
	ret		
$LN1@getRelatio@3:
; Line 368
	ldstr		$StringLiteralTok$??_C@_1CA@KNNNLHNN@0?$KE0?s0?G0?C0?$KP0?$LJc?$AH?$FL?$JK0L?$HL?DV?rY?$BG0g0Y0?$AC?$AA?$AA@
	newobj		??0WDDatasException@WDDatas@@$$FQ$AAM@P$AAVString@System@@@Z
	stloc.0				; tmpWDDataException$12274
; Line 369
	ldloc.0				; tmpWDDataException$12274
	ldc.i4		10617		; i32 0x2979
	stfld		?ErrorCode@WDDatasException@WDDatas@@3HA
; Line 370
	ldloc.0				; tmpWDDataException$12274
	ldc.i.1		1		; i32 0x1
	stfld		?ErrorCode2@WDDatasException@WDDatas@@3HA
; Line 371
	ldloc.0				; tmpWDDataException$12274
	throw.u2	
; Line 374
	ldc.i.0		0		; i32 0x0
	ret		
 .end ?getRelationNo@WDRelation@WDDatas@@$$FQ$AAMHH@Z	; WDDatas::WDRelation::getRelationNo
;	.proc.end.i4
	.bss
.local	$T12697,0
.local	$StringLiteralTok$??_C@_1BG@GAPALFHB@SX?$IK?$JO?$AAI?$AAD0LN?$ANkc0g0Y0?$AC?$AA?$AA@,4
; Function compile flags: /Ogtp
	.text
	.comdat	noduplicate, ?setWordID@WDRelation@WDDatas@@$$FQ$AAMXH@Z
.global	?setWordID@WDRelation@WDDatas@@$$FQ$AAMXH@Z	; WDDatas::WDRelation::setWordID
?setWordID@WDRelation@WDDatas@@$$FQ$AAMXH@Z:		; WDDatas::WDRelation::setWordID
;	.proc.def	D:V(I)

; Function Header:
; max stack depth = 2
; function size = 43 bytes
; local varsig tk = 0x1100000F 
; Exception Information:
; 0 handlers, each consisting of filtered handlers

;	.formal.mptr 0,"this$" SIG: Optional C Binding Modifier(token:0x4D5595).class (token:0x4D5597)
;	.formal.i4 1,"inData$" SIG: i4
;	.local.mptr 0,"tmpWDDataException$12281" SIG: class (token:0x4D43A5)

;	.proc.beg
; Line 381
	ldarg.1				; inData$
	ldc.i.0		0		; i32 0x0
	bgt.s		$LN1@setWordID
; Line 384
	ldstr		$StringLiteralTok$??_C@_1BG@GAPALFHB@SX?$IK?$JO?$AAI?$AAD0LN?$ANkc0g0Y0?$AC?$AA?$AA@
	newobj		??0WDDatasException@WDDatas@@$$FQ$AAM@P$AAVString@System@@@Z
	stloc.0				; tmpWDDataException$12281
; Line 385
	ldloc.0				; tmpWDDataException$12281
	ldc.i4		10608		; i32 0x2970
	stfld		?ErrorCode@WDDatasException@WDDatas@@3HA
; Line 386
	ldloc.0				; tmpWDDataException$12281
	ldc.i.1		1		; i32 0x1
	stfld		?ErrorCode2@WDDatasException@WDDatas@@3HA
; Line 387
	ldloc.0				; tmpWDDataException$12281
	throw.u2	
$LN1@setWordID:
; Line 390
	ldarg.0				; this$
	ldarg.1				; inData$
	stfld		?WordID@WDRelation@WDDatas@@3HA
; Line 391
	ret		
 .end ?setWordID@WDRelation@WDDatas@@$$FQ$AAMXH@Z	; WDDatas::WDRelation::setWordID
;	.proc.end.void
	.bss
.local	$T12701,0
.local	$StringLiteralTok$??_C@_1BG@FADACBCC@a?$APTs?$AAN?$AAo0LN?$ANkc0g0Y0?$AC?$AA?$AA@,4
; Function compile flags: /Ogtp
	.text
	.comdat	noduplicate, ?setMeanNo@WDRelation@WDDatas@@$$FQ$AAMXH@Z
.global	?setMeanNo@WDRelation@WDDatas@@$$FQ$AAMXH@Z	; WDDatas::WDRelation::setMeanNo
?setMeanNo@WDRelation@WDDatas@@$$FQ$AAMXH@Z:		; WDDatas::WDRelation::setMeanNo
;	.proc.def	D:V(I)

; Function Header:
; max stack depth = 2
; function size = 43 bytes
; local varsig tk = 0x1100000F 
; Exception Information:
; 0 handlers, each consisting of filtered handlers

;	.formal.mptr 0,"this$" SIG: Optional C Binding Modifier(token:0x4D5595).class (token:0x4D5597)
;	.formal.i4 1,"inData$" SIG: i4
;	.local.mptr 0,"tmpWDDataException$12289" SIG: class (token:0x4D43A5)

;	.proc.beg
; Line 397
	ldarg.1				; inData$
	ldc.i.0		0		; i32 0x0
	bgt.s		$LN1@setMeanNo
; Line 400
	ldstr		$StringLiteralTok$??_C@_1BG@FADACBCC@a?$APTs?$AAN?$AAo0LN?$ANkc0g0Y0?$AC?$AA?$AA@
	newobj		??0WDDatasException@WDDatas@@$$FQ$AAM@P$AAVString@System@@@Z
	stloc.0				; tmpWDDataException$12289
; Line 401
	ldloc.0				; tmpWDDataException$12289
	ldc.i4		10609		; i32 0x2971
	stfld		?ErrorCode@WDDatasException@WDDatas@@3HA
; Line 402
	ldloc.0				; tmpWDDataException$12289
	ldc.i.1		1		; i32 0x1
	stfld		?ErrorCode2@WDDatasException@WDDatas@@3HA
; Line 403
	ldloc.0				; tmpWDDataException$12289
	throw.u2	
$LN1@setMeanNo:
; Line 406
	ldarg.0				; this$
	ldarg.1				; inData$
	stfld		?MeanNo@WDRelation@WDDatas@@3HA
; Line 407
	ret		
 .end ?setMeanNo@WDRelation@WDDatas@@$$FQ$AAMXH@Z	; WDDatas::WDRelation::setMeanNo
;	.proc.end.void
	.bss
.local	$T12706,0
.local	$StringLiteralTok$??_C@_1BK@BJJDLPHB@?$JF?$KC?$JA?$CD?$IK?$JO0?$LP0?$KE0?W0LN?$ANkc0g0Y0?$AC?$AA?$AA@,4
; Function compile flags: /Ogtp
	.text
	.comdat	noduplicate, ?setRelationType@WDRelation@WDDatas@@$$FQ$AAMXHH@Z
.global	?setRelationType@WDRelation@WDDatas@@$$FQ$AAMXHH@Z ; WDDatas::WDRelation::setRelationType
?setRelationType@WDRelation@WDDatas@@$$FQ$AAMXHH@Z:	; WDDatas::WDRelation::setRelationType
;	.proc.def	D:V(II)

; Function Header:
; max stack depth = 3
; function size = 105 bytes
; local varsig tk = 0x11000010 
; Exception Information:
; 0 handlers, each consisting of filtered handlers

;	.formal.i4 2,"inIdx$" SIG: i4
;	.formal.mptr 0,"this$" SIG: Optional C Binding Modifier(token:0x4D5595).class (token:0x4D5597)
;	.formal.i4 1,"inData$" SIG: i4
;	.local.mptr 0,"tmpWDDataException$12303" SIG: class (token:0x4D43A5)
;	.local.u4 2,"$T12705" SIG: genericInst (token:0x100000E) <i4>
;	.local.mptr 1,"tmpWDDataException$12298" SIG: class (token:0x4D43A5)

;	.proc.beg
; Line 414
	ldarg.1				; inData$
	ldc.i.0		0		; i32 0x0
	bgt.s		$LN3@setRelatio
; Line 417
	ldstr		$StringLiteralTok$??_C@_1BK@BJJDLPHB@?$JF?$KC?$JA?$CD?$IK?$JO0?$LP0?$KE0?W0LN?$ANkc0g0Y0?$AC?$AA?$AA@
	newobj		??0WDDatasException@WDDatas@@$$FQ$AAM@P$AAVString@System@@@Z
	stloc.1				; tmpWDDataException$12298
; Line 418
	ldloc.1				; tmpWDDataException$12298
	ldc.i4		10610		; i32 0x2972
	stfld		?ErrorCode@WDDatasException@WDDatas@@3HA
; Line 419
	ldloc.1				; tmpWDDataException$12298
	ldc.i.1		1		; i32 0x1
	stfld		?ErrorCode2@WDDatasException@WDDatas@@3HA
; Line 420
	ldloc.1				; tmpWDDataException$12298
	throw.u2	
$LN3@setRelatio:
; Line 424
	ldarg.0				; this$
	ldfld		?RelationType@WDRelation@WDDatas@@3P$AAV?$List@H@Generic@Collections@System@@$AA
	stloc.2				; $T12705
	ldloc.2				; $T12705
	brfalse.s	$LN1@setRelatio
	ldarg.2				; inIdx$
	ldc.i.0		0		; i32 0x0
	blt.s		$LN1@setRelatio
	ldarg.2				; inIdx$
	ldloc.2				; $T12705
	callvirt	?get@Count@?$List@H@Generic@Collections@System@@$$FU$AAMHXZ
	bge.s		$LN1@setRelatio
; Line 434
	ldarg.0				; this$
	ldfld		?RelationType@WDRelation@WDDatas@@3P$AAV?$List@H@Generic@Collections@System@@$AA
	ldarg.2				; inIdx$
	ldarg.1				; inData$
	callvirt	?set@default@?$List@H@Generic@Collections@System@@$$FU$AAMXHH@Z
	br.s		$LN4@setRelatio
$LN1@setRelatio:
; Line 427
	ldstr		$StringLiteralTok$??_C@_1CA@KNNNLHNN@0?$KE0?s0?G0?C0?$KP0?$LJc?$AH?$FL?$JK0L?$HL?DV?rY?$BG0g0Y0?$AC?$AA?$AA@
	newobj		??0WDDatasException@WDDatas@@$$FQ$AAM@P$AAVString@System@@@Z
	stloc.0				; tmpWDDataException$12303
; Line 428
	ldloc.0				; tmpWDDataException$12303
	ldc.i4		10610		; i32 0x2972
	stfld		?ErrorCode@WDDatasException@WDDatas@@3HA
; Line 429
	ldloc.0				; tmpWDDataException$12303
	ldc.i.2		2		; i32 0x2
	stfld		?ErrorCode2@WDDatasException@WDDatas@@3HA
; Line 430
	ldloc.0				; tmpWDDataException$12303
	throw.u2	
$LN4@setRelatio:
; Line 435
	ret		
 .end ?setRelationType@WDRelation@WDDatas@@$$FQ$AAMXHH@Z ; WDDatas::WDRelation::setRelationType
;	.proc.end.void
	.bss
.local	$T12711,0
.local	$StringLiteralTok$??_C@_1BI@EGNENEHB@?$JF?$KC?$JA?$CD?$IK?$JO?$AAI?$AAD0LN?$ANkc0g0Y0?$AC?$AA?$AA@,4
; Function compile flags: /Ogtp
	.text
	.comdat	noduplicate, ?setRelationID@WDRelation@WDDatas@@$$FQ$AAMXHH@Z
.global	?setRelationID@WDRelation@WDDatas@@$$FQ$AAMXHH@Z ; WDDatas::WDRelation::setRelationID
?setRelationID@WDRelation@WDDatas@@$$FQ$AAMXHH@Z:	; WDDatas::WDRelation::setRelationID
;	.proc.def	D:V(II)

; Function Header:
; max stack depth = 3
; function size = 105 bytes
; local varsig tk = 0x11000010 
; Exception Information:
; 0 handlers, each consisting of filtered handlers

;	.formal.i4 2,"inIdx$" SIG: i4
;	.formal.mptr 0,"this$" SIG: Optional C Binding Modifier(token:0x4D5595).class (token:0x4D5597)
;	.formal.i4 1,"inData$" SIG: i4
;	.local.mptr 0,"tmpWDDataException$12316" SIG: class (token:0x4D43A5)
;	.local.u4 2,"$T12710" SIG: genericInst (token:0x100000E) <i4>
;	.local.mptr 1,"tmpWDDataException$12311" SIG: class (token:0x4D43A5)

;	.proc.beg
; Line 441
	ldarg.1				; inData$
	ldc.i.0		0		; i32 0x0
	bgt.s		$LN3@setRelatio@2
; Line 444
	ldstr		$StringLiteralTok$??_C@_1BI@EGNENEHB@?$JF?$KC?$JA?$CD?$IK?$JO?$AAI?$AAD0LN?$ANkc0g0Y0?$AC?$AA?$AA@
	newobj		??0WDDatasException@WDDatas@@$$FQ$AAM@P$AAVString@System@@@Z
	stloc.1				; tmpWDDataException$12311
; Line 445
	ldloc.1				; tmpWDDataException$12311
	ldc.i4		10611		; i32 0x2973
	stfld		?ErrorCode@WDDatasException@WDDatas@@3HA
; Line 446
	ldloc.1				; tmpWDDataException$12311
	ldc.i.1		1		; i32 0x1
	stfld		?ErrorCode2@WDDatasException@WDDatas@@3HA
; Line 447
	ldloc.1				; tmpWDDataException$12311
	throw.u2	
$LN3@setRelatio@2:
; Line 451
	ldarg.0				; this$
	ldfld		?RelationID@WDRelation@WDDatas@@3P$AAV?$List@H@Generic@Collections@System@@$AA
	stloc.2				; $T12710
	ldloc.2				; $T12710
	brfalse.s	$LN1@setRelatio@2
	ldarg.2				; inIdx$
	ldc.i.0		0		; i32 0x0
	blt.s		$LN1@setRelatio@2
	ldarg.2				; inIdx$
	ldloc.2				; $T12710
	callvirt	?get@Count@?$List@H@Generic@Collections@System@@$$FU$AAMHXZ
	bge.s		$LN1@setRelatio@2
; Line 461
	ldarg.0				; this$
	ldfld		?RelationID@WDRelation@WDDatas@@3P$AAV?$List@H@Generic@Collections@System@@$AA
	ldarg.2				; inIdx$
	ldarg.1				; inData$
	callvirt	?set@default@?$List@H@Generic@Collections@System@@$$FU$AAMXHH@Z
	br.s		$LN4@setRelatio@2
$LN1@setRelatio@2:
; Line 454
	ldstr		$StringLiteralTok$??_C@_1CA@KNNNLHNN@0?$KE0?s0?G0?C0?$KP0?$LJc?$AH?$FL?$JK0L?$HL?DV?rY?$BG0g0Y0?$AC?$AA?$AA@
	newobj		??0WDDatasException@WDDatas@@$$FQ$AAM@P$AAVString@System@@@Z
	stloc.0				; tmpWDDataException$12316
; Line 455
	ldloc.0				; tmpWDDataException$12316
	ldc.i4		10611		; i32 0x2973
	stfld		?ErrorCode@WDDatasException@WDDatas@@3HA
; Line 456
	ldloc.0				; tmpWDDataException$12316
	ldc.i.2		2		; i32 0x2
	stfld		?ErrorCode2@WDDatasException@WDDatas@@3HA
; Line 457
	ldloc.0				; tmpWDDataException$12316
	throw.u2	
$LN4@setRelatio@2:
; Line 462
	ret		
 .end ?setRelationID@WDRelation@WDDatas@@$$FQ$AAMXHH@Z	; WDDatas::WDRelation::setRelationID
;	.proc.end.void
	.bss
.local	$T12716,0
.local	$StringLiteralTok$??_C@_1BM@GGCKLGIJ@?$JF?$KC?$JA?$CD?$IK?$JOa?$APTs?$AAN?$AAo0LN?$ANkc0g0Y0?$AC?$AA?$AA@,4
; Function compile flags: /Ogtp
	.text
	.comdat	noduplicate, ?setRelationNo@WDRelation@WDDatas@@$$FQ$AAMXHH@Z
.global	?setRelationNo@WDRelation@WDDatas@@$$FQ$AAMXHH@Z ; WDDatas::WDRelation::setRelationNo
?setRelationNo@WDRelation@WDDatas@@$$FQ$AAMXHH@Z:	; WDDatas::WDRelation::setRelationNo
;	.proc.def	D:V(II)

; Function Header:
; max stack depth = 3
; function size = 105 bytes
; local varsig tk = 0x11000010 
; Exception Information:
; 0 handlers, each consisting of filtered handlers

;	.formal.i4 2,"inIdx$" SIG: i4
;	.formal.mptr 0,"this$" SIG: Optional C Binding Modifier(token:0x4D5595).class (token:0x4D5597)
;	.formal.i4 1,"inData$" SIG: i4
;	.local.mptr 0,"tmpWDDataException$12329" SIG: class (token:0x4D43A5)
;	.local.u4 2,"$T12715" SIG: genericInst (token:0x100000E) <i4>
;	.local.mptr 1,"tmpWDDataException$12324" SIG: class (token:0x4D43A5)

;	.proc.beg
; Line 468
	ldarg.1				; inData$
	ldc.i.0		0		; i32 0x0
	bgt.s		$LN3@setRelatio@3
; Line 471
	ldstr		$StringLiteralTok$??_C@_1BM@GGCKLGIJ@?$JF?$KC?$JA?$CD?$IK?$JOa?$APTs?$AAN?$AAo0LN?$ANkc0g0Y0?$AC?$AA?$AA@
	newobj		??0WDDatasException@WDDatas@@$$FQ$AAM@P$AAVString@System@@@Z
	stloc.1				; tmpWDDataException$12324
; Line 472
	ldloc.1				; tmpWDDataException$12324
	ldc.i4		10618		; i32 0x297a
	stfld		?ErrorCode@WDDatasException@WDDatas@@3HA
; Line 473
	ldloc.1				; tmpWDDataException$12324
	ldc.i.1		1		; i32 0x1
	stfld		?ErrorCode2@WDDatasException@WDDatas@@3HA
; Line 474
	ldloc.1				; tmpWDDataException$12324
	throw.u2	
$LN3@setRelatio@3:
; Line 478
	ldarg.0				; this$
	ldfld		?RelationNo@WDRelation@WDDatas@@3P$AAV?$List@H@Generic@Collections@System@@$AA
	stloc.2				; $T12715
	ldloc.2				; $T12715
	brfalse.s	$LN1@setRelatio@3
	ldarg.2				; inIdx$
	ldc.i.0		0		; i32 0x0
	blt.s		$LN1@setRelatio@3
	ldarg.2				; inIdx$
	ldloc.2				; $T12715
	callvirt	?get@Count@?$List@H@Generic@Collections@System@@$$FU$AAMHXZ
	bge.s		$LN1@setRelatio@3
; Line 488
	ldarg.0				; this$
	ldfld		?RelationNo@WDRelation@WDDatas@@3P$AAV?$List@H@Generic@Collections@System@@$AA
	ldarg.2				; inIdx$
	ldarg.1				; inData$
	callvirt	?set@default@?$List@H@Generic@Collections@System@@$$FU$AAMXHH@Z
	br.s		$LN4@setRelatio@3
$LN1@setRelatio@3:
; Line 481
	ldstr		$StringLiteralTok$??_C@_1CA@KNNNLHNN@0?$KE0?s0?G0?C0?$KP0?$LJc?$AH?$FL?$JK0L?$HL?DV?rY?$BG0g0Y0?$AC?$AA?$AA@
	newobj		??0WDDatasException@WDDatas@@$$FQ$AAM@P$AAVString@System@@@Z
	stloc.0				; tmpWDDataException$12329
; Line 482
	ldloc.0				; tmpWDDataException$12329
	ldc.i4		10618		; i32 0x297a
	stfld		?ErrorCode@WDDatasException@WDDatas@@3HA
; Line 483
	ldloc.0				; tmpWDDataException$12329
	ldc.i.2		2		; i32 0x2
	stfld		?ErrorCode2@WDDatasException@WDDatas@@3HA
; Line 484
	ldloc.0				; tmpWDDataException$12329
	throw.u2	
$LN4@setRelatio@3:
; Line 489
	ret		
 .end ?setRelationNo@WDRelation@WDDatas@@$$FQ$AAMXHH@Z	; WDDatas::WDRelation::setRelationNo
;	.proc.end.void
	.bss
.local	$T12720,0
.local	$StringLiteralTok$??_C@_1CE@NJOPBFBL@?$JF?$KC?$JA?$CD?$IK?$JO?$GA?EX10kN?$ANetT?$AI0Lvzu?$BP0W0?$HO0W0_0?$AC?$AA?$AA@,4
; Function compile flags: /Ogtp
	.text
	.comdat	noduplicate, ?AddRelation@WDRelation@WDDatas@@$$FQ$AAMXHHH@Z
.global	?AddRelation@WDRelation@WDDatas@@$$FQ$AAMXHHH@Z	; WDDatas::WDRelation::AddRelation
?AddRelation@WDRelation@WDDatas@@$$FQ$AAMXHHH@Z:	; WDDatas::WDRelation::AddRelation
;	.proc.def	D:V(III)

; Function Header:
; max stack depth = 2
; function size = 262 bytes
; local varsig tk = 0x11000011 
; Exception Information:
; 0 handlers, each consisting of filtered handlers

;	.formal.mptr 0,"this$" SIG: Optional C Binding Modifier(token:0x4D5595).class (token:0x4D5597)
;	.formal.i4 3,"inNo$" SIG: i4
;	.formal.i4 2,"inID$" SIG: i4
;	.formal.i4 1,"inType$" SIG: i4
;	.local.mptr 0,"tmpWDDataException$12355" SIG: class (token:0x4D43A5)
;	.local.mptr 1,"tmpWDDataException$12344" SIG: class (token:0x4D43A5)
;	.local.mptr 2,"tmpWDDataException$12341" SIG: class (token:0x4D43A5)
;	.local.mptr 3,"tmpWDDataException$12338" SIG: class (token:0x4D43A5)

;	.proc.beg
; Line 494
	ldarg.1				; inType$
	ldc.i.0		0		; i32 0x0
	bge.s		$LN6@AddRelatio
; Line 497
	ldstr		$StringLiteralTok$??_C@_1BK@BJJDLPHB@?$JF?$KC?$JA?$CD?$IK?$JO0?$LP0?$KE0?W0LN?$ANkc0g0Y0?$AC?$AA?$AA@
	newobj		??0WDDatasException@WDDatas@@$$FQ$AAM@P$AAVString@System@@@Z
	stloc.3				; tmpWDDataException$12338
; Line 498
	ldloc.3				; tmpWDDataException$12338
	ldc.i4		10612		; i32 0x2974
	stfld		?ErrorCode@WDDatasException@WDDatas@@3HA
; Line 499
	ldloc.3				; tmpWDDataException$12338
	ldc.i.1		1		; i32 0x1
	stfld		?ErrorCode2@WDDatasException@WDDatas@@3HA
; Line 500
	ldloc.3				; tmpWDDataException$12338
	throw.u2	
$LN6@AddRelatio:
; Line 502
	ldarg.2				; inID$
	ldc.i.0		0		; i32 0x0
	bgt.s		$LN5@AddRelatio
; Line 505
	ldstr		$StringLiteralTok$??_C@_1BI@EGNENEHB@?$JF?$KC?$JA?$CD?$IK?$JO?$AAI?$AAD0LN?$ANkc0g0Y0?$AC?$AA?$AA@
	newobj		??0WDDatasException@WDDatas@@$$FQ$AAM@P$AAVString@System@@@Z
	stloc.2				; tmpWDDataException$12341
; Line 506
	ldloc.2				; tmpWDDataException$12341
	ldc.i4		10612		; i32 0x2974
	stfld		?ErrorCode@WDDatasException@WDDatas@@3HA
; Line 507
	ldloc.2				; tmpWDDataException$12341
	ldc.i.2		2		; i32 0x2
	stfld		?ErrorCode2@WDDatasException@WDDatas@@3HA
; Line 508
	ldloc.2				; tmpWDDataException$12341
	throw.u2	
$LN5@AddRelatio:
; Line 511
	ldarg.3				; inNo$
	ldc.i.0		0		; i32 0x0
	bgt.s		$LN4@AddRelatio
; Line 514
	ldstr		$StringLiteralTok$??_C@_1BM@GGCKLGIJ@?$JF?$KC?$JA?$CD?$IK?$JOa?$APTs?$AAN?$AAo0LN?$ANkc0g0Y0?$AC?$AA?$AA@
	newobj		??0WDDatasException@WDDatas@@$$FQ$AAM@P$AAVString@System@@@Z
	stloc.1				; tmpWDDataException$12344
; Line 515
	ldloc.1				; tmpWDDataException$12344
	ldc.i4		10612		; i32 0x2974
	stfld		?ErrorCode@WDDatasException@WDDatas@@3HA
; Line 516
	ldloc.1				; tmpWDDataException$12344
	ldc.i.3		3		; i32 0x3
	stfld		?ErrorCode2@WDDatasException@WDDatas@@3HA
; Line 517
	ldloc.1				; tmpWDDataException$12344
	throw.u2	
$LN4@AddRelatio:
; Line 520
	ldarg.0				; this$
	ldfld		?RelationType@WDRelation@WDDatas@@3P$AAV?$List@H@Generic@Collections@System@@$AA
	brtrue.s	$LN3@AddRelatio
; Line 522
	ldarg.0				; this$
	newobj		??0?$List@H@Generic@Collections@System@@$$FQ$AAM@XZ
	stfld		?RelationType@WDRelation@WDDatas@@3P$AAV?$List@H@Generic@Collections@System@@$AA
; Line 523
	ldarg.0				; this$
	newobj		??0?$List@H@Generic@Collections@System@@$$FQ$AAM@XZ
	stfld		?RelationID@WDRelation@WDDatas@@3P$AAV?$List@H@Generic@Collections@System@@$AA
; Line 524
	ldarg.0				; this$
	newobj		??0?$List@H@Generic@Collections@System@@$$FQ$AAM@XZ
	stfld		?RelationNo@WDRelation@WDDatas@@3P$AAV?$List@H@Generic@Collections@System@@$AA
$LN3@AddRelatio:
; Line 527
	ldarg.0				; this$
	ldfld		?RelationType@WDRelation@WDDatas@@3P$AAV?$List@H@Generic@Collections@System@@$AA
	ldarg.1				; inType$
	callvirt	?Add@?$List@H@Generic@Collections@System@@$$FU$AAMXH@Z
; Line 528
	ldarg.0				; this$
	ldfld		?RelationID@WDRelation@WDDatas@@3P$AAV?$List@H@Generic@Collections@System@@$AA
	ldarg.2				; inID$
	callvirt	?Add@?$List@H@Generic@Collections@System@@$$FU$AAMXH@Z
; Line 529
	ldarg.0				; this$
	ldfld		?RelationNo@WDRelation@WDDatas@@3P$AAV?$List@H@Generic@Collections@System@@$AA
	ldarg.3				; inNo$
	callvirt	?Add@?$List@H@Generic@Collections@System@@$$FU$AAMXH@Z
; Line 532
	ldarg.0				; this$
	ldfld		?RelationType@WDRelation@WDDatas@@3P$AAV?$List@H@Generic@Collections@System@@$AA
	callvirt	?get@Count@?$List@H@Generic@Collections@System@@$$FU$AAMHXZ
	ldarg.0				; this$
	ldfld		?RelationID@WDRelation@WDDatas@@3P$AAV?$List@H@Generic@Collections@System@@$AA
	callvirt	?get@Count@?$List@H@Generic@Collections@System@@$$FU$AAMHXZ
	bne.un.s	$LN1@AddRelatio
	ldarg.0				; this$
	ldfld		?RelationType@WDRelation@WDDatas@@3P$AAV?$List@H@Generic@Collections@System@@$AA
	callvirt	?get@Count@?$List@H@Generic@Collections@System@@$$FU$AAMHXZ
	ldarg.0				; this$
	ldfld		?RelationNo@WDRelation@WDDatas@@3P$AAV?$List@H@Generic@Collections@System@@$AA
	callvirt	?get@Count@?$List@H@Generic@Collections@System@@$$FU$AAMHXZ
	beq.s		$LN2@AddRelatio
$LN1@AddRelatio:
; Line 535
	ldstr		$StringLiteralTok$??_C@_1CE@NJOPBFBL@?$JF?$KC?$JA?$CD?$IK?$JO?$GA?EX10kN?$ANetT?$AI0Lvzu?$BP0W0?$HO0W0_0?$AC?$AA?$AA@
	newobj		??0WDDatasException@WDDatas@@$$FQ$AAM@P$AAVString@System@@@Z
	stloc.0				; tmpWDDataException$12355
; Line 536
	ldloc.0				; tmpWDDataException$12355
	ldc.i4		10612		; i32 0x2974
	stfld		?ErrorCode@WDDatasException@WDDatas@@3HA
; Line 537
	ldloc.0				; tmpWDDataException$12355
	ldc.i.4		4		; i32 0x4
	stfld		?ErrorCode2@WDDatasException@WDDatas@@3HA
; Line 538
	ldloc.0				; tmpWDDataException$12355
	throw.u2	
$LN2@AddRelatio:
; Line 540
	ret		
 .end ?AddRelation@WDRelation@WDDatas@@$$FQ$AAMXHHH@Z	; WDDatas::WDRelation::AddRelation
;	.proc.end.void
	.bss
.local	$T12725,0
; Function compile flags: /Ogtp
	.text
	.comdat	noduplicate, ?RemoveRelation@WDRelation@WDDatas@@$$FQ$AAMXH@Z
.global	?RemoveRelation@WDRelation@WDDatas@@$$FQ$AAMXH@Z ; WDDatas::WDRelation::RemoveRelation
?RemoveRelation@WDRelation@WDDatas@@$$FQ$AAMXH@Z:	; WDDatas::WDRelation::RemoveRelation
;	.proc.def	D:V(I)

; Function Header:
; max stack depth = 2
; function size = 176 bytes
; local varsig tk = 0x11000010 
; Exception Information:
; 0 handlers, each consisting of filtered handlers

;	.formal.i4 1,"inIdx$" SIG: i4
;	.formal.mptr 0,"this$" SIG: Optional C Binding Modifier(token:0x4D5595).class (token:0x4D5597)
;	.local.mptr 0,"tmpWDDataException$12364" SIG: class (token:0x4D43A5)
;	.local.mptr 1,"tmpWDDataException$12368" SIG: class (token:0x4D43A5)
;	.local.u4 2,"$T12724" SIG: genericInst (token:0x100000E) <i4>

;	.proc.beg
; Line 547
	ldarg.0				; this$
	ldfld		?RelationType@WDRelation@WDDatas@@3P$AAV?$List@H@Generic@Collections@System@@$AA
	stloc.2				; $T12724
	ldloc.2				; $T12724
	brfalse		$LN3@RemoveRela
	ldarg.1				; inIdx$
	ldc.i.0		0		; i32 0x0
	blt		$LN3@RemoveRela
	ldarg.1				; inIdx$
	ldloc.2				; $T12724
	callvirt	?get@Count@?$List@H@Generic@Collections@System@@$$FU$AAMHXZ
	bge.s		$LN3@RemoveRela
; Line 556
	ldarg.0				; this$
	ldfld		?RelationType@WDRelation@WDDatas@@3P$AAV?$List@H@Generic@Collections@System@@$AA
	ldarg.1				; inIdx$
	callvirt	?RemoveAt@?$List@H@Generic@Collections@System@@$$FU$AAMXH@Z
; Line 557
	ldarg.0				; this$
	ldfld		?RelationID@WDRelation@WDDatas@@3P$AAV?$List@H@Generic@Collections@System@@$AA
	ldarg.1				; inIdx$
	callvirt	?RemoveAt@?$List@H@Generic@Collections@System@@$$FU$AAMXH@Z
; Line 558
	ldarg.0				; this$
	ldfld		?RelationNo@WDRelation@WDDatas@@3P$AAV?$List@H@Generic@Collections@System@@$AA
	ldarg.1				; inIdx$
	callvirt	?RemoveAt@?$List@H@Generic@Collections@System@@$$FU$AAMXH@Z
; Line 561
	ldarg.0				; this$
	ldfld		?RelationType@WDRelation@WDDatas@@3P$AAV?$List@H@Generic@Collections@System@@$AA
	callvirt	?get@Count@?$List@H@Generic@Collections@System@@$$FU$AAMHXZ
	ldarg.0				; this$
	ldfld		?RelationID@WDRelation@WDDatas@@3P$AAV?$List@H@Generic@Collections@System@@$AA
	callvirt	?get@Count@?$List@H@Generic@Collections@System@@$$FU$AAMHXZ
	bne.un.s	$LN1@RemoveRela
	ldarg.0				; this$
	ldfld		?RelationType@WDRelation@WDDatas@@3P$AAV?$List@H@Generic@Collections@System@@$AA
	callvirt	?get@Count@?$List@H@Generic@Collections@System@@$$FU$AAMHXZ
	ldarg.0				; this$
	ldfld		?RelationNo@WDRelation@WDDatas@@3P$AAV?$List@H@Generic@Collections@System@@$AA
	callvirt	?get@Count@?$List@H@Generic@Collections@System@@$$FU$AAMHXZ
	beq.s		$LN2@RemoveRela
$LN1@RemoveRela:
; Line 564
	ldstr		$StringLiteralTok$??_C@_1CE@NJOPBFBL@?$JF?$KC?$JA?$CD?$IK?$JO?$GA?EX10kN?$ANetT?$AI0Lvzu?$BP0W0?$HO0W0_0?$AC?$AA?$AA@
	newobj		??0WDDatasException@WDDatas@@$$FQ$AAM@P$AAVString@System@@@Z
	stloc.1				; tmpWDDataException$12368
; Line 565
	ldloc.1				; tmpWDDataException$12368
	ldc.i4		10613		; i32 0x2975
	stfld		?ErrorCode@WDDatasException@WDDatas@@3HA
; Line 566
	ldloc.1				; tmpWDDataException$12368
	ldc.i.2		2		; i32 0x2
	stfld		?ErrorCode2@WDDatasException@WDDatas@@3HA
; Line 567
	ldloc.1				; tmpWDDataException$12368
	throw.u2	
$LN3@RemoveRela:
; Line 550
	ldstr		$StringLiteralTok$??_C@_1CA@KNNNLHNN@0?$KE0?s0?G0?C0?$KP0?$LJc?$AH?$FL?$JK0L?$HL?DV?rY?$BG0g0Y0?$AC?$AA?$AA@
	newobj		??0WDDatasException@WDDatas@@$$FQ$AAM@P$AAVString@System@@@Z
	stloc.0				; tmpWDDataException$12364
; Line 551
	ldloc.0				; tmpWDDataException$12364
	ldc.i4		10613		; i32 0x2975
	stfld		?ErrorCode@WDDatasException@WDDatas@@3HA
; Line 552
	ldloc.0				; tmpWDDataException$12364
	ldc.i.1		1		; i32 0x1
	stfld		?ErrorCode2@WDDatasException@WDDatas@@3HA
; Line 553
	ldloc.0				; tmpWDDataException$12364
	throw.u2	
$LN2@RemoveRela:
; Line 569
	ret		
 .end ?RemoveRelation@WDRelation@WDDatas@@$$FQ$AAMXH@Z	; WDDatas::WDRelation::RemoveRelation
;	.proc.end.void
	.bss
.local	$T12729,0
.local	$StringLiteralTok$??_C@_1BM@DPENOOOG@?$JF?$KC?$JA?$CD?$IK?$JO?$GA?EX10n0?$KC0?$KE0?F0?$OAep0L0?$AC?$AA?$AA@,4
; Function compile flags: /Ogtp
	.text
	.comdat	noduplicate, ?CountRelation@WDRelation@WDDatas@@$$FQ$AAMHXZ
.global	?CountRelation@WDRelation@WDDatas@@$$FQ$AAMHXZ	; WDDatas::WDRelation::CountRelation
?CountRelation@WDRelation@WDDatas@@$$FQ$AAMHXZ:		; WDDatas::WDRelation::CountRelation
;	.proc.def	D:I()

; Function Header:
; max stack depth = 2
; function size = 77 bytes
; local varsig tk = 0x1100000F 
; Exception Information:
; 0 handlers, each consisting of filtered handlers

;	.formal.mptr 0,"this$" SIG: Optional C Binding Modifier(token:0x4D5595).class (token:0x4D5597)
;	.local.mptr 0,"tmpWDDataException$12377" SIG: class (token:0x4D43A5)

;	.proc.beg
; Line 574
	ldarg.0				; this$
	ldfld		?RelationType@WDRelation@WDDatas@@3P$AAV?$List@H@Generic@Collections@System@@$AA
	brtrue.s	$LN3@CountRelat
; Line 576
	ldc.i.0		0		; i32 0x0
	ret		
$LN3@CountRelat:
; Line 578
	ldarg.0				; this$
	ldfld		?RelationType@WDRelation@WDDatas@@3P$AAV?$List@H@Generic@Collections@System@@$AA
	callvirt	?get@Count@?$List@H@Generic@Collections@System@@$$FU$AAMHXZ
	ldarg.0				; this$
	ldfld		?RelationID@WDRelation@WDDatas@@3P$AAV?$List@H@Generic@Collections@System@@$AA
	callvirt	?get@Count@?$List@H@Generic@Collections@System@@$$FU$AAMHXZ
	beq.s		$LN1@CountRelat
; Line 581
	ldstr		$StringLiteralTok$??_C@_1BM@DPENOOOG@?$JF?$KC?$JA?$CD?$IK?$JO?$GA?EX10n0?$KC0?$KE0?F0?$OAep0L0?$AC?$AA?$AA@
	newobj		??0WDDatasException@WDDatas@@$$FQ$AAM@P$AAVString@System@@@Z
	stloc.0				; tmpWDDataException$12377
; Line 582
	ldloc.0				; tmpWDDataException$12377
	ldc.i4		10616		; i32 0x2978
	stfld		?ErrorCode@WDDatasException@WDDatas@@3HA
; Line 583
	ldloc.0				; tmpWDDataException$12377
	ldc.i.1		1		; i32 0x1
	stfld		?ErrorCode2@WDDatasException@WDDatas@@3HA
; Line 584
	ldloc.0				; tmpWDDataException$12377
	throw.u2	
$LN1@CountRelat:
; Line 587
	ldarg.0				; this$
	ldfld		?RelationType@WDRelation@WDDatas@@3P$AAV?$List@H@Generic@Collections@System@@$AA
	callvirt	?get@Count@?$List@H@Generic@Collections@System@@$$FU$AAMHXZ
	ret		
 .end ?CountRelation@WDRelation@WDDatas@@$$FQ$AAMHXZ	; WDDatas::WDRelation::CountRelation
;	.proc.end.i4
.global	
.global	
	.bss
.local	$T12754,0
.local	$StringLiteralTok$??_C@_1CA@PDKIJOOO@0?G0?$PM0?$LP0n0?$LD0?T0?$PM0kY1eW0W0?$HO0W0_0?$AC?$AA?$AA@,4
.local	$TypeTok$110DD6FC$,4
.local	$StringLiteralTok$??_C@_1CA@DCBKAEPK@0?$LD0?T0?$PMQH0?G0?$PM0?$LP?$JFw0Lw?m0Y0N0?$HO0Y0?$AC?$AA?$AA@,4
.local	,4
.local	,4
; Function compile flags: /Ogtp
	.text
	.comdat	noduplicate, ?getData@WDRelation@WDDatas@@$$FA$AAMP$01AEP$01AE@Z
.global	?getData@WDRelation@WDDatas@@$$FA$AAMP$01AEP$01AE@Z ; WDDatas::WDRelation::getData
?getData@WDRelation@WDDatas@@$$FA$AAMP$01AEP$01AE@Z:	; WDDatas::WDRelation::getData
;	.proc.def	D:P(P)

; Function Header:
; max stack depth = 4
; function size = 279 bytes
; local varsig tk = 0x11000014 
; Exception Information:
; 1 handlers, each consisting of filtered handlers

;	.formal.mptr 0,"this$" SIG: Optional C Binding Modifier(token:0x4D5595).class (token:0x4D5597)
;	.formal.mptr 1,"inData$" SIG: szarray (token:0x4CB9D9)
;	.local.mptr 3,"tmpWDDataException$12473" SIG: class (token:0x4D43A5)
;	.local.mptr 7,"exp$12472" SIG: class (token:0x4D4319)
;	.local.i4 2,"i$12468" SIG: i4
;	.local.i4 0,"tmpPos$" SIG: i4
;	.local.mptr 4,"tmpWDDataException$12390" SIG: class (token:0x4D43A5)
;	.local.i4 5,"tmpRelationSize$12741" SIG: i4
;	.local.u4 6,"$T12750" SIG: genericInst (token:0x100000E) <i4>
;	.local.mptr 1,"rtData$" SIG: szarray (token:0x4CB9D9)

;	.proc.beg
; Line 596
	ldnull		0		; i32 0x0
	stloc.1				; rtData$
; Line 602
	ldarg.1				; inData$
	brfalse.s	$LN7@getData
	ldarg.0				; this$
	ldfld		?RelationType@WDRelation@WDDatas@@3P$AAV?$List@H@Generic@Collections@System@@$AA
	stloc.s		6		; $T12750
	ldloc.s		6		; $T12750
	brtrue.s	$LN17@getData
	ldc.i.0		0		; i32 0x0
	stloc.s		5		; tmpRelationSize$12741
	br.s		$LN16@getData
$LN17@getData:
	ldloc.s		6		; $T12750
	callvirt	?get@Count@?$List@H@Generic@Collections@System@@$$FU$AAMHXZ
	ldc.i4.s	12		; i32 0xc
	mul		
	stloc.s		5		; tmpRelationSize$12741
$LN16@getData:
	ldarg.1				; inData$
	ldlen		
	ldloc.s		5		; tmpRelationSize$12741
	ldc.i4.s	12		; i32 0xc
	add		
	bge.s		$LN7@getData
; Line 605
	ldstr		$StringLiteralTok$??_C@_1CA@DCBKAEPK@0?$LD0?T0?$PMQH0?G0?$PM0?$LP?$JFw0Lw?m0Y0N0?$HO0Y0?$AC?$AA?$AA@
	newobj		??0WDDatasException@WDDatas@@$$FQ$AAM@P$AAVString@System@@@Z
	stloc.s		4		; tmpWDDataException$12390
; Line 606
	ldloc.s		4		; tmpWDDataException$12390
	ldc.i4		10614		; i32 0x2976
	stfld		?ErrorCode@WDDatasException@WDDatas@@3HA
; Line 607
	ldloc.s		4		; tmpWDDataException$12390
	ldc.i.1		1		; i32 0x1
	stfld		?ErrorCode2@WDDatasException@WDDatas@@3HA
; Line 608
	ldloc.s		4		; tmpWDDataException$12390
	throw.u2	
$LN7@getData:
	nop		
$LN24@getData:
; Line 614
	ldarg.1				; inData$
	brtrue.s	$LN5@getData
; Line 616
	ldarg.0				; this$
	call		?DataLength@WDRelation@WDDatas@@$$FQ$AAMHXZ
	newarr		$TypeTok$110DD6FC$
	stloc.1				; rtData$
; Line 617
	br.s		$LN4@getData
$LN5@getData:
; Line 618
	ldarg.1				; inData$
	stloc.1				; rtData$
$LN4@getData:
; Line 621
	ldc.i.0		0		; i32 0x0
	stloc.0				; tmpPos$
; Line 623
	ldarg.0				; this$
	ldfld		?WordID@WDRelation@WDDatas@@3HA
	ldloc.1				; rtData$
	ldc.i.0		0		; i32 0x0
	call		?Int32ToArray@FJIFuncs@FJIsam@@$$FSMP$01AEHP$01AEH@Z
	pop		
; Line 624
	ldc.i.4		4		; i32 0x4
	stloc.0				; tmpPos$
; Line 626
	ldarg.0				; this$
	ldfld		?MeanNo@WDRelation@WDDatas@@3HA
	ldloc.1				; rtData$
	ldc.i.4		4		; i32 0x4
	call		?Int32ToArray@FJIFuncs@FJIsam@@$$FSMP$01AEHP$01AEH@Z
	pop		
; Line 627
	ldc.i.8		8		; i32 0x8
	stloc.0				; tmpPos$
; Line 629
	ldarg.0				; this$
	call		?CountRelation@WDRelation@WDDatas@@$$FQ$AAMHXZ
	ldloc.1				; rtData$
	ldc.i.8		8		; i32 0x8
	call		?Int32ToArray@FJIFuncs@FJIsam@@$$FSMP$01AEHP$01AEH@Z
	pop		
; Line 630
	ldc.i4.s	12		; i32 0xc
	stloc.0				; tmpPos$
; Line 632
	ldc.i.0		0		; i32 0x0
	stloc.2				; i$12468
$LL3@getData:
	ldloc.2				; i$12468
	ldarg.0				; this$
	call		?CountRelation@WDRelation@WDDatas@@$$FQ$AAMHXZ
	bge.s		$LN1@getData
; Line 634
	ldarg.0				; this$
	ldfld		?RelationType@WDRelation@WDDatas@@3P$AAV?$List@H@Generic@Collections@System@@$AA
	ldloc.2				; i$12468
	callvirt	?get@default@?$List@H@Generic@Collections@System@@$$FU$AAMHH@Z
	ldloc.1				; rtData$
	ldloc.0				; tmpPos$
	call		?Int32ToArray@FJIFuncs@FJIsam@@$$FSMP$01AEHP$01AEH@Z
	pop		
; Line 635
	ldloc.0				; tmpPos$
	ldc.i.4		4		; i32 0x4
	add		
	stloc.0				; tmpPos$
; Line 637
	ldarg.0				; this$
	ldfld		?RelationID@WDRelation@WDDatas@@3P$AAV?$List@H@Generic@Collections@System@@$AA
	ldloc.2				; i$12468
	callvirt	?get@default@?$List@H@Generic@Collections@System@@$$FU$AAMHH@Z
	ldloc.1				; rtData$
	ldloc.0				; tmpPos$
	call		?Int32ToArray@FJIFuncs@FJIsam@@$$FSMP$01AEHP$01AEH@Z
	pop		
; Line 638
	ldloc.0				; tmpPos$
	ldc.i.4		4		; i32 0x4
	add		
	stloc.0				; tmpPos$
; Line 640
	ldarg.0				; this$
	ldfld		?RelationNo@WDRelation@WDDatas@@3P$AAV?$List@H@Generic@Collections@System@@$AA
	ldloc.2				; i$12468
	callvirt	?get@default@?$List@H@Generic@Collections@System@@$$FU$AAMHH@Z
	ldloc.1				; rtData$
	ldloc.0				; tmpPos$
	call		?Int32ToArray@FJIFuncs@FJIsam@@$$FSMP$01AEHP$01AEH@Z
	pop		
; Line 641
	ldloc.0				; tmpPos$
	ldc.i.4		4		; i32 0x4
	add		
	stloc.0				; tmpPos$
; Line 632
	ldloc.2				; i$12468
	ldc.i.1		1		; i32 0x1
	add		
	stloc.2				; i$12468
	br.s		$LL3@getData
$LN1@getData:
; Line 642
	leave.s		$LN10@getData
__catch$?getData@WDRelation@WDDatas@@$$FA$AAMP$01AEP$01AE@Z$0:
; Line 644
	imp.push	
	stloc.s		7		; exp$12472
; Line 646
	ldstr		$StringLiteralTok$??_C@_1CA@PDKIJOOO@0?G0?$PM0?$LP0n0?$LD0?T0?$PM0kY1eW0W0?$HO0W0_0?$AC?$AA?$AA@
	ldloc.s		7		; exp$12472
	newobj		??0WDDatasException@WDDatas@@$$FQ$AAM@P$AAVString@System@@P$AAVException@3@@Z
	stloc.3				; tmpWDDataException$12473
; Line 647
	ldloc.3				; tmpWDDataException$12473
	ldc.i4		10614		; i32 0x2976
	stfld		?ErrorCode@WDDatasException@WDDatas@@3HA
; Line 648
	ldloc.3				; tmpWDDataException$12473
	ldc.i.2		2		; i32 0x2
	stfld		?ErrorCode2@WDDatasException@WDDatas@@3HA
; Line 649
	ldloc.3				; tmpWDDataException$12473
	throw.u2	
$LN15@getData:
	leave.s		$LN10@getData
$LN10@getData:
; Line 653
	ldloc.1				; rtData$
	ret		
 .end ?getData@WDRelation@WDDatas@@$$FA$AAMP$01AEP$01AE@Z ; WDDatas::WDRelation::getData
;	.proc.end.mptr
	.bss
.local	$T12774,0
.local	$StringLiteralTok$??_C@_1CG@BHOEGJEO@0?$LD0?T0?$PMQC0?G0?$PM0?$LP?$JFw0Lkc0W0O0B0?$IK0?$HO0?$FL0?$JD0?$AC?$AA?$AA@,4
.local	$StringLiteralTok$??_C@_1BO@MACLDLLC@0?$LD0?T0?$PMQC0?G0?$PM0?$LP0Lg?$CK?$IK?9?$FL?$JK0g0Y0?$AC?$AA?$AA@,4
; Function compile flags: /Ogtp
	.text
	.comdat	noduplicate, ?setData@WDRelation@WDDatas@@$$FA$AAMXP$01AE@Z
.global	?setData@WDRelation@WDDatas@@$$FA$AAMXP$01AE@Z	; WDDatas::WDRelation::setData
?setData@WDRelation@WDDatas@@$$FA$AAMXP$01AE@Z:		; WDDatas::WDRelation::setData
;	.proc.def	D:V(P)

; Function Header:
; max stack depth = 4
; function size = 405 bytes
; local varsig tk = 0x11000015 
; Exception Information:
; 1 handlers, each consisting of filtered handlers

;	.formal.mptr 0,"this$" SIG: Optional C Binding Modifier(token:0x4D5595).class (token:0x4D5597)
;	.formal.mptr 1,"inData$" SIG: szarray (token:0x4CB9D9)
;	.local.mptr 1,"tmpWDDataException$12518" SIG: class (token:0x4D43A5)
;	.local.mptr 11,"exp$12517" SIG: class (token:0x4D4319)
;	.local.i4 12,"tmpRelationNo$12516" SIG: i4
;	.local.i4 13,"tmpRelationID$12515" SIG: i4
;	.local.i4 14,"tmpRelationType$12514" SIG: i4
;	.local.i4 2,"i$12510" SIG: i4
;	.local.mptr 3,"tmpWDDataException$12508" SIG: class (token:0x4D43A5)
;	.local.u4 6,"$T12772" SIG: genericInst (token:0x100000E) <i4>
;	.local.u4 7,"$T12771" SIG: genericInst (token:0x100000E) <i4>
;	.local.u4 8,"$T12770" SIG: genericInst (token:0x100000E) <i4>
;	.local.i4 9,"tmpRelationCnt$" SIG: i4
;	.local.i4 0,"tmpPos$" SIG: i4
;	.local.mptr 4,"tmpWDDataException$12491" SIG: class (token:0x4D43A5)
;	.local.mptr 5,"tmpWDDataException$12484" SIG: class (token:0x4D43A5)

;	.proc.beg
; Line 663
	ldarg.1				; inData$
	brtrue.s	$LN13@setData
; Line 666
	ldstr		$StringLiteralTok$??_C@_1BO@MACLDLLC@0?$LD0?T0?$PMQC0?G0?$PM0?$LP0Lg?$CK?$IK?9?$FL?$JK0g0Y0?$AC?$AA?$AA@
	newobj		??0WDDatasException@WDDatas@@$$FQ$AAM@P$AAVString@System@@@Z
	stloc.s		5		; tmpWDDataException$12484
; Line 667
	ldloc.s		5		; tmpWDDataException$12484
	ldc.i4		10615		; i32 0x2977
	stfld		?ErrorCode@WDDatasException@WDDatas@@3HA
; Line 668
	ldloc.s		5		; tmpWDDataException$12484
	ldc.i.1		1		; i32 0x1
	stfld		?ErrorCode2@WDDatasException@WDDatas@@3HA
; Line 669
	ldloc.s		5		; tmpWDDataException$12484
	throw.u2	
$LN13@setData:
; Line 672
	ldarg.1				; inData$
	ldlen		
	stloc.s		10		
	ldloc.s		10		
	ldc.i4.s	12		; u32 0xc
	bge.un.s	$LN12@setData
	ldloc.s		10		
	ldc.i.4		4		; u32 0x4
	sub		
	ldc.i.7		7		; u32 0x7
	and		
	brfalse.s	$LN12@setData
; Line 675
	ldstr		$StringLiteralTok$??_C@_1CG@BHOEGJEO@0?$LD0?T0?$PMQC0?G0?$PM0?$LP?$JFw0Lkc0W0O0B0?$IK0?$HO0?$FL0?$JD0?$AC?$AA?$AA@
	newobj		??0WDDatasException@WDDatas@@$$FQ$AAM@P$AAVString@System@@@Z
	stloc.s		4		; tmpWDDataException$12491
; Line 676
	ldloc.s		4		; tmpWDDataException$12491
	ldc.i4		10615		; i32 0x2977
	stfld		?ErrorCode@WDDatasException@WDDatas@@3HA
; Line 677
	ldloc.s		4		; tmpWDDataException$12491
	ldc.i.2		2		; i32 0x2
	stfld		?ErrorCode2@WDDatasException@WDDatas@@3HA
; Line 678
	ldloc.s		4		; tmpWDDataException$12491
	throw.u2	
$LN12@setData:
	nop		
$LN26@setData:
; Line 684
	ldc.i.0		0		; i32 0x0
	stloc.0				; tmpPos$
; Line 686
	ldarg.0				; this$
	ldarg.1				; inData$
	ldc.i.0		0		; i32 0x0
	call		?ArrayToInt32@FJIFuncs@FJIsam@@$$FSMHP$01AEH@Z
	stfld		?WordID@WDRelation@WDDatas@@3HA
; Line 687
	ldc.i.4		4		; i32 0x4
	stloc.0				; tmpPos$
; Line 689
	ldarg.0				; this$
	ldarg.1				; inData$
	ldc.i.4		4		; i32 0x4
	call		?ArrayToInt32@FJIFuncs@FJIsam@@$$FSMHP$01AEH@Z
	stfld		?MeanNo@WDRelation@WDDatas@@3HA
; Line 690
	ldc.i.8		8		; i32 0x8
	stloc.0				; tmpPos$
; Line 692
	ldarg.1				; inData$
	ldc.i.8		8		; i32 0x8
	call		?ArrayToInt32@FJIFuncs@FJIsam@@$$FSMHP$01AEH@Z
	stloc.s		9		; tmpRelationCnt$
; Line 693
	ldc.i4.s	12		; i32 0xc
	stloc.0				; tmpPos$
; Line 696
	ldarg.0				; this$
	ldfld		?RelationType@WDRelation@WDDatas@@3P$AAV?$List@H@Generic@Collections@System@@$AA
	stloc.s		8		; $T12770
	ldloc.s		8		; $T12770
	brtrue.s	$LN10@setData
; Line 698
	ldarg.0				; this$
	newobj		??0?$List@H@Generic@Collections@System@@$$FQ$AAM@XZ
	stfld		?RelationType@WDRelation@WDDatas@@3P$AAV?$List@H@Generic@Collections@System@@$AA
; Line 699
	br.s		$LN9@setData
$LN10@setData:
; Line 700
	ldloc.s		8		; $T12770
	callvirt	?Clear@?$List@H@Generic@Collections@System@@$$FU$AAMXXZ
$LN9@setData:
; Line 702
	ldarg.0				; this$
	ldfld		?RelationID@WDRelation@WDDatas@@3P$AAV?$List@H@Generic@Collections@System@@$AA
	stloc.s		7		; $T12771
	ldloc.s		7		; $T12771
	brtrue.s	$LN8@setData
; Line 704
	ldarg.0				; this$
	newobj		??0?$List@H@Generic@Collections@System@@$$FQ$AAM@XZ
	stfld		?RelationID@WDRelation@WDDatas@@3P$AAV?$List@H@Generic@Collections@System@@$AA
; Line 705
	br.s		$LN7@setData
$LN8@setData:
; Line 706
	ldloc.s		7		; $T12771
	callvirt	?Clear@?$List@H@Generic@Collections@System@@$$FU$AAMXXZ
$LN7@setData:
; Line 708
	ldarg.0				; this$
	ldfld		?RelationNo@WDRelation@WDDatas@@3P$AAV?$List@H@Generic@Collections@System@@$AA
	stloc.s		6		; $T12772
	ldloc.s		6		; $T12772
	brtrue.s	$LN6@setData
; Line 710
	ldarg.0				; this$
	newobj		??0?$List@H@Generic@Collections@System@@$$FQ$AAM@XZ
	stfld		?RelationNo@WDRelation@WDDatas@@3P$AAV?$List@H@Generic@Collections@System@@$AA
; Line 711
	br.s		$LN5@setData
$LN6@setData:
; Line 712
	ldloc.s		6		; $T12772
	callvirt	?Clear@?$List@H@Generic@Collections@System@@$$FU$AAMXXZ
$LN5@setData:
; Line 718
	ldarg.1				; inData$
	ldlen		
	ldloc.s		9		; tmpRelationCnt$
	ldc.i.1		1		; i32 0x1
	add		
	ldc.i4.s	12		; i32 0xc
	mul		
	beq.s		$LN4@setData
; Line 721
	ldstr		$StringLiteralTok$??_C@_1CG@BHOEGJEO@0?$LD0?T0?$PMQC0?G0?$PM0?$LP?$JFw0Lkc0W0O0B0?$IK0?$HO0?$FL0?$JD0?$AC?$AA?$AA@
	newobj		??0WDDatasException@WDDatas@@$$FQ$AAM@P$AAVString@System@@@Z
	stloc.3				; tmpWDDataException$12508
; Line 722
	ldloc.3				; tmpWDDataException$12508
	ldc.i4		10615		; i32 0x2977
	stfld		?ErrorCode@WDDatasException@WDDatas@@3HA
; Line 723
	ldloc.3				; tmpWDDataException$12508
	ldc.i.2		2		; i32 0x2
	stfld		?ErrorCode2@WDDatasException@WDDatas@@3HA
; Line 724
	ldloc.3				; tmpWDDataException$12508
	throw.u2	
$LN4@setData:
; Line 728
	ldc.i.0		0		; i32 0x0
	stloc.2				; i$12510
$LL3@setData:
	ldloc.2				; i$12510
	ldloc.s		9		; tmpRelationCnt$
	bge.s		$LN1@setData
; Line 734
	ldarg.1				; inData$
	ldloc.0				; tmpPos$
	call		?ArrayToInt32@FJIFuncs@FJIsam@@$$FSMHP$01AEH@Z
	stloc.s		14		; tmpRelationType$12514
; Line 735
	ldarg.0				; this$
	ldfld		?RelationType@WDRelation@WDDatas@@3P$AAV?$List@H@Generic@Collections@System@@$AA
	ldloc.s		14		; tmpRelationType$12514
	callvirt	?Add@?$List@H@Generic@Collections@System@@$$FU$AAMXH@Z
; Line 736
	ldloc.0				; tmpPos$
	ldc.i.4		4		; i32 0x4
	add		
	stloc.0				; tmpPos$
; Line 738
	ldarg.1				; inData$
	ldloc.0				; tmpPos$
	call		?ArrayToInt32@FJIFuncs@FJIsam@@$$FSMHP$01AEH@Z
	stloc.s		13		; tmpRelationID$12515
; Line 739
	ldarg.0				; this$
	ldfld		?RelationID@WDRelation@WDDatas@@3P$AAV?$List@H@Generic@Collections@System@@$AA
	ldloc.s		13		; tmpRelationID$12515
	callvirt	?Add@?$List@H@Generic@Collections@System@@$$FU$AAMXH@Z
; Line 740
	ldloc.0				; tmpPos$
	ldc.i.4		4		; i32 0x4
	add		
	stloc.0				; tmpPos$
; Line 742
	ldarg.1				; inData$
	ldloc.0				; tmpPos$
	call		?ArrayToInt32@FJIFuncs@FJIsam@@$$FSMHP$01AEH@Z
	stloc.s		12		; tmpRelationNo$12516
; Line 743
	ldarg.0				; this$
	ldfld		?RelationNo@WDRelation@WDDatas@@3P$AAV?$List@H@Generic@Collections@System@@$AA
	ldloc.s		12		; tmpRelationNo$12516
	callvirt	?Add@?$List@H@Generic@Collections@System@@$$FU$AAMXH@Z
; Line 744
	ldloc.0				; tmpPos$
	ldc.i.4		4		; i32 0x4
	add		
	stloc.0				; tmpPos$
; Line 728
	ldloc.2				; i$12510
	ldc.i.1		1		; i32 0x1
	add		
	stloc.2				; i$12510
	br.s		$LL3@setData
$LN1@setData:
; Line 745
	leave.s		$LN16@setData
__catch$?setData@WDRelation@WDDatas@@$$FA$AAMXP$01AE@Z$0:
; Line 747
	imp.push	
	stloc.s		11		; exp$12517
; Line 749
	ldstr		$StringLiteralTok$??_C@_1CA@PDKIJOOO@0?G0?$PM0?$LP0n0?$LD0?T0?$PM0kY1eW0W0?$HO0W0_0?$AC?$AA?$AA@
	ldloc.s		11		; exp$12517
	newobj		??0WDDatasException@WDDatas@@$$FQ$AAM@P$AAVString@System@@P$AAVException@3@@Z
	stloc.1				; tmpWDDataException$12518
; Line 750
	ldloc.1				; tmpWDDataException$12518
	ldc.i4		10615		; i32 0x2977
	stfld		?ErrorCode@WDDatasException@WDDatas@@3HA
; Line 751
	ldloc.1				; tmpWDDataException$12518
	ldc.i.3		3		; i32 0x3
	stfld		?ErrorCode2@WDDatasException@WDDatas@@3HA
; Line 752
	ldloc.1				; tmpWDDataException$12518
	throw.u2	
$LN21@setData:
	leave.s		$LN16@setData
$LN16@setData:
$LN25@setData:
; Line 754
	ret		
 .end ?setData@WDRelation@WDDatas@@$$FA$AAMXP$01AE@Z	; WDDatas::WDRelation::setData
;	.proc.end.void
; Function compile flags: /Ogtp
	.text
	.comdat	any, ?<Dispose>@WDRec@WDDatas@@$$FU$AAMXXZ
.global	?<Dispose>@WDRec@WDDatas@@$$FU$AAMXXZ		; WDDatas::WDRec::<Dispose>
?<Dispose>@WDRec@WDDatas@@$$FU$AAMXXZ:			; WDDatas::WDRec::<Dispose>
;	.proc.def	D:V()

; Function Header:
; max stack depth = 2
; function size = 14 bytes
; local varsig tk = 0x0 
; Exception Information:
; 0 handlers, each consisting of filtered handlers

;	.formal.mptr 0,"this$" SIG: Optional C Binding Modifier(token:0x4D9EB1).class (token:0x4D9EB3)

;	.proc.beg
	ldarg.0				; this$
	ldc.i.1		1		; u8 0x1
	callvirt	?<Dispose>@WDRec@WDDatas@@$$FM$AAMX_N@Z
	ldarg.0				; this$
	call		?SuppressFinalize@GC@System@@$$FSMXP$AAVObject@2@@Z
	ret		
 .end ?<Dispose>@WDRec@WDDatas@@$$FU$AAMXXZ		; WDDatas::WDRec::<Dispose>
;	.proc.end.void
; Function compile flags: /Ogtp
	.text
	.comdat	any, ?<Dispose>@WDRelation@WDDatas@@$$FM$AAMX_N@Z
.global	?<Dispose>@WDRelation@WDDatas@@$$FM$AAMX_N@Z	; WDDatas::WDRelation::<Dispose>
?<Dispose>@WDRelation@WDDatas@@$$FM$AAMX_N@Z:		; WDDatas::WDRelation::<Dispose>
;	.proc.def	D:V(I)

; Function Header:
; max stack depth = 2
; function size = 27 bytes
; local varsig tk = 0x0 
; Exception Information:
; 1 handlers, each consisting of filtered handlers

;	.formal.mptr 0,"this$" SIG: Optional C Binding Modifier(token:0x4D5595).class (token:0x4D5597)
;	.formal.u1 1,"disposing$" SIG: bool

;	.proc.beg
	ldarg.1				; disposing$
	brfalse.s	$LN3@
$LN13@:
	ldarg.0				; this$
	call		??1WDRelation@WDDatas@@$$FA$AAM@XZ
$LN2@:
	leave.s		$LN12@
$LN7@:
	ldarg.0				; this$
	ldc.i.1		1		; u8 0x1
	call		?<Dispose>@WDRec@WDDatas@@$$FM$AAMX_N@Z
$LN9@:
	endfinally	
$LN3@:
	ldarg.0				; this$
	ldc.i.0		0		; u8 0x0
	call		?<Dispose>@WDRec@WDDatas@@$$FM$AAMX_N@Z
$LN12@:
	ret		
 .end ?<Dispose>@WDRelation@WDDatas@@$$FM$AAMX_N@Z	; WDDatas::WDRelation::<Dispose>
;	.proc.end.void
.global	
	.bss
.local	$T12811,0
.local	$StringLiteralTok$??_C@_1CM@IBIPDKIN@0?G0?$PM0?$LP0?l0?$LD0?$PM0?IS?V_?$JH0g0?$KI0?i0?$PM0Lvzu?$BP0W0?$HO0W0_0?$AC?$AA?$AA@,4
.local	,4
; Function compile flags: /Ogtp
	.text
	.comdat	noduplicate, ?getRecord@WDRelation@WDDatas@@$$FU$AAMP$AAVDataRecord@FJIsam@@XZ
.global	?getRecord@WDRelation@WDDatas@@$$FU$AAMP$AAVDataRecord@FJIsam@@XZ ; WDDatas::WDRelation::getRecord
?getRecord@WDRelation@WDDatas@@$$FU$AAMP$AAVDataRecord@FJIsam@@XZ: ; WDDatas::WDRelation::getRecord
;	.proc.def	D:P()

; Function Header:
; max stack depth = 4
; function size = 153 bytes
; local varsig tk = 0x11000017 
; Exception Information:
; 2 handlers, each consisting of filtered handlers

;	.formal.mptr 0,"this$" SIG: Optional C Binding Modifier(token:0x4D5595).class (token:0x4D5597)
;	.local.mptr 1,"tmpWDDataException$11996" SIG: class (token:0x4D43A5)
;	.local.mptr 4,"exp$11995" SIG: class (token:0x4D4319)
;	.local.mptr 2,"tmpWDDataException$11990" SIG: class (token:0x4D43A5)
;	.local.mptr 5,"exp$11989" SIG: class (token:0x4D4319)
;	.local.mptr 3,"tmpDat$" SIG: szarray (token:0x4CB9D9)
;	.local.mptr 0,"tmpRec$" SIG: class (token:0x4D4439)

;	.proc.beg
; Line 87
	ldnull		0		; i32 0x0
	stloc.0				; tmpRec$
; Line 91
	ldarg.0				; this$
	call		?getRecord@WDRec@WDDatas@@$$FU$AAMP$AAVDataRecord@FJIsam@@XZ
	brtrue.s	$LN4@getRecord
$LN23@getRecord:
; Line 95
	ldarg.0				; this$
	ldnull		0		; i32 0x0
	call		?getData@WDRelation@WDDatas@@$$FA$AAMP$01AEP$01AE@Z
	stloc.3				; tmpDat$
; Line 96
	newobj		??0DataRecord@FJIsam@@$$FQ$AAM@XZ
	stloc.0				; tmpRec$
; Line 97
	ldloc.0				; tmpRec$
	ldloc.3				; tmpDat$
	ldarg.0				; this$
	call		?DataLength@WDRelation@WDDatas@@$$FQ$AAMHXZ
	call		?setData@DataRecord@FJIsam@@$$FQ$AAMXP$01AEH@Z
; Line 98
	ldarg.0				; this$
	ldloc.0				; tmpRec$
	call		?setRecord@WDRec@WDDatas@@$$FU$AAMXP$AAVDataRecord@FJIsam@@@Z
	leave.s		$LN9@getRecord
__catch$?getRecord@WDRelation@WDDatas@@$$FU$AAMP$AAVDataRecord@FJIsam@@XZ$0:
; Line 99
	imp.push	
	stloc.s		5		; exp$11989
; Line 101
	ldstr		$StringLiteralTok$??_C@_1CM@IBIPDKIN@0?G0?$PM0?$LP0?l0?$LD0?$PM0?IS?V_?$JH0g0?$KI0?i0?$PM0Lvzu?$BP0W0?$HO0W0_0?$AC?$AA?$AA@
	ldloc.s		5		; exp$11989
	newobj		??0WDDatasException@WDDatas@@$$FQ$AAM@P$AAVString@System@@P$AAVException@3@@Z
	stloc.2				; tmpWDDataException$11990
; Line 102
	ldloc.2				; tmpWDDataException$11990
	ldc.i4		10602		; i32 0x296a
	stfld		?ErrorCode@WDDatasException@WDDatas@@3HA
; Line 103
	ldloc.2				; tmpWDDataException$11990
	ldc.i.1		1		; i32 0x1
	stfld		?ErrorCode2@WDDatasException@WDDatas@@3HA
; Line 104
	ldloc.2				; tmpWDDataException$11990
	throw.u2	
$LN14@getRecord:
	leave.s		$LN9@getRecord
$LN4@getRecord:
	nop		
$LN24@getRecord:
; Line 109
	ldarg.0				; this$
	ldnull		0		; i32 0x0
	call		?getData@WDRelation@WDDatas@@$$FA$AAMP$01AEP$01AE@Z
	stloc.3				; tmpDat$
; Line 110
	ldarg.0				; this$
	call		?getRecord@WDRec@WDDatas@@$$FU$AAMP$AAVDataRecord@FJIsam@@XZ
	stloc.0				; tmpRec$
; Line 111
	ldloc.0				; tmpRec$
	ldloc.3				; tmpDat$
	ldarg.0				; this$
	call		?DataLength@WDRelation@WDDatas@@$$FQ$AAMHXZ
	call		?setData@DataRecord@FJIsam@@$$FQ$AAMXP$01AEH@Z
	leave.s		$LN9@getRecord
__catch$?getRecord@WDRelation@WDDatas@@$$FU$AAMP$AAVDataRecord@FJIsam@@XZ$2:
; Line 112
	imp.push	
	stloc.s		4		; exp$11995
; Line 114
	ldstr		$StringLiteralTok$??_C@_1CM@IBIPDKIN@0?G0?$PM0?$LP0?l0?$LD0?$PM0?IS?V_?$JH0g0?$KI0?i0?$PM0Lvzu?$BP0W0?$HO0W0_0?$AC?$AA?$AA@
	ldloc.s		4		; exp$11995
	newobj		??0WDDatasException@WDDatas@@$$FQ$AAM@P$AAVString@System@@P$AAVException@3@@Z
	stloc.1				; tmpWDDataException$11996
; Line 115
	ldloc.1				; tmpWDDataException$11996
	ldc.i4		10602		; i32 0x296a
	stfld		?ErrorCode@WDDatasException@WDDatas@@3HA
; Line 116
	ldloc.1				; tmpWDDataException$11996
	ldc.i.2		2		; i32 0x2
	stfld		?ErrorCode2@WDDatasException@WDDatas@@3HA
; Line 117
	ldloc.1				; tmpWDDataException$11996
	throw.u2	
$LN18@getRecord:
	leave.s		$LN9@getRecord
$LN9@getRecord:
; Line 124
	ldloc.0				; tmpRec$
	ret		
 .end ?getRecord@WDRelation@WDDatas@@$$FU$AAMP$AAVDataRecord@FJIsam@@XZ ; WDDatas::WDRelation::getRecord
;	.proc.end.mptr
	.bss
.local	$T12835,0
.local	$StringLiteralTok$??_C@_1CM@POGCAHHH@0?G0?$PM0?$LP0?l0?$LD0?$PM0?I?$IK?9?$FL?$JK0g0?$KI0?i0?$PM0Lvzu?$BP0W0?$HO0W0_0?$AC?$AA?$AA@,4
; Function compile flags: /Ogtp
	.text
	.comdat	noduplicate, ?setRecord@WDRelation@WDDatas@@$$FU$AAMXP$AAVDataRecord@FJIsam@@@Z
.global	?setRecord@WDRelation@WDDatas@@$$FU$AAMXP$AAVDataRecord@FJIsam@@@Z ; WDDatas::WDRelation::setRecord
?setRecord@WDRelation@WDDatas@@$$FU$AAMXP$AAVDataRecord@FJIsam@@@Z: ; WDDatas::WDRelation::setRecord
;	.proc.def	D:V(P)

; Function Header:
; max stack depth = 4
; function size = 112 bytes
; local varsig tk = 0x11000018 
; Exception Information:
; 2 handlers, each consisting of filtered handlers

;	.formal.mptr 0,"this$" SIG: Optional C Binding Modifier(token:0x4D5595).class (token:0x4D5597)
;	.formal.mptr 1,"inRec$" SIG: class (token:0x4D4439)
;	.local.mptr 0,"tmpWDDataException$12014" SIG: class (token:0x4D43A5)
;	.local.mptr 3,"exp$12013" SIG: class (token:0x4D4319)
;	.local.mptr 1,"tmpWDDataException$12008" SIG: class (token:0x4D43A5)
;	.local.mptr 4,"exp$12007" SIG: class (token:0x4D4319)
;	.local.mptr 2,"tmpDat$12006" SIG: szarray (token:0x4CB9D9)

;	.proc.beg
; Line 130
	ldarg.1				; inRec$
	brfalse.s	$LN4@setRecord
$LN23@setRecord:
; Line 135
	ldarg.1				; inRec$
	ldnull		0		; i32 0x0
	call		?getData@DataRecord@FJIsam@@$$FQ$AAMP$01AEP$01AE@Z
	stloc.2				; tmpDat$12006
; Line 136
	ldarg.0				; this$
	ldloc.2				; tmpDat$12006
	call		?setData@WDRelation@WDDatas@@$$FA$AAMXP$01AE@Z
; Line 137
	ldnull		0		; i32 0x0
	stloc.2				; tmpDat$12006
; Line 138
	ldarg.0				; this$
	ldarg.1				; inRec$
	call		?setRecord@WDRec@WDDatas@@$$FU$AAMXP$AAVDataRecord@FJIsam@@@Z
	leave.s		$LN9@setRecord
__catch$?setRecord@WDRelation@WDDatas@@$$FU$AAMXP$AAVDataRecord@FJIsam@@@Z$0:
; Line 139
	imp.push	
	stloc.s		4		; exp$12007
; Line 141
	ldstr		$StringLiteralTok$??_C@_1CM@POGCAHHH@0?G0?$PM0?$LP0?l0?$LD0?$PM0?I?$IK?9?$FL?$JK0g0?$KI0?i0?$PM0Lvzu?$BP0W0?$HO0W0_0?$AC?$AA?$AA@
	ldloc.s		4		; exp$12007
	newobj		??0WDDatasException@WDDatas@@$$FQ$AAM@P$AAVString@System@@P$AAVException@3@@Z
	stloc.1				; tmpWDDataException$12008
; Line 142
	ldloc.1				; tmpWDDataException$12008
	ldc.i4		10603		; i32 0x296b
	stfld		?ErrorCode@WDDatasException@WDDatas@@3HA
; Line 143
	ldloc.1				; tmpWDDataException$12008
	ldc.i.1		1		; i32 0x1
	stfld		?ErrorCode2@WDDatasException@WDDatas@@3HA
; Line 144
	ldloc.1				; tmpWDDataException$12008
	throw.u2	
$LN14@setRecord:
	leave.s		$LN9@setRecord
$LN4@setRecord:
	nop		
$LN24@setRecord:
; Line 149
	ldarg.0				; this$
	ldnull		0		; i32 0x0
	call		?setRecord@WDRec@WDDatas@@$$FU$AAMXP$AAVDataRecord@FJIsam@@@Z
	leave.s		$LN9@setRecord
__catch$?setRecord@WDRelation@WDDatas@@$$FU$AAMXP$AAVDataRecord@FJIsam@@@Z$2:
; Line 150
	imp.push	
	stloc.3				; exp$12013
; Line 152
	ldstr		$StringLiteralTok$??_C@_1CM@POGCAHHH@0?G0?$PM0?$LP0?l0?$LD0?$PM0?I?$IK?9?$FL?$JK0g0?$KI0?i0?$PM0Lvzu?$BP0W0?$HO0W0_0?$AC?$AA?$AA@
	ldloc.3				; exp$12013
	newobj		??0WDDatasException@WDDatas@@$$FQ$AAM@P$AAVString@System@@P$AAVException@3@@Z
	stloc.0				; tmpWDDataException$12014
; Line 153
	ldloc.0				; tmpWDDataException$12014
	ldc.i4		10603		; i32 0x296b
	stfld		?ErrorCode@WDDatasException@WDDatas@@3HA
; Line 154
	ldloc.0				; tmpWDDataException$12014
	ldc.i.2		2		; i32 0x2
	stfld		?ErrorCode2@WDDatasException@WDDatas@@3HA
; Line 155
	ldloc.0				; tmpWDDataException$12014
	throw.u2	
$LN18@setRecord:
	leave.s		$LN9@setRecord
$LN9@setRecord:
; Line 158
	ret		
 .end ?setRecord@WDRelation@WDDatas@@$$FU$AAMXP$AAVDataRecord@FJIsam@@@Z ; WDDatas::WDRelation::setRecord
;	.proc.end.void
.global	
	.bss
.local	$T12860,0
.local	$StringLiteralTok$??_C@_1CG@PFOLFNFI@0?G0?$PM0?$LP0?l0?$LD0?$PM0?I0nf?x?$IP?$LM0kY1eW0W0?$HO0W0_0?$AC?$AA?$AA@,4
.local	$StringLiteralTok$??_C@_1BM@LAKNIOBD@0?l0?$LD0?$PM0?IRJ?$JGd0o0g0M0?$HO0?$FL0?$JD0?$AC?$AA?$AA@,4
.local	$StringLiteralTok$??_C@_1BO@OEMADJDL@?$AAI?$AAS?$AAA?$AAM0?U0?$KB0?$KE0?k0LN?$ANkc0g0Y0?$AC?$AA?$AA@,4
.local	$TypeTok$11280448$,4
.local	,4
; Function compile flags: /Ogtp
	.text
	.comdat	noduplicate, ?Write@WDRelation@WDDatas@@$$FU$AAMXXZ
.global	?Write@WDRelation@WDDatas@@$$FU$AAMXXZ		; WDDatas::WDRelation::Write
?Write@WDRelation@WDDatas@@$$FU$AAMXXZ:			; WDDatas::WDRelation::Write
;	.proc.def	D:V()

; Function Header:
; max stack depth = 4
; function size = 204 bytes
; local varsig tk = 0x1100001A 
; Exception Information:
; 2 handlers, each consisting of filtered handlers

;	.formal.mptr 0,"this$" SIG: Optional C Binding Modifier(token:0x4D5595).class (token:0x4D5597)
;	.local.mptr 1,"tmpWDDataException$12203" SIG: class (token:0x4D43A5)
;	.local.mptr 4,"exp$12202" SIG: class (token:0x4D4319)
;	.local.mptr 2,"tmpWDDataException$12199" SIG: class (token:0x4D43A5)
;	.local.mptr 3,"tmpWDDataException$12191" SIG: class (token:0x4D43A5)
;	.local.mptr 5,"exp$12190" SIG: class (token:0x4D4319)
;	.local.mptr 0,"tmpParent$" SIG: class (token:0x4CB2E1)

;	.proc.beg
; Line 162
	ldnull		0		; i32 0x0
	stloc.0				; tmpParent$
; Line 166
	ldarg.0				; this$
	call		?getRecord@WDRec@WDDatas@@$$FU$AAMP$AAVDataRecord@FJIsam@@XZ
	brfalse		$LN13@Write
$LN27@Write:
; Line 174
	ldarg.0				; this$
	call		?getRecord@WDRec@WDDatas@@$$FU$AAMP$AAVDataRecord@FJIsam@@XZ
	call		?getParentFile@DataRecord@FJIsam@@$$FQ$AAMP$AAVObject@System@@XZ
	castClass	$TypeTok$11280448$
	stloc.0				; tmpParent$
; Line 175
	ldloc.0				; tmpParent$
	brtrue.s	$LN6@Write
; Line 177
	leave		$LN13@Write
$LN6@Write:
	leave.s		$LN11@Write
__catch$?Write@WDRelation@WDDatas@@$$FU$AAMXXZ$0:
; Line 179
	imp.push	
	stloc.s		5		; exp$12190
; Line 181
	ldstr		$StringLiteralTok$??_C@_1BO@OEMADJDL@?$AAI?$AAS?$AAA?$AAM0?U0?$KB0?$KE0?k0LN?$ANkc0g0Y0?$AC?$AA?$AA@
	ldloc.s		5		; exp$12190
	newobj		??0WDDatasException@WDDatas@@$$FQ$AAM@P$AAVString@System@@P$AAVException@3@@Z
	stloc.3				; tmpWDDataException$12191
; Line 182
	ldloc.3				; tmpWDDataException$12191
	ldc.i4		10604		; i32 0x296c
	stfld		?ErrorCode@WDDatasException@WDDatas@@3HA
; Line 183
	ldloc.3				; tmpWDDataException$12191
	ldc.i.1		1		; i32 0x1
	stfld		?ErrorCode2@WDDatasException@WDDatas@@3HA
; Line 184
	ldloc.3				; tmpWDDataException$12191
	throw.u2	
$LN18@Write:
	leave.s		$LN11@Write
$LN11@Write:
	nop		
$LN28@Write:
; Line 190
	ldarg.0				; this$
	call		?getRecord@WDRec@WDDatas@@$$FU$AAMP$AAVDataRecord@FJIsam@@XZ
	call		?getRecStat@DataRecord@FJIsam@@$$FQ$AAM?AW4DataRecStat_EN@2@XZ
	brtrue.s	$LN4@Write
; Line 192
	ldloc.0				; tmpParent$
	ldarg.0				; this$
	callvirt	?getRecord@WDRelation@WDDatas@@$$FU$AAMP$AAVDataRecord@FJIsam@@XZ
	call		?AddRecord@FIsam@FJIsam@@$$FQ$AAMXP$AAVDataRecord@2@@Z
	br.s		$LN1@Write
$LN4@Write:
; Line 193
	ldarg.0				; this$
	call		?getRecord@WDRec@WDDatas@@$$FU$AAMP$AAVDataRecord@FJIsam@@XZ
	call		?getRecStat@DataRecord@FJIsam@@$$FQ$AAM?AW4DataRecStat_EN@2@XZ
	ldc.i.1		1		; i32 0x1
	bne.un.s	$LN2@Write
; Line 194
	ldloc.0				; tmpParent$
	ldarg.0				; this$
	callvirt	?getRecord@WDRelation@WDDatas@@$$FU$AAMP$AAVDataRecord@FJIsam@@XZ
	call		?UpdateRecord@FIsam@FJIsam@@$$FQ$AAMXP$AAVDataRecord@2@@Z
$LN1@Write:
; Line 200
	leave.s		$LN13@Write
$LN2@Write:
; Line 197
	ldstr		$StringLiteralTok$??_C@_1BM@LAKNIOBD@0?l0?$LD0?$PM0?IRJ?$JGd0o0g0M0?$HO0?$FL0?$JD0?$AC?$AA?$AA@
	newobj		??0WDDatasException@WDDatas@@$$FQ$AAM@P$AAVString@System@@@Z
	stloc.2				; tmpWDDataException$12199
; Line 198
	ldloc.2				; tmpWDDataException$12199
	ldc.i4		10604		; i32 0x296c
	stfld		?ErrorCode@WDDatasException@WDDatas@@3HA
; Line 199
	ldloc.2				; tmpWDDataException$12199
	ldc.i.2		2		; i32 0x2
	stfld		?ErrorCode2@WDDatasException@WDDatas@@3HA
; Line 200
	ldloc.2				; tmpWDDataException$12199
	throw.u2	
$LN19@Write:
; Line 202
	leave.s		$LN13@Write
__catch$?Write@WDRelation@WDDatas@@$$FU$AAMXXZ$2:
	imp.push	
	stloc.s		4		; exp$12202
; Line 204
	ldstr		$StringLiteralTok$??_C@_1CG@PFOLFNFI@0?G0?$PM0?$LP0?l0?$LD0?$PM0?I0nf?x?$IP?$LM0kY1eW0W0?$HO0W0_0?$AC?$AA?$AA@
	ldloc.s		4		; exp$12202
	newobj		??0WDDatasException@WDDatas@@$$FQ$AAM@P$AAVString@System@@P$AAVException@3@@Z
	stloc.1				; tmpWDDataException$12203
; Line 205
	ldloc.1				; tmpWDDataException$12203
	ldc.i4		10604		; i32 0x296c
	stfld		?ErrorCode@WDDatasException@WDDatas@@3HA
; Line 206
	ldloc.1				; tmpWDDataException$12203
	ldc.i.3		3		; i32 0x3
	stfld		?ErrorCode2@WDDatasException@WDDatas@@3HA
; Line 207
	ldloc.1				; tmpWDDataException$12203
	throw.u2	
$LN22@Write:
	leave.s		$LN13@Write
$LN13@Write:
; Line 209
	ret		
 .end ?Write@WDRelation@WDDatas@@$$FU$AAMXXZ		; WDDatas::WDRelation::Write
;	.proc.end.void
	.bss
.local	$T12884,0
; Function compile flags: /Ogtp
	.text
	.comdat	noduplicate, ?Delete@WDRelation@WDDatas@@$$FU$AAMXXZ
.global	?Delete@WDRelation@WDDatas@@$$FU$AAMXXZ		; WDDatas::WDRelation::Delete
?Delete@WDRelation@WDDatas@@$$FU$AAMXXZ:		; WDDatas::WDRelation::Delete
;	.proc.def	D:V()

; Function Header:
; max stack depth = 4
; function size = 334 bytes
; local varsig tk = 0x1100001B 
; Exception Information:
; 2 handlers, each consisting of filtered handlers

;	.formal.mptr 0,"this$" SIG: Optional C Binding Modifier(token:0x4D5595).class (token:0x4D5597)
;	.local.mptr 0,"tmpWDDataException$12227" SIG: class (token:0x4D43A5)
;	.local.mptr 4,"exp$12226" SIG: class (token:0x4D4319)
;	.local.mptr 1,"tmpWDDataException$12224" SIG: class (token:0x4D43A5)
;	.local.mptr 2,"tmpWDDataException$12217" SIG: class (token:0x4D43A5)
;	.local.mptr 5,"exp$12216" SIG: class (token:0x4D4319)
;	.local.mptr 3,"tmpParent$" SIG: class (token:0x4CB2E1)

;	.proc.beg
; Line 213
	ldnull		0		; i32 0x0
	stloc.3				; tmpParent$
; Line 217
	ldarg.0				; this$
	call		?getRecord@WDRec@WDDatas@@$$FU$AAMP$AAVDataRecord@FJIsam@@XZ
	brtrue.s	$LN8@Delete
; Line 220
	ldarg.0				; this$
	ldc.i.0		0		; i32 0x0
	stfld		?WordID@WDRelation@WDDatas@@3HA
; Line 221
	ldarg.0				; this$
	ldc.i.0		0		; i32 0x0
	stfld		?MeanNo@WDRelation@WDDatas@@3HA
; Line 222
	ldarg.0				; this$
	ldfld		?RelationType@WDRelation@WDDatas@@3P$AAV?$List@H@Generic@Collections@System@@$AA
	callvirt	?Clear@?$List@H@Generic@Collections@System@@$$FU$AAMXXZ
; Line 223
	ldarg.0				; this$
	ldfld		?RelationID@WDRelation@WDDatas@@3P$AAV?$List@H@Generic@Collections@System@@$AA
	callvirt	?Clear@?$List@H@Generic@Collections@System@@$$FU$AAMXXZ
; Line 224
	ldarg.0				; this$
	ldfld		?RelationNo@WDRelation@WDDatas@@3P$AAV?$List@H@Generic@Collections@System@@$AA
	callvirt	?Clear@?$List@H@Generic@Collections@System@@$$FU$AAMXXZ
; Line 226
	br		$LN9@Delete
$LN8@Delete:
	nop		
$LN27@Delete:
; Line 232
	ldarg.0				; this$
	call		?getRecord@WDRec@WDDatas@@$$FU$AAMP$AAVDataRecord@FJIsam@@XZ
	call		?getParentFile@DataRecord@FJIsam@@$$FQ$AAMP$AAVObject@System@@XZ
	castClass	$TypeTok$11280448$
	stloc.3				; tmpParent$
; Line 233
	ldloc.3				; tmpParent$
	brtrue.s	$LN6@Delete
; Line 236
	ldarg.0				; this$
	ldc.i.0		0		; i32 0x0
	stfld		?WordID@WDRelation@WDDatas@@3HA
; Line 237
	ldarg.0				; this$
	ldc.i.0		0		; i32 0x0
	stfld		?MeanNo@WDRelation@WDDatas@@3HA
; Line 238
	ldarg.0				; this$
	ldfld		?RelationType@WDRelation@WDDatas@@3P$AAV?$List@H@Generic@Collections@System@@$AA
	callvirt	?Clear@?$List@H@Generic@Collections@System@@$$FU$AAMXXZ
; Line 239
	ldarg.0				; this$
	ldfld		?RelationID@WDRelation@WDDatas@@3P$AAV?$List@H@Generic@Collections@System@@$AA
	callvirt	?Clear@?$List@H@Generic@Collections@System@@$$FU$AAMXXZ
; Line 240
	ldarg.0				; this$
	ldfld		?RelationNo@WDRelation@WDDatas@@3P$AAV?$List@H@Generic@Collections@System@@$AA
	callvirt	?Clear@?$List@H@Generic@Collections@System@@$$FU$AAMXXZ
; Line 242
	leave		$LN9@Delete
$LN6@Delete:
	leave.s		$LN11@Delete
__catch$?Delete@WDRelation@WDDatas@@$$FU$AAMXXZ$0:
; Line 244
	imp.push	
	stloc.s		5		; exp$12216
; Line 246
	ldstr		$StringLiteralTok$??_C@_1BO@OEMADJDL@?$AAI?$AAS?$AAA?$AAM0?U0?$KB0?$KE0?k0LN?$ANkc0g0Y0?$AC?$AA?$AA@
	ldloc.s		5		; exp$12216
	newobj		??0WDDatasException@WDDatas@@$$FQ$AAM@P$AAVString@System@@P$AAVException@3@@Z
	stloc.2				; tmpWDDataException$12217
; Line 247
	ldloc.2				; tmpWDDataException$12217
	ldc.i4		10605		; i32 0x296d
	stfld		?ErrorCode@WDDatasException@WDDatas@@3HA
; Line 248
	ldloc.2				; tmpWDDataException$12217
	ldc.i.1		1		; i32 0x1
	stfld		?ErrorCode2@WDDatasException@WDDatas@@3HA
; Line 249
	ldloc.2				; tmpWDDataException$12217
	throw.u2	
$LN18@Delete:
	leave.s		$LN11@Delete
$LN11@Delete:
	nop		
$LN28@Delete:
; Line 255
	ldarg.0				; this$
	call		?getRecord@WDRec@WDDatas@@$$FU$AAMP$AAVDataRecord@FJIsam@@XZ
	call		?getRecStat@DataRecord@FJIsam@@$$FQ$AAM?AW4DataRecStat_EN@2@XZ
	brfalse.s	$LN1@Delete
; Line 258
	ldarg.0				; this$
	call		?getRecord@WDRec@WDDatas@@$$FU$AAMP$AAVDataRecord@FJIsam@@XZ
	call		?getRecStat@DataRecord@FJIsam@@$$FQ$AAM?AW4DataRecStat_EN@2@XZ
	ldc.i.1		1		; i32 0x1
	bne.un.s	$LN2@Delete
; Line 259
	ldloc.3				; tmpParent$
	ldarg.0				; this$
	callvirt	?getRecord@WDRelation@WDDatas@@$$FU$AAMP$AAVDataRecord@FJIsam@@XZ
	call		?DeleteRecord@FIsam@FJIsam@@$$FQ$AAMXP$AAVDataRecord@2@@Z
$LN1@Delete:
; Line 265
	leave.s		$LN13@Delete
$LN2@Delete:
; Line 262
	ldstr		$StringLiteralTok$??_C@_1BM@LAKNIOBD@0?l0?$LD0?$PM0?IRJ?$JGd0o0g0M0?$HO0?$FL0?$JD0?$AC?$AA?$AA@
	newobj		??0WDDatasException@WDDatas@@$$FQ$AAM@P$AAVString@System@@@Z
	stloc.1				; tmpWDDataException$12224
; Line 263
	ldloc.1				; tmpWDDataException$12224
	ldc.i4		10605		; i32 0x296d
	stfld		?ErrorCode@WDDatasException@WDDatas@@3HA
; Line 264
	ldloc.1				; tmpWDDataException$12224
	ldc.i.2		2		; i32 0x2
	stfld		?ErrorCode2@WDDatasException@WDDatas@@3HA
; Line 265
	ldloc.1				; tmpWDDataException$12224
	throw.u2	
$LN19@Delete:
; Line 267
	leave.s		$LN13@Delete
__catch$?Delete@WDRelation@WDDatas@@$$FU$AAMXXZ$2:
	imp.push	
	stloc.s		4		; exp$12226
; Line 269
	ldstr		$StringLiteralTok$??_C@_1CG@PFOLFNFI@0?G0?$PM0?$LP0?l0?$LD0?$PM0?I0nf?x?$IP?$LM0kY1eW0W0?$HO0W0_0?$AC?$AA?$AA@
	ldloc.s		4		; exp$12226
	newobj		??0WDDatasException@WDDatas@@$$FQ$AAM@P$AAVString@System@@P$AAVException@3@@Z
	stloc.0				; tmpWDDataException$12227
; Line 270
	ldloc.0				; tmpWDDataException$12227
	ldc.i4		10605		; i32 0x296d
	stfld		?ErrorCode@WDDatasException@WDDatas@@3HA
; Line 271
	ldloc.0				; tmpWDDataException$12227
	ldc.i.3		3		; i32 0x3
	stfld		?ErrorCode2@WDDatasException@WDDatas@@3HA
; Line 272
	ldloc.0				; tmpWDDataException$12227
	throw.u2	
$LN22@Delete:
	leave.s		$LN13@Delete
$LN13@Delete:
; Line 276
	ldarg.0				; this$
	ldc.i.0		0		; i32 0x0
	stfld		?WordID@WDRelation@WDDatas@@3HA
; Line 277
	ldarg.0				; this$
	ldc.i.0		0		; i32 0x0
	stfld		?MeanNo@WDRelation@WDDatas@@3HA
; Line 278
	ldarg.0				; this$
	ldfld		?RelationType@WDRelation@WDDatas@@3P$AAV?$List@H@Generic@Collections@System@@$AA
	callvirt	?Clear@?$List@H@Generic@Collections@System@@$$FU$AAMXXZ
; Line 279
	ldarg.0				; this$
	ldfld		?RelationID@WDRelation@WDDatas@@3P$AAV?$List@H@Generic@Collections@System@@$AA
	callvirt	?Clear@?$List@H@Generic@Collections@System@@$$FU$AAMXXZ
; Line 280
	ldarg.0				; this$
	ldfld		?RelationNo@WDRelation@WDDatas@@3P$AAV?$List@H@Generic@Collections@System@@$AA
	callvirt	?Clear@?$List@H@Generic@Collections@System@@$$FU$AAMXXZ
$LN9@Delete:
; Line 282
	ret		
 .end ?Delete@WDRelation@WDDatas@@$$FU$AAMXXZ		; WDDatas::WDRelation::Delete
;	.proc.end.void
	.bss
.local	$T12908,0
.local	$StringLiteralTok$??_C@_1CE@JDMCCNFK@0?G0?$PM0?$LP?$IK?9?$FL?$JK0g0?$KI0?i0?$PM0Lvzu?$BP0W0?$HO0W0_0?$AC?$AA?$AA@,4
.local	$StringLiteralTok$??_C@_1CM@PBCFFGHA@0?G0?$PM0?$LP0?l0?$LD0?$PM0?I0La?$APTs0?G0?$PM0?$LP0g0o0B0?$IK0?$HO0?$FL0?$JD0?$AC?$AA?$AA@,4
; Function compile flags: /Ogtp
	.text
	.comdat	noduplicate, ??0WDRelation@WDDatas@@$$FQ$AAM@P$AAVDataRecord@FJIsam@@@Z
.global	??0WDRelation@WDDatas@@$$FQ$AAM@P$AAVDataRecord@FJIsam@@@Z ; WDDatas::WDRelation::WDRelation
??0WDRelation@WDDatas@@$$FQ$AAM@P$AAVDataRecord@FJIsam@@@Z: ; WDDatas::WDRelation::WDRelation
;	.proc.def	D:V(P)

; Function Header:
; max stack depth = 4
; function size = 155 bytes
; local varsig tk = 0x1100001C 
; Exception Information:
; 2 handlers, each consisting of filtered handlers

;	.formal.mptr 1,"inRec$" SIG: class (token:0x4D4439)
;	.formal.mptr 0,"this$" SIG: Optional C Binding Modifier(token:0x4D5595).class (token:0x4D5597)
;	.local.mptr 0,"tmpWDDataException$11957" SIG: class (token:0x4D43A5)
;	.local.mptr 2,"exp$11955" SIG: class (token:0x4D4319)
;	.local.mptr 1,"tmpWDDataException$11424" SIG: class (token:0x4D43A5)

;	.proc.beg
; Line 35
	ldarg.0				; this$
	call		??0Object@System@@$$FQ$AAM@XZ
$LN18@WDRelation@3:
; Line 38
	ldarg.0				; this$
	ldc.i.0		0		; i32 0x0
	stfld		?WordID@WDRelation@WDDatas@@3HA
; Line 39
	ldarg.0				; this$
	ldc.i.0		0		; i32 0x0
	stfld		?MeanNo@WDRelation@WDDatas@@3HA
; Line 40
	ldarg.0				; this$
	newobj		??0?$List@H@Generic@Collections@System@@$$FQ$AAM@XZ
	stfld		?RelationType@WDRelation@WDDatas@@3P$AAV?$List@H@Generic@Collections@System@@$AA
; Line 41
	ldarg.0				; this$
	newobj		??0?$List@H@Generic@Collections@System@@$$FQ$AAM@XZ
	stfld		?RelationID@WDRelation@WDDatas@@3P$AAV?$List@H@Generic@Collections@System@@$AA
; Line 42
	ldarg.0				; this$
	newobj		??0?$List@H@Generic@Collections@System@@$$FQ$AAM@XZ
	stfld		?RelationNo@WDRelation@WDDatas@@3P$AAV?$List@H@Generic@Collections@System@@$AA
; Line 44
	ldarg.1				; inRec$
	brfalse.s	$LN6@WDRelation@3
; Line 51
	ldarg.1				; inRec$
	call		?getDataLength@DataRecord@FJIsam@@$$FQ$AAMHXZ
	ldc.i4.s	12		; i32 0xc
	blt.s		$LN22@WDRelation@3
	leave.s		$LN2@WDRelation@3
$LN22@WDRelation@3:
; Line 54
	ldstr		$StringLiteralTok$??_C@_1CM@PBCFFGHA@0?G0?$PM0?$LP0?l0?$LD0?$PM0?I0La?$APTs0?G0?$PM0?$LP0g0o0B0?$IK0?$HO0?$FL0?$JD0?$AC?$AA?$AA@
	newobj		??0WDDatasException@WDDatas@@$$FQ$AAM@P$AAVString@System@@@Z
	stloc.1				; tmpWDDataException$11424
; Line 55
	ldloc.1				; tmpWDDataException$11424
	ldc.i4		10601		; i32 0x2969
	stfld		?ErrorCode@WDDatasException@WDDatas@@3HA
; Line 56
	ldloc.1				; tmpWDDataException$11424
	ldc.i.1		1		; i32 0x1
	stfld		?ErrorCode2@WDDatasException@WDDatas@@3HA
; Line 57
	ldloc.1				; tmpWDDataException$11424
	throw.u2	
$LN2@WDRelation@3:
; File c:\users\amotoo\documents\myproject\worddicbt\wddatas\wddatas.h
	nop		
$LN19@WDRelation@3:
; File c:\users\amotoo\documents\myproject\worddicbt\wddatas\wdrelation.cpp
; Line 63
	ldarg.0				; this$
	ldarg.1				; inRec$
	callvirt	?setRecord@WDRelation@WDDatas@@$$FU$AAMXP$AAVDataRecord@FJIsam@@@Z
	leave.s		$LN6@WDRelation@3
__catch$??0WDRelation@WDDatas@@$$FQ$AAM@P$AAVDataRecord@FJIsam@@@Z$0:
; Line 64
	imp.push	
	stloc.2				; exp$11955
; Line 66
	ldstr		$StringLiteralTok$??_C@_1CE@JDMCCNFK@0?G0?$PM0?$LP?$IK?9?$FL?$JK0g0?$KI0?i0?$PM0Lvzu?$BP0W0?$HO0W0_0?$AC?$AA?$AA@
	ldloc.2				; exp$11955
	newobj		??0WDDatasException@WDDatas@@$$FQ$AAM@P$AAVString@System@@P$AAVException@3@@Z
	stloc.0				; tmpWDDataException$11957
; Line 67
	ldloc.0				; tmpWDDataException$11957
	ldc.i4		10601		; i32 0x2969
	stfld		?ErrorCode@WDDatasException@WDDatas@@3HA
; Line 68
	ldloc.0				; tmpWDDataException$11957
	ldc.i.2		2		; i32 0x2
	stfld		?ErrorCode2@WDDatasException@WDDatas@@3HA
; Line 69
	ldloc.0				; tmpWDDataException$11957
	throw.u2	
$LN12@WDRelation@3:
	leave.s		$LN6@WDRelation@3
$LN6@WDRelation@3:
$LN5@WDRelation@3:
$LN17@WDRelation@3:
; Line 71
	leave.s		$LN20@WDRelation@3
$LN21@WDRelation@3:
	ldarg.0				; this$
	ldc.i.1		1		; u8 0x1
	call		?<Dispose>@WDRec@WDDatas@@$$FM$AAMX_N@Z
	endfinally	
$LN20@WDRelation@3:
; Line 51
	ret		
 .end ??0WDRelation@WDDatas@@$$FQ$AAM@P$AAVDataRecord@FJIsam@@@Z ; WDDatas::WDRelation::WDRelation
;	.proc.end.void
