; Listing generated by Microsoft (R) Optimizing Compiler Version 16.00.30319.01 

; Generated by VC++ for Common Language Runtime
.file "C:\Users\aMotoo\Documents\MyProject\WordDicBT\WDDatas\WDSegment.cpp"
.global	
	.bss
.local	,4
; Function compile flags: /Ogtp
	.text
	.comdat	any, ??0WDRec@WDDatas@@$$FQ$AAM@XZ
.global	??0WDRec@WDDatas@@$$FQ$AAM@XZ			; WDDatas::WDRec::WDRec
??0WDRec@WDDatas@@$$FQ$AAM@XZ:				; WDDatas::WDRec::WDRec
;	.proc.def	D:V()

; Function Header:
; max stack depth = 1
; function size = 7 bytes
; local varsig tk = 0x0 
; Exception Information:
; 0 handlers, each consisting of filtered handlers

;	.formal.mptr 0,"this$" SIG: Optional C Binding Modifier(token:0x4B3745).class (token:0x4B3747)

;	.proc.beg
	ldarg.0				; this$
	call		??0Object@System@@$$FQ$AAM@XZ
	ret		
 .end ??0WDRec@WDDatas@@$$FQ$AAM@XZ			; WDDatas::WDRec::WDRec
;	.proc.end.void
; Function compile flags: /Ogtp
	.text
	.comdat	any, ?<Dispose>@WDRec@WDDatas@@$$FM$AAMX_N@Z
.global	?<Dispose>@WDRec@WDDatas@@$$FM$AAMX_N@Z		; WDDatas::WDRec::<Dispose>
?<Dispose>@WDRec@WDDatas@@$$FM$AAMX_N@Z:		; WDDatas::WDRec::<Dispose>
;	.proc.def	D:V(I)

; Function Header:
; max stack depth = 1
; function size = 18 bytes
; local varsig tk = 0x0 
; Exception Information:
; 0 handlers, each consisting of filtered handlers

;	.formal.mptr 0,"this$" SIG: Optional C Binding Modifier(token:0x4B3745).class (token:0x4B3747)
;	.formal.u1 1,"disposing$" SIG: bool

;	.proc.beg
	ldarg.1				; disposing$
	brfalse.s	$LN2@
	ldarg.0				; this$
	call		??1WDRec@WDDatas@@$$FA$AAM@XZ
	br.s		$LN1@
$LN2@:
	ldarg.0				; this$
	call		?<Finalize>@Object@System@@$$FM$AAMXXZ
$LN1@:
	ret		
 .end ?<Dispose>@WDRec@WDDatas@@$$FM$AAMX_N@Z		; WDDatas::WDRec::<Dispose>
;	.proc.end.void
.global	
	.bss
.local	,4
; Function compile flags: /Ogtp
	.text
	.comdat	any, ?<Dispose>@WDWord@WDDatas@@$$FM$AAMX_N@Z
.global	?<Dispose>@WDWord@WDDatas@@$$FM$AAMX_N@Z	; WDDatas::WDWord::<Dispose>
?<Dispose>@WDWord@WDDatas@@$$FM$AAMX_N@Z:		; WDDatas::WDWord::<Dispose>
;	.proc.def	D:V(I)

; Function Header:
; max stack depth = 2
; function size = 27 bytes
; local varsig tk = 0x0 
; Exception Information:
; 1 handlers, each consisting of filtered handlers

;	.formal.mptr 0,"this$" SIG: Optional C Binding Modifier(token:0x4B3345).class (token:0x4B3347)
;	.formal.u1 1,"disposing$" SIG: bool

;	.proc.beg
	ldarg.1				; disposing$
	brfalse.s	$LN3@
$LN13@:
	ldarg.0				; this$
	call		??1WDWord@WDDatas@@$$FA$AAM@XZ
$LN2@:
	leave.s		$LN12@
$LN7@:
	ldarg.0				; this$
	ldc.i.1		1		; u8 0x1
	call		?<Dispose>@WDRec@WDDatas@@$$FM$AAMX_N@Z
$LN9@:
	endfinally	
$LN3@:
	ldarg.0				; this$
	ldc.i.0		0		; u8 0x0
	call		?<Dispose>@WDRec@WDDatas@@$$FM$AAMX_N@Z
$LN12@:
	ret		
 .end ?<Dispose>@WDWord@WDDatas@@$$FM$AAMX_N@Z		; WDDatas::WDWord::<Dispose>
;	.proc.end.void
.global	
	.bss
.local	,4
; Function compile flags: /Ogtp
	.text
	.comdat	any, ??0WDMeanGroup@WDDatas@@$$FQ$AAM@XZ
.global	??0WDMeanGroup@WDDatas@@$$FQ$AAM@XZ		; WDDatas::WDMeanGroup::WDMeanGroup
??0WDMeanGroup@WDDatas@@$$FQ$AAM@XZ:			; WDDatas::WDMeanGroup::WDMeanGroup
;	.proc.def	D:V()

; Function Header:
; max stack depth = 1
; function size = 7 bytes
; local varsig tk = 0x0 
; Exception Information:
; 0 handlers, each consisting of filtered handlers

;	.formal.mptr 0,"this$" SIG: Optional C Binding Modifier(token:0x4B32B5).class (token:0x4B32B7)

;	.proc.beg
	ldarg.0				; this$
	call		??0Object@System@@$$FQ$AAM@XZ
	ret		
 .end ??0WDMeanGroup@WDDatas@@$$FQ$AAM@XZ		; WDDatas::WDMeanGroup::WDMeanGroup
;	.proc.end.void
.global	
	.bss
.local	,4
; Function compile flags: /Ogtp
	.text
	.comdat	any, ??0WDMeanGrpComparer@WDDatas@@$$FQ$AAM@XZ
.global	??0WDMeanGrpComparer@WDDatas@@$$FQ$AAM@XZ	; WDDatas::WDMeanGrpComparer::WDMeanGrpComparer
??0WDMeanGrpComparer@WDDatas@@$$FQ$AAM@XZ:		; WDDatas::WDMeanGrpComparer::WDMeanGrpComparer
;	.proc.def	D:V()

; Function Header:
; max stack depth = 1
; function size = 7 bytes
; local varsig tk = 0x0 
; Exception Information:
; 0 handlers, each consisting of filtered handlers

;	.formal.mptr 0,"this$" SIG: Optional C Binding Modifier(token:0x4B321D).class (token:0x4B321F)

;	.proc.beg
	ldarg.0				; this$
	call		??0Object@System@@$$FQ$AAM@XZ
	ret		
 .end ??0WDMeanGrpComparer@WDDatas@@$$FQ$AAM@XZ		; WDDatas::WDMeanGrpComparer::WDMeanGrpComparer
;	.proc.end.void
.global	
	.bss
.local	,4
; Function compile flags: /Ogtp
	.text
	.comdat	any, ?<Dispose>@WDMean@WDDatas@@$$FM$AAMX_N@Z
.global	?<Dispose>@WDMean@WDDatas@@$$FM$AAMX_N@Z	; WDDatas::WDMean::<Dispose>
?<Dispose>@WDMean@WDDatas@@$$FM$AAMX_N@Z:		; WDDatas::WDMean::<Dispose>
;	.proc.def	D:V(I)

; Function Header:
; max stack depth = 2
; function size = 27 bytes
; local varsig tk = 0x0 
; Exception Information:
; 1 handlers, each consisting of filtered handlers

;	.formal.mptr 0,"this$" SIG: Optional C Binding Modifier(token:0x4B30D9).class (token:0x4B30DB)
;	.formal.u1 1,"disposing$" SIG: bool

;	.proc.beg
	ldarg.1				; disposing$
	brfalse.s	$LN3@
$LN13@:
	ldarg.0				; this$
	call		??1WDMean@WDDatas@@$$FA$AAM@XZ
$LN2@:
	leave.s		$LN12@
$LN7@:
	ldarg.0				; this$
	ldc.i.1		1		; u8 0x1
	call		?<Dispose>@WDRec@WDDatas@@$$FM$AAMX_N@Z
$LN9@:
	endfinally	
$LN3@:
	ldarg.0				; this$
	ldc.i.0		0		; u8 0x0
	call		?<Dispose>@WDRec@WDDatas@@$$FM$AAMX_N@Z
$LN12@:
	ret		
 .end ?<Dispose>@WDMean@WDDatas@@$$FM$AAMX_N@Z		; WDDatas::WDMean::<Dispose>
;	.proc.end.void
.global	?WDMeanGrpComp@WDMean@WDDatas@@0P$AAVWDMeanGrpComparer@2@$AA ; WDDatas::WDMean::WDMeanGrpComp
	.bss
.local	?WDMeanGrpComp@WDMean@WDDatas@@0P$AAVWDMeanGrpComparer@2@$AA,4 ; WDDatas::WDMean::WDMeanGrpComp
; Function compile flags: /Ogtp
	.text
	.comdat	any, ?.cctor@WDMean@WDDatas@@$$FSMXXZ
.global	?.cctor@WDMean@WDDatas@@$$FSMXXZ		; ?.cctor@WDMean@WDDatas@@$$FSMXXZ
?.cctor@WDMean@WDDatas@@$$FSMXXZ:			; ?.cctor@WDMean@WDDatas@@$$FSMXXZ
;	.proc.def	D:V()

; Function Header:
; max stack depth = 1
; function size = 7 bytes
; local varsig tk = 0x0 
; Exception Information:
; 0 handlers, each consisting of filtered handlers


;	.proc.beg
	ldnull		0		; i32 0x0
	stsfld		?WDMeanGrpComp@WDMean@WDDatas@@0P$AAVWDMeanGrpComparer@2@$AA
	ret		
 .end ?.cctor@WDMean@WDDatas@@$$FSMXXZ			; ?.cctor@WDMean@WDDatas@@$$FSMXXZ
;	.proc.end.void
.global	
	.bss
.local	,4
; Function compile flags: /Ogtp
	.text
	.comdat	any, ?<Dispose>@WDTrans@WDDatas@@$$FM$AAMX_N@Z
.global	?<Dispose>@WDTrans@WDDatas@@$$FM$AAMX_N@Z	; WDDatas::WDTrans::<Dispose>
?<Dispose>@WDTrans@WDDatas@@$$FM$AAMX_N@Z:		; WDDatas::WDTrans::<Dispose>
;	.proc.def	D:V(I)

; Function Header:
; max stack depth = 2
; function size = 27 bytes
; local varsig tk = 0x0 
; Exception Information:
; 1 handlers, each consisting of filtered handlers

;	.formal.mptr 0,"this$" SIG: Optional C Binding Modifier(token:0x4B2EE9).class (token:0x4B2EEB)
;	.formal.u1 1,"disposing$" SIG: bool

;	.proc.beg
	ldarg.1				; disposing$
	brfalse.s	$LN3@
$LN13@:
	ldarg.0				; this$
	call		??1WDTrans@WDDatas@@$$FA$AAM@XZ
$LN2@:
	leave.s		$LN12@
$LN7@:
	ldarg.0				; this$
	ldc.i.1		1		; u8 0x1
	call		?<Dispose>@WDRec@WDDatas@@$$FM$AAMX_N@Z
$LN9@:
	endfinally	
$LN3@:
	ldarg.0				; this$
	ldc.i.0		0		; u8 0x0
	call		?<Dispose>@WDRec@WDDatas@@$$FM$AAMX_N@Z
$LN12@:
	ret		
 .end ?<Dispose>@WDTrans@WDDatas@@$$FM$AAMX_N@Z		; WDDatas::WDTrans::<Dispose>
;	.proc.end.void
.global	
	.bss
.local	,4
; Function compile flags: /Ogtp
	.text
	.comdat	any, ?<Dispose>@WDRelation@WDDatas@@$$FM$AAMX_N@Z
.global	?<Dispose>@WDRelation@WDDatas@@$$FM$AAMX_N@Z	; WDDatas::WDRelation::<Dispose>
?<Dispose>@WDRelation@WDDatas@@$$FM$AAMX_N@Z:		; WDDatas::WDRelation::<Dispose>
;	.proc.def	D:V(I)

; Function Header:
; max stack depth = 2
; function size = 27 bytes
; local varsig tk = 0x0 
; Exception Information:
; 1 handlers, each consisting of filtered handlers

;	.formal.mptr 0,"this$" SIG: Optional C Binding Modifier(token:0x4B2D9D).class (token:0x4B2D9F)
;	.formal.u1 1,"disposing$" SIG: bool

;	.proc.beg
	ldarg.1				; disposing$
	brfalse.s	$LN3@
$LN13@:
	ldarg.0				; this$
	call		??1WDRelation@WDDatas@@$$FA$AAM@XZ
$LN2@:
	leave.s		$LN12@
$LN7@:
	ldarg.0				; this$
	ldc.i.1		1		; u8 0x1
	call		?<Dispose>@WDRec@WDDatas@@$$FM$AAMX_N@Z
$LN9@:
	endfinally	
$LN3@:
	ldarg.0				; this$
	ldc.i.0		0		; u8 0x0
	call		?<Dispose>@WDRec@WDDatas@@$$FM$AAMX_N@Z
$LN12@:
	ret		
 .end ?<Dispose>@WDRelation@WDDatas@@$$FM$AAMX_N@Z	; WDDatas::WDRelation::<Dispose>
;	.proc.end.void
.global	
	.bss
.local	,4
; Function compile flags: /Ogtp
	.text
	.comdat	any, ?<Dispose>@WDGroup@WDDatas@@$$FM$AAMX_N@Z
.global	?<Dispose>@WDGroup@WDDatas@@$$FM$AAMX_N@Z	; WDDatas::WDGroup::<Dispose>
?<Dispose>@WDGroup@WDDatas@@$$FM$AAMX_N@Z:		; WDDatas::WDGroup::<Dispose>
;	.proc.def	D:V(I)

; Function Header:
; max stack depth = 2
; function size = 27 bytes
; local varsig tk = 0x0 
; Exception Information:
; 1 handlers, each consisting of filtered handlers

;	.formal.mptr 0,"this$" SIG: Optional C Binding Modifier(token:0x4B2C59).class (token:0x4B2C5B)
;	.formal.u1 1,"disposing$" SIG: bool

;	.proc.beg
	ldarg.1				; disposing$
	brfalse.s	$LN3@
$LN13@:
	ldarg.0				; this$
	call		??1WDGroup@WDDatas@@$$FA$AAM@XZ
$LN2@:
	leave.s		$LN12@
$LN7@:
	ldarg.0				; this$
	ldc.i.1		1		; u8 0x1
	call		?<Dispose>@WDRec@WDDatas@@$$FM$AAMX_N@Z
$LN9@:
	endfinally	
$LN3@:
	ldarg.0				; this$
	ldc.i.0		0		; u8 0x0
	call		?<Dispose>@WDRec@WDDatas@@$$FM$AAMX_N@Z
$LN12@:
	ret		
 .end ?<Dispose>@WDGroup@WDDatas@@$$FM$AAMX_N@Z		; WDDatas::WDGroup::<Dispose>
;	.proc.end.void
.global	?SegmentNo@WDSegment@WDDatas@@3HA		; WDDatas::WDSegment::SegmentNo
.global	?SegmentID@WDSegment@WDDatas@@3HA		; WDDatas::WDSegment::SegmentID
.global	
	.bss
.local	?SegmentNo@WDSegment@WDDatas@@3HA,4		; WDDatas::WDSegment::SegmentNo
.local	?SegmentID@WDSegment@WDDatas@@3HA,4		; WDDatas::WDSegment::SegmentID
.local	,4
; Function compile flags: /Ogtp
	.text
	.comdat	noduplicate, ??0WDSegment@WDDatas@@$$FQ$AAM@XZ
.global	??0WDSegment@WDDatas@@$$FQ$AAM@XZ		; WDDatas::WDSegment::WDSegment
??0WDSegment@WDDatas@@$$FQ$AAM@XZ:			; WDDatas::WDSegment::WDSegment
;	.proc.def	D:V()

; Function Header:
; max stack depth = 2
; function size = 31 bytes
; local varsig tk = 0x0 
; Exception Information:
; 1 handlers, each consisting of filtered handlers

;	.formal.mptr 0,"this$" SIG: Optional C Binding Modifier(token:0x4AD9D5).class (token:0x4AD9D7)

;	.proc.beg
; File c:\users\amotoo\documents\myproject\worddicbt\wddatas\wdsegment.cpp
; Line 23
	ldarg.0				; this$
	call		??0Object@System@@$$FQ$AAM@XZ
$LN6@WDSegment:
; Line 25
	ldarg.0				; this$
	ldc.i.0		0		; i32 0x0
	stfld		?SegmentID@WDSegment@WDDatas@@3HA
; Line 26
	ldarg.0				; this$
	ldc.i.0		0		; i32 0x0
	stfld		?SegmentNo@WDSegment@WDDatas@@3HA
	leave.s		$LN7@WDSegment
$LN8@WDSegment:
	ldarg.0				; this$
	ldc.i.1		1		; u8 0x1
	call		?<Dispose>@WDRec@WDDatas@@$$FM$AAMX_N@Z
	endfinally	
$LN7@WDSegment:
; Line 27
	ret		
 .end ??0WDSegment@WDDatas@@$$FQ$AAM@XZ			; WDDatas::WDSegment::WDSegment
;	.proc.end.void
.global	?ShortName@WDSegment@WDDatas@@3P$AAVString@System@@$AA ; WDDatas::WDSegment::ShortName
.global	?Name@WDSegment@WDDatas@@3P$AAVString@System@@$AA ; WDDatas::WDSegment::Name
	.bss
.local	?ShortName@WDSegment@WDDatas@@3P$AAVString@System@@$AA,4 ; WDDatas::WDSegment::ShortName
.local	?Name@WDSegment@WDDatas@@3P$AAVString@System@@$AA,4 ; WDDatas::WDSegment::Name
; Function compile flags: /Ogtp
	.text
	.comdat	noduplicate, ??1WDSegment@WDDatas@@$$FA$AAM@XZ
.global	??1WDSegment@WDDatas@@$$FA$AAM@XZ		; WDDatas::WDSegment::~WDSegment
??1WDSegment@WDDatas@@$$FA$AAM@XZ:			; WDDatas::WDSegment::~WDSegment
;	.proc.def	D:V()

; Function Header:
; max stack depth = 2
; function size = 27 bytes
; local varsig tk = 0x0 
; Exception Information:
; 0 handlers, each consisting of filtered handlers

;	.formal.mptr 0,"this$" SIG: Optional C Binding Modifier(token:0x4AD9D5).class (token:0x4AD9D7)

;	.proc.beg
; Line 68
	ldarg.0				; this$
	ldfld		?Name@WDSegment@WDDatas@@3P$AAVString@System@@$AA
	ldnull		0		; i32 0x0
	call		??9String@System@@$$FSM_NP$AAV01@0@Z
	pop		
; Line 69
	ldarg.0				; this$
	ldfld		?ShortName@WDSegment@WDDatas@@3P$AAVString@System@@$AA
	ldnull		0		; i32 0x0
	call		??9String@System@@$$FSM_NP$AAV01@0@Z
	pop		
; Line 70
	ret		
 .end ??1WDSegment@WDDatas@@$$FA$AAM@XZ			; WDDatas::WDSegment::~WDSegment
;	.proc.end.void
; Function compile flags: /Ogtp
	.text
	.comdat	noduplicate, ?Length@WDSegment@WDDatas@@$$FSMHXZ
.global	?Length@WDSegment@WDDatas@@$$FSMHXZ		; WDDatas::WDSegment::Length
?Length@WDSegment@WDDatas@@$$FSMHXZ:			; WDDatas::WDSegment::Length
;	.proc.def	D:I()

; Function Header:
; max stack depth = 1
; function size = 3 bytes
; local varsig tk = 0x0 
; Exception Information:
; 0 handlers, each consisting of filtered handlers


;	.proc.beg
; Line 300
	ldc.i4.s	100		; i32 0x64
	ret		
 .end ?Length@WDSegment@WDDatas@@$$FSMHXZ		; WDDatas::WDSegment::Length
;	.proc.end.i4
; Function compile flags: /Ogtp
	.text
	.comdat	noduplicate, ?RecLength@WDSegment@WDDatas@@$$FU$AAMHXZ
.global	?RecLength@WDSegment@WDDatas@@$$FU$AAMHXZ	; WDDatas::WDSegment::RecLength
?RecLength@WDSegment@WDDatas@@$$FU$AAMHXZ:		; WDDatas::WDSegment::RecLength
;	.proc.def	D:I()

; Function Header:
; max stack depth = 2
; function size = 9 bytes
; local varsig tk = 0x0 
; Exception Information:
; 0 handlers, each consisting of filtered handlers


;	.proc.beg
; Line 306
	call		?getHeaderLength@DataRecord@FJIsam@@$$FSMHXZ
	ldc.i4.s	100		; i32 0x64
	add		
	ret		
 .end ?RecLength@WDSegment@WDDatas@@$$FU$AAMHXZ		; WDDatas::WDSegment::RecLength
;	.proc.end.i4
; Function compile flags: /Ogtp
	.text
	.comdat	noduplicate, ?getSegmentID@WDSegment@WDDatas@@$$FQ$AAMHXZ
.global	?getSegmentID@WDSegment@WDDatas@@$$FQ$AAMHXZ	; WDDatas::WDSegment::getSegmentID
?getSegmentID@WDSegment@WDDatas@@$$FQ$AAMHXZ:		; WDDatas::WDSegment::getSegmentID
;	.proc.def	D:I()

; Function Header:
; max stack depth = 1
; function size = 7 bytes
; local varsig tk = 0x0 
; Exception Information:
; 0 handlers, each consisting of filtered handlers

;	.formal.mptr 0,"this$" SIG: Optional C Binding Modifier(token:0x4AD9D5).class (token:0x4AD9D7)

;	.proc.beg
; Line 314
	ldarg.0				; this$
	ldfld		?SegmentID@WDSegment@WDDatas@@3HA
	ret		
 .end ?getSegmentID@WDSegment@WDDatas@@$$FQ$AAMHXZ	; WDDatas::WDSegment::getSegmentID
;	.proc.end.i4
; Function compile flags: /Ogtp
	.text
	.comdat	noduplicate, ?getSegmentNo@WDSegment@WDDatas@@$$FQ$AAMHXZ
.global	?getSegmentNo@WDSegment@WDDatas@@$$FQ$AAMHXZ	; WDDatas::WDSegment::getSegmentNo
?getSegmentNo@WDSegment@WDDatas@@$$FQ$AAMHXZ:		; WDDatas::WDSegment::getSegmentNo
;	.proc.def	D:I()

; Function Header:
; max stack depth = 1
; function size = 7 bytes
; local varsig tk = 0x0 
; Exception Information:
; 0 handlers, each consisting of filtered handlers

;	.formal.mptr 0,"this$" SIG: Optional C Binding Modifier(token:0x4AD9D5).class (token:0x4AD9D7)

;	.proc.beg
; Line 320
	ldarg.0				; this$
	ldfld		?SegmentNo@WDSegment@WDDatas@@3HA
	ret		
 .end ?getSegmentNo@WDSegment@WDDatas@@$$FQ$AAMHXZ	; WDDatas::WDSegment::getSegmentNo
;	.proc.end.i4
.global	
	.bss
.local	$T12052,0
.local	$StringLiteralTok$??_C@_11LOCGONAA@?$AA?$AA@,4
.local	$va_argTok$_W,4
.local	$TypeTok$110031CC$,4
.local	,4
; Function compile flags: /Ogtp
	.text
	.comdat	noduplicate, ?getName@WDSegment@WDDatas@@$$FQ$AAMP$AAVString@System@@P$AAV34@@Z
.global	?getName@WDSegment@WDDatas@@$$FQ$AAMP$AAVString@System@@P$AAV34@@Z ; WDDatas::WDSegment::getName
?getName@WDSegment@WDDatas@@$$FQ$AAMP$AAVString@System@@P$AAV34@@Z: ; WDDatas::WDSegment::getName
;	.proc.def	D:P(P)

; Function Header:
; max stack depth = 3
; function size = 82 bytes
; local varsig tk = 0x1100000B 
; Exception Information:
; 0 handlers, each consisting of filtered handlers

;	.formal.mptr 0,"this$" SIG: Optional C Binding Modifier(token:0x4AD9D5).class (token:0x4AD9D7)
;	.formal.mptr 1,"inData$" SIG: string
;	.local.mptr 0,"$T11673" SIG: szarray (token:0x4AB995)

;	.proc.beg
; Line 326
	ldarg.1				; inData$
	ldnull		0		; i32 0x0
	call		??9String@System@@$$FSM_NP$AAV01@0@Z
	brfalse.s	$LN4@getName
; Line 328
	ldarg.1				; inData$
	ldc.i.0		0		; i32 0x0
	call		?Remove@String@System@@$$FQ$AAMP$AAV12@H@Z
	pop		
; Line 329
	ldarg.1				; inData$
	ldc.i.0		0		; i32 0x0
	ldarg.0				; this$
	ldfld		?Name@WDSegment@WDDatas@@3P$AAVString@System@@$AA
	call		?Insert@String@System@@$$FQ$AAMP$AAV12@HP$AAV12@@Z
	pop		
; Line 330
	ldarg.1				; inData$
	ret		
$LN4@getName:
; Line 332
	ldarg.0				; this$
	ldfld		?Name@WDSegment@WDDatas@@3P$AAVString@System@@$AA
	call		?get@Length@String@System@@$$FQ$AAMHXZ
	ldc.i.0		0		; i32 0x0
	ble.s		$LN2@getName
; Line 334
	ldc.i.1		1		; i32 0x1
	newarr		$TypeTok$110031CC$
	stloc.0				; $T11673
	ldloc.0				; $T11673
	ldc.i.0		0		; i32 0x0
	ldelema		$va_argTok$_W
	ldc.i.0		0		; u16 0x0
	stind.i2	
	ldarg.0				; this$
	ldfld		?Name@WDSegment@WDDatas@@3P$AAVString@System@@$AA
	ldloc.0				; $T11673
	call		?Trim@String@System@@$$FQ$AAMP$AAV12@P$01A_W@Z
	ret		
$LN2@getName:
; Line 336
	ldstr		$StringLiteralTok$??_C@_11LOCGONAA@?$AA?$AA@
	ret		
 .end ?getName@WDSegment@WDDatas@@$$FQ$AAMP$AAVString@System@@P$AAV34@@Z ; WDDatas::WDSegment::getName
;	.proc.end.mptr
	.bss
.local	$T12055,0
; Function compile flags: /Ogtp
	.text
	.comdat	noduplicate, ?getShortName@WDSegment@WDDatas@@$$FQ$AAMP$AAVString@System@@P$AAV34@@Z
.global	?getShortName@WDSegment@WDDatas@@$$FQ$AAMP$AAVString@System@@P$AAV34@@Z ; WDDatas::WDSegment::getShortName
?getShortName@WDSegment@WDDatas@@$$FQ$AAMP$AAVString@System@@P$AAV34@@Z: ; WDDatas::WDSegment::getShortName
;	.proc.def	D:P(P)

; Function Header:
; max stack depth = 3
; function size = 87 bytes
; local varsig tk = 0x1100000B 
; Exception Information:
; 0 handlers, each consisting of filtered handlers

;	.formal.mptr 0,"this$" SIG: Optional C Binding Modifier(token:0x4AD9D5).class (token:0x4AD9D7)
;	.formal.mptr 1,"inData$" SIG: string
;	.local.mptr 0,"$T11687" SIG: szarray (token:0x4AB995)

;	.proc.beg
; Line 344
	ldarg.1				; inData$
	ldnull		0		; i32 0x0
	call		??9String@System@@$$FSM_NP$AAV01@0@Z
	brfalse.s	$LN4@getShortNa
; Line 346
	ldarg.1				; inData$
	ldc.i.0		0		; i32 0x0
	call		?Remove@String@System@@$$FQ$AAMP$AAV12@H@Z
	pop		
; Line 347
	ldarg.1				; inData$
	ldc.i.0		0		; i32 0x0
	ldarg.0				; this$
	ldfld		?ShortName@WDSegment@WDDatas@@3P$AAVString@System@@$AA
	call		?Insert@String@System@@$$FQ$AAMP$AAV12@HP$AAV12@@Z
	pop		
; Line 348
	ldarg.1				; inData$
	ret		
$LN4@getShortNa:
; Line 350
	ldarg.0				; this$
	ldfld		?ShortName@WDSegment@WDDatas@@3P$AAVString@System@@$AA
	call		?get@Length@String@System@@$$FQ$AAMHXZ
	ldc.i.0		0		; i32 0x0
	ble.s		$LN2@getShortNa
; Line 352
	ldc.i.1		1		; i32 0x1
	newarr		$TypeTok$110031CC$
	stloc.0				; $T11687
	ldloc.0				; $T11687
	ldc.i.0		0		; i32 0x0
	ldelema		$va_argTok$_W
	ldc.i.0		0		; u16 0x0
	stind.i2	
	ldarg.0				; this$
	ldfld		?ShortName@WDSegment@WDDatas@@3P$AAVString@System@@$AA
	call		?Copy@String@System@@$$FSMP$AAV12@P$AAV12@@Z
	ldloc.0				; $T11687
	call		?Trim@String@System@@$$FQ$AAMP$AAV12@P$01A_W@Z
	ret		
$LN2@getShortNa:
; Line 354
	ldstr		$StringLiteralTok$??_C@_11LOCGONAA@?$AA?$AA@
	ret		
 .end ?getShortName@WDSegment@WDDatas@@$$FQ$AAMP$AAVString@System@@P$AAV34@@Z ; WDDatas::WDSegment::getShortName
;	.proc.end.mptr
.global	?ErrorCode2@WDDatasException@WDDatas@@3HA	; WDDatas::WDDatasException::ErrorCode2
.global	?ErrorCode@WDDatasException@WDDatas@@3HA	; WDDatas::WDDatasException::ErrorCode
.global	
.global	
	.bss
.local	$T12061,0
.local	?ErrorCode2@WDDatasException@WDDatas@@3HA,4	; WDDatas::WDDatasException::ErrorCode2
.local	?ErrorCode@WDDatasException@WDDatas@@3HA,4	; WDDatas::WDDatasException::ErrorCode
.local	$StringLiteralTok$??_C@_1BG@NHGHOCLJ@S?3R?$AG?$AAI?$AAD0LN?$ANkc0g0Y0?$AC?$AA?$AA@,4
.local	,4
.local	,4
; Function compile flags: /Ogtp
	.text
	.comdat	noduplicate, ?setSegmentID@WDSegment@WDDatas@@$$FQ$AAMXH@Z
.global	?setSegmentID@WDSegment@WDDatas@@$$FQ$AAMXH@Z	; WDDatas::WDSegment::setSegmentID
?setSegmentID@WDSegment@WDDatas@@$$FQ$AAMXH@Z:		; WDDatas::WDSegment::setSegmentID
;	.proc.def	D:V(I)

; Function Header:
; max stack depth = 2
; function size = 43 bytes
; local varsig tk = 0x1100000E 
; Exception Information:
; 0 handlers, each consisting of filtered handlers

;	.formal.mptr 0,"this$" SIG: Optional C Binding Modifier(token:0x4AD9D5).class (token:0x4AD9D7)
;	.formal.i4 1,"inData$" SIG: i4
;	.local.mptr 0,"tmpWDDataException$11695" SIG: class (token:0x4ACF51)

;	.proc.beg
; Line 364
	ldarg.1				; inData$
	ldc.i.0		0		; i32 0x0
	bge.s		$LN1@setSegment
; Line 367
	ldstr		$StringLiteralTok$??_C@_1BG@NHGHOCLJ@S?3R?$AG?$AAI?$AAD0LN?$ANkc0g0Y0?$AC?$AA?$AA@
	newobj		??0WDDatasException@WDDatas@@$$FQ$AAM@P$AAVString@System@@@Z
	stloc.0				; tmpWDDataException$11695
; Line 368
	ldloc.0				; tmpWDDataException$11695
	ldc.i4		10406		; i32 0x28a6
	stfld		?ErrorCode@WDDatasException@WDDatas@@3HA
; Line 369
	ldloc.0				; tmpWDDataException$11695
	ldc.i.1		1		; i32 0x1
	stfld		?ErrorCode2@WDDatasException@WDDatas@@3HA
; Line 370
	ldloc.0				; tmpWDDataException$11695
	throw.u2	
$LN1@setSegment:
; Line 373
	ldarg.0				; this$
	ldarg.1				; inData$
	stfld		?SegmentID@WDSegment@WDDatas@@3HA
; Line 374
	ret		
 .end ?setSegmentID@WDSegment@WDDatas@@$$FQ$AAMXH@Z	; WDDatas::WDSegment::setSegmentID
;	.proc.end.void
	.bss
.local	$T12065,0
.local	$StringLiteralTok$??_C@_1BG@HLKNLIBN@S?3R?$AG?$AAN?$AAo0LN?$ANkc0g0Y0?$AC?$AA?$AA@,4
; Function compile flags: /Ogtp
	.text
	.comdat	noduplicate, ?setSegmentNo@WDSegment@WDDatas@@$$FQ$AAMXH@Z
.global	?setSegmentNo@WDSegment@WDDatas@@$$FQ$AAMXH@Z	; WDDatas::WDSegment::setSegmentNo
?setSegmentNo@WDSegment@WDDatas@@$$FQ$AAMXH@Z:		; WDDatas::WDSegment::setSegmentNo
;	.proc.def	D:V(I)

; Function Header:
; max stack depth = 2
; function size = 43 bytes
; local varsig tk = 0x1100000E 
; Exception Information:
; 0 handlers, each consisting of filtered handlers

;	.formal.mptr 0,"this$" SIG: Optional C Binding Modifier(token:0x4AD9D5).class (token:0x4AD9D7)
;	.formal.i4 1,"inData$" SIG: i4
;	.local.mptr 0,"tmpWDDataException$11704" SIG: class (token:0x4ACF51)

;	.proc.beg
; Line 380
	ldarg.1				; inData$
	ldc.i.0		0		; i32 0x0
	bge.s		$LN1@setSegment@2
; Line 383
	ldstr		$StringLiteralTok$??_C@_1BG@HLKNLIBN@S?3R?$AG?$AAN?$AAo0LN?$ANkc0g0Y0?$AC?$AA?$AA@
	newobj		??0WDDatasException@WDDatas@@$$FQ$AAM@P$AAVString@System@@@Z
	stloc.0				; tmpWDDataException$11704
; Line 384
	ldloc.0				; tmpWDDataException$11704
	ldc.i4		10407		; i32 0x28a7
	stfld		?ErrorCode@WDDatasException@WDDatas@@3HA
; Line 385
	ldloc.0				; tmpWDDataException$11704
	ldc.i.1		1		; i32 0x1
	stfld		?ErrorCode2@WDDatasException@WDDatas@@3HA
; Line 386
	ldloc.0				; tmpWDDataException$11704
	throw.u2	
$LN1@setSegment@2:
; Line 389
	ldarg.0				; this$
	ldarg.1				; inData$
	stfld		?SegmentNo@WDSegment@WDDatas@@3HA
; Line 390
	ret		
 .end ?setSegmentNo@WDSegment@WDDatas@@$$FQ$AAMXH@Z	; WDDatas::WDSegment::setSegmentNo
;	.proc.end.void
.global	
	.bss
.local	$T12081,0
.local	$StringLiteralTok$??_C@_1BM@MPHGEEDI@T?$ANy?p0n?$IK?9?$FL?$JK0kY1eW0W0?$HO0W0_0?$AC?$AA?$AA@,4
.local	$StringLiteralTok$??_C@_1BE@GCMCBLNC@T?$ANy?p0L?$JFw0Y0N0?$HO0Y0?$AC?$AA?$AA@,4
.local	$StringLiteralTok$??_C@_1BE@PJKBMKAK@T?$ANy?p0Lg?$CK?$IK?9?$FL?$JK0g0Y0?$AC?$AA?$AA@,4
.local	,4
; Function compile flags: /Ogtp
	.text
	.comdat	noduplicate, ?setName@WDSegment@WDDatas@@$$FQ$AAMXP$AAVString@System@@@Z
.global	?setName@WDSegment@WDDatas@@$$FQ$AAMXP$AAVString@System@@@Z ; WDDatas::WDSegment::setName
?setName@WDSegment@WDDatas@@$$FQ$AAMXP$AAVString@System@@@Z: ; WDDatas::WDSegment::setName
;	.proc.def	D:V(P)

; Function Header:
; max stack depth = 4
; function size = 142 bytes
; local varsig tk = 0x11000010 
; Exception Information:
; 1 handlers, each consisting of filtered handlers

;	.formal.mptr 0,"this$" SIG: Optional C Binding Modifier(token:0x4AD9D5).class (token:0x4AD9D7)
;	.formal.mptr 1,"inData$" SIG: string
;	.local.mptr 0,"tmpWDDataException$11724" SIG: class (token:0x4ACF51)
;	.local.mptr 3,"exp$11723" SIG: class (token:0x4ACEC5)
;	.local.mptr 1,"tmpWDDataException$11716" SIG: class (token:0x4ACF51)
;	.local.mptr 2,"tmpWDDataException$11712" SIG: class (token:0x4ACF51)

;	.proc.beg
; Line 396
	ldarg.1				; inData$
	ldnull		0		; i32 0x0
	call		??8String@System@@$$FSM_NP$AAV01@0@Z
	brfalse.s	$LN4@setName
; Line 399
	ldstr		$StringLiteralTok$??_C@_1BE@PJKBMKAK@T?$ANy?p0Lg?$CK?$IK?9?$FL?$JK0g0Y0?$AC?$AA?$AA@
	newobj		??0WDDatasException@WDDatas@@$$FQ$AAM@P$AAVString@System@@@Z
	stloc.2				; tmpWDDataException$11712
; Line 400
	ldloc.2				; tmpWDDataException$11712
	ldc.i4		10408		; i32 0x28a8
	stfld		?ErrorCode@WDDatasException@WDDatas@@3HA
; Line 401
	ldloc.2				; tmpWDDataException$11712
	ldc.i.1		1		; i32 0x1
	stfld		?ErrorCode2@WDDatasException@WDDatas@@3HA
; Line 402
	ldloc.2				; tmpWDDataException$11712
	throw.u2	
$LN4@setName:
; Line 404
	ldarg.1				; inData$
	call		?get@Length@String@System@@$$FQ$AAMHXZ
	ldc.i.1		1		; i32 0x1
	shl		
	ldc.i4.s	60		; i32 0x3c
	ble.s		$LN3@setName
; Line 407
	ldstr		$StringLiteralTok$??_C@_1BE@GCMCBLNC@T?$ANy?p0L?$JFw0Y0N0?$HO0Y0?$AC?$AA?$AA@
	newobj		??0WDDatasException@WDDatas@@$$FQ$AAM@P$AAVString@System@@@Z
	stloc.1				; tmpWDDataException$11716
; Line 408
	ldloc.1				; tmpWDDataException$11716
	ldc.i4		10408		; i32 0x28a8
	stfld		?ErrorCode@WDDatasException@WDDatas@@3HA
; Line 409
	ldloc.1				; tmpWDDataException$11716
	ldc.i.2		2		; i32 0x2
	stfld		?ErrorCode2@WDDatasException@WDDatas@@3HA
; Line 410
	ldloc.1				; tmpWDDataException$11716
	throw.u2	
$LN3@setName:
	nop		
$LN16@setName:
; Line 416
	ldarg.0				; this$
	ldfld		?Name@WDSegment@WDDatas@@3P$AAVString@System@@$AA
	ldnull		0		; i32 0x0
	call		??9String@System@@$$FSM_NP$AAV01@0@Z
	pop		
; Line 420
	ldarg.0				; this$
	ldarg.1				; inData$
	stfld		?Name@WDSegment@WDDatas@@3P$AAVString@System@@$AA
	leave.s		$LN7@setName
__catch$?setName@WDSegment@WDDatas@@$$FQ$AAMXP$AAVString@System@@@Z$0:
; Line 422
	imp.push	
	stloc.3				; exp$11723
; Line 424
	ldstr		$StringLiteralTok$??_C@_1BM@MPHGEEDI@T?$ANy?p0n?$IK?9?$FL?$JK0kY1eW0W0?$HO0W0_0?$AC?$AA?$AA@
	ldloc.3				; exp$11723
	newobj		??0WDDatasException@WDDatas@@$$FQ$AAM@P$AAVString@System@@P$AAVException@3@@Z
	stloc.0				; tmpWDDataException$11724
; Line 425
	ldloc.0				; tmpWDDataException$11724
	ldc.i4		10408		; i32 0x28a8
	stfld		?ErrorCode@WDDatasException@WDDatas@@3HA
; Line 426
	ldloc.0				; tmpWDDataException$11724
	ldc.i.3		3		; i32 0x3
	stfld		?ErrorCode2@WDDatasException@WDDatas@@3HA
; Line 427
	ldloc.0				; tmpWDDataException$11724
	throw.u2	
$LN12@setName:
	leave.s		$LN7@setName
$LN7@setName:
$LN15@setName:
; Line 430
	ret		
 .end ?setName@WDSegment@WDDatas@@$$FQ$AAMXP$AAVString@System@@@Z ; WDDatas::WDSegment::setName
;	.proc.end.void
	.bss
.local	$T12097,0
.local	$StringLiteralTok$??_C@_1BM@ELHMAFNL@uey?p0n?$IK?9?$FL?$JK0kY1eW0W0?$HO0W0_0?$AC?$AA?$AA@,4
.local	$StringLiteralTok$??_C@_1BE@CBHLMLDB@uey?p0L?$JFw0Y0N0?$HO0Y0?$AC?$AA?$AA@,4
.local	$StringLiteralTok$??_C@_1BE@LKBIBKOJ@uey?p0Lg?$CK?$IK?9?$FL?$JK0g0Y0?$AC?$AA?$AA@,4
; Function compile flags: /Ogtp
	.text
	.comdat	noduplicate, ?setShortName@WDSegment@WDDatas@@$$FQ$AAMXP$AAVString@System@@@Z
.global	?setShortName@WDSegment@WDDatas@@$$FQ$AAMXP$AAVString@System@@@Z ; WDDatas::WDSegment::setShortName
?setShortName@WDSegment@WDDatas@@$$FQ$AAMXP$AAVString@System@@@Z: ; WDDatas::WDSegment::setShortName
;	.proc.def	D:V(P)

; Function Header:
; max stack depth = 4
; function size = 142 bytes
; local varsig tk = 0x11000010 
; Exception Information:
; 1 handlers, each consisting of filtered handlers

;	.formal.mptr 0,"this$" SIG: Optional C Binding Modifier(token:0x4AD9D5).class (token:0x4AD9D7)
;	.formal.mptr 1,"inData$" SIG: string
;	.local.mptr 0,"tmpWDDataException$11744" SIG: class (token:0x4ACF51)
;	.local.mptr 3,"exp$11743" SIG: class (token:0x4ACEC5)
;	.local.mptr 1,"tmpWDDataException$11736" SIG: class (token:0x4ACF51)
;	.local.mptr 2,"tmpWDDataException$11732" SIG: class (token:0x4ACF51)

;	.proc.beg
; Line 436
	ldarg.1				; inData$
	ldnull		0		; i32 0x0
	call		??8String@System@@$$FSM_NP$AAV01@0@Z
	brfalse.s	$LN4@setShortNa
; Line 439
	ldstr		$StringLiteralTok$??_C@_1BE@LKBIBKOJ@uey?p0Lg?$CK?$IK?9?$FL?$JK0g0Y0?$AC?$AA?$AA@
	newobj		??0WDDatasException@WDDatas@@$$FQ$AAM@P$AAVString@System@@@Z
	stloc.2				; tmpWDDataException$11732
; Line 440
	ldloc.2				; tmpWDDataException$11732
	ldc.i4		10409		; i32 0x28a9
	stfld		?ErrorCode@WDDatasException@WDDatas@@3HA
; Line 441
	ldloc.2				; tmpWDDataException$11732
	ldc.i.1		1		; i32 0x1
	stfld		?ErrorCode2@WDDatasException@WDDatas@@3HA
; Line 442
	ldloc.2				; tmpWDDataException$11732
	throw.u2	
$LN4@setShortNa:
; Line 444
	ldarg.1				; inData$
	call		?get@Length@String@System@@$$FQ$AAMHXZ
	ldc.i.1		1		; i32 0x1
	shl		
	ldc.i4.s	10		; i32 0xa
	ble.s		$LN3@setShortNa
; Line 447
	ldstr		$StringLiteralTok$??_C@_1BE@CBHLMLDB@uey?p0L?$JFw0Y0N0?$HO0Y0?$AC?$AA?$AA@
	newobj		??0WDDatasException@WDDatas@@$$FQ$AAM@P$AAVString@System@@@Z
	stloc.1				; tmpWDDataException$11736
; Line 448
	ldloc.1				; tmpWDDataException$11736
	ldc.i4		10409		; i32 0x28a9
	stfld		?ErrorCode@WDDatasException@WDDatas@@3HA
; Line 449
	ldloc.1				; tmpWDDataException$11736
	ldc.i.2		2		; i32 0x2
	stfld		?ErrorCode2@WDDatasException@WDDatas@@3HA
; Line 450
	ldloc.1				; tmpWDDataException$11736
	throw.u2	
$LN3@setShortNa:
	nop		
$LN16@setShortNa:
; Line 456
	ldarg.0				; this$
	ldfld		?ShortName@WDSegment@WDDatas@@3P$AAVString@System@@$AA
	ldnull		0		; i32 0x0
	call		??9String@System@@$$FSM_NP$AAV01@0@Z
	pop		
; Line 461
	ldarg.0				; this$
	ldarg.1				; inData$
	stfld		?ShortName@WDSegment@WDDatas@@3P$AAVString@System@@$AA
	leave.s		$LN7@setShortNa
__catch$?setShortName@WDSegment@WDDatas@@$$FQ$AAMXP$AAVString@System@@@Z$0:
; Line 463
	imp.push	
	stloc.3				; exp$11743
; Line 465
	ldstr		$StringLiteralTok$??_C@_1BM@ELHMAFNL@uey?p0n?$IK?9?$FL?$JK0kY1eW0W0?$HO0W0_0?$AC?$AA?$AA@
	ldloc.3				; exp$11743
	newobj		??0WDDatasException@WDDatas@@$$FQ$AAM@P$AAVString@System@@P$AAVException@3@@Z
	stloc.0				; tmpWDDataException$11744
; Line 466
	ldloc.0				; tmpWDDataException$11744
	ldc.i4		10409		; i32 0x28a9
	stfld		?ErrorCode@WDDatasException@WDDatas@@3HA
; Line 467
	ldloc.0				; tmpWDDataException$11744
	ldc.i.3		3		; i32 0x3
	stfld		?ErrorCode2@WDDatasException@WDDatas@@3HA
; Line 468
	ldloc.0				; tmpWDDataException$11744
	throw.u2	
$LN12@setShortNa:
	leave.s		$LN7@setShortNa
$LN7@setShortNa:
$LN15@setShortNa:
; Line 471
	ret		
 .end ?setShortName@WDSegment@WDDatas@@$$FQ$AAMXP$AAVString@System@@@Z ; WDDatas::WDSegment::setShortName
;	.proc.end.void
.global	
	.bss
.local	$T12115,0
.local	$StringLiteralTok$??_C@_1CA@PDKIJOOO@0?G0?$PM0?$LP0n0?$LD0?T0?$PM0kY1eW0W0?$HO0W0_0?$AC?$AA?$AA@,4
.local	$TypeTok$110DD6FC$,4
.local	$StringLiteralTok$??_C@_1CA@DCBKAEPK@0?$LD0?T0?$PMQH0?G0?$PM0?$LP?$JFw0Lw?m0Y0N0?$HO0Y0?$AC?$AA?$AA@,4
.local	,4
; Function compile flags: /Ogtp
	.text
	.comdat	noduplicate, ?getData@WDSegment@WDDatas@@$$FA$AAMP$01AEP$01AE@Z
.global	?getData@WDSegment@WDDatas@@$$FA$AAMP$01AEP$01AE@Z ; WDDatas::WDSegment::getData
?getData@WDSegment@WDDatas@@$$FA$AAMP$01AEP$01AE@Z:	; WDDatas::WDSegment::getData
;	.proc.def	D:P(P)

; Function Header:
; max stack depth = 4
; function size = 201 bytes
; local varsig tk = 0x11000012 
; Exception Information:
; 1 handlers, each consisting of filtered handlers

;	.formal.mptr 0,"this$" SIG: Optional C Binding Modifier(token:0x4AD9D5).class (token:0x4AD9D7)
;	.formal.mptr 1,"inData$" SIG: szarray (token:0x4B2851)
;	.local.mptr 2,"tmpWDDataException$11891" SIG: class (token:0x4ACF51)
;	.local.mptr 5,"exp$11890" SIG: class (token:0x4ACEC5)
;	.local.i4 3,"i$11835" SIG: i4
;	.local.i4 1,"tmpPos$" SIG: i4
;	.local.mptr 4,"tmpWDDataException$11757" SIG: class (token:0x4ACF51)
;	.local.mptr 0,"rtData$" SIG: szarray (token:0x4B2851)

;	.proc.beg
; Line 478
	ldnull		0		; i32 0x0
	stloc.0				; rtData$
; Line 484
	ldarg.1				; inData$
	brfalse.s	$LN7@getData
	ldarg.1				; inData$
	ldlen		
	ldc.i4.s	78		; i32 0x4e
	bge.s		$LN7@getData
; Line 487
	ldstr		$StringLiteralTok$??_C@_1CA@DCBKAEPK@0?$LD0?T0?$PMQH0?G0?$PM0?$LP?$JFw0Lw?m0Y0N0?$HO0Y0?$AC?$AA?$AA@
	newobj		??0WDDatasException@WDDatas@@$$FQ$AAM@P$AAVString@System@@@Z
	stloc.s		4		; tmpWDDataException$11757
; Line 488
	ldloc.s		4		; tmpWDDataException$11757
	ldc.i4		10410		; i32 0x28aa
	stfld		?ErrorCode@WDDatasException@WDDatas@@3HA
; Line 489
	ldloc.s		4		; tmpWDDataException$11757
	ldc.i.1		1		; i32 0x1
	stfld		?ErrorCode2@WDDatasException@WDDatas@@3HA
; Line 490
	ldloc.s		4		; tmpWDDataException$11757
	throw.u2	
$LN7@getData:
	nop		
$LN20@getData:
; Line 496
	ldarg.1				; inData$
	brtrue.s	$LN5@getData
; Line 498
	ldc.i4.s	100		; i32 0x64
	newarr		$TypeTok$110DD6FC$
	stloc.0				; rtData$
; Line 499
	br.s		$LN4@getData
$LN5@getData:
; Line 500
	ldarg.1				; inData$
	stloc.0				; rtData$
$LN4@getData:
; Line 503
	ldc.i.0		0		; i32 0x0
	stloc.1				; tmpPos$
; Line 505
	ldarg.0				; this$
	ldfld		?SegmentID@WDSegment@WDDatas@@3HA
	ldloc.0				; rtData$
	ldc.i.0		0		; i32 0x0
	call		?Int32ToArray@FJIFuncs@FJIsam@@$$FSMP$01AEHP$01AEH@Z
	pop		
; Line 506
	ldc.i.4		4		; i32 0x4
	stloc.1				; tmpPos$
; Line 508
	ldarg.0				; this$
	ldfld		?SegmentNo@WDSegment@WDDatas@@3HA
	ldloc.0				; rtData$
	ldc.i.4		4		; i32 0x4
	call		?Int32ToArray@FJIFuncs@FJIsam@@$$FSMP$01AEHP$01AEH@Z
	pop		
; Line 509
	ldc.i.8		8		; i32 0x8
	stloc.1				; tmpPos$
; Line 511
	ldarg.0				; this$
	ldfld		?Name@WDSegment@WDDatas@@3P$AAVString@System@@$AA
	ldloc.0				; rtData$
	ldc.i.8		8		; i32 0x8
	ldc.i4.s	60		; i32 0x3c
	call		?StringToArray@FJIFuncs@FJIsam@@$$FSMP$01AEP$AAVString@System@@P$01AEHH@Z
	pop		
; Line 512
	ldc.i4.s	68		; i32 0x44
	stloc.1				; tmpPos$
; Line 514
	ldarg.0				; this$
	ldfld		?ShortName@WDSegment@WDDatas@@3P$AAVString@System@@$AA
	ldloc.0				; rtData$
	ldc.i4.s	68		; i32 0x44
	ldc.i4.s	10		; i32 0xa
	call		?StringToArray@FJIFuncs@FJIsam@@$$FSMP$01AEP$AAVString@System@@P$01AEHH@Z
	pop		
; Line 515
	ldc.i4.s	78		; i32 0x4e
	stloc.1				; tmpPos$
; Line 517
	ldc.i.0		0		; i32 0x0
	stloc.3				; i$11835
$LL3@getData:
	ldloc.3				; i$11835
	ldc.i4.s	22		; i32 0x16
	bge.s		$LN1@getData
; Line 519
	ldloc.0				; rtData$
	ldloc.1				; tmpPos$
	ldc.i.0		0		; u8 0x0
	call		?SetByte@Buffer@System@@$$FSMXP$AAVArray@2@HE@Z
; Line 520
	ldloc.1				; tmpPos$
	ldc.i.1		1		; i32 0x1
	add		
	stloc.1				; tmpPos$
; Line 517
	ldloc.3				; i$11835
	ldc.i.1		1		; i32 0x1
	add		
	stloc.3				; i$11835
	br.s		$LL3@getData
$LN1@getData:
; Line 521
	leave.s		$LN10@getData
__catch$?getData@WDSegment@WDDatas@@$$FA$AAMP$01AEP$01AE@Z$0:
; Line 523
	imp.push	
	stloc.s		5		; exp$11890
; Line 525
	ldstr		$StringLiteralTok$??_C@_1CA@PDKIJOOO@0?G0?$PM0?$LP0n0?$LD0?T0?$PM0kY1eW0W0?$HO0W0_0?$AC?$AA?$AA@
	ldloc.s		5		; exp$11890
	newobj		??0WDDatasException@WDDatas@@$$FQ$AAM@P$AAVString@System@@P$AAVException@3@@Z
	stloc.2				; tmpWDDataException$11891
; Line 526
	ldloc.2				; tmpWDDataException$11891
	ldc.i4		10410		; i32 0x28aa
	stfld		?ErrorCode@WDDatasException@WDDatas@@3HA
; Line 527
	ldloc.2				; tmpWDDataException$11891
	ldc.i.2		2		; i32 0x2
	stfld		?ErrorCode2@WDDatasException@WDDatas@@3HA
; Line 528
	ldloc.2				; tmpWDDataException$11891
	throw.u2	
$LN15@getData:
	leave.s		$LN10@getData
$LN10@getData:
; Line 532
	ldloc.0				; rtData$
	ret		
 .end ?getData@WDSegment@WDDatas@@$$FA$AAMP$01AEP$01AE@Z ; WDDatas::WDSegment::getData
;	.proc.end.mptr
	.bss
.local	$T12131,0
.local	$StringLiteralTok$??_C@_1BO@BMAIFGGH@0?G0?$PM0?$LP0n?$IK?9?$FL?$JK0kY1eW0W0?$HO0W0_0?$AC?$AA?$AA@,4
.local	$StringLiteralTok$??_C@_1CG@BHOEGJEO@0?$LD0?T0?$PMQC0?G0?$PM0?$LP?$JFw0Lkc0W0O0B0?$IK0?$HO0?$FL0?$JD0?$AC?$AA?$AA@,4
.local	$StringLiteralTok$??_C@_1BO@MACLDLLC@0?$LD0?T0?$PMQC0?G0?$PM0?$LP0Lg?$CK?$IK?9?$FL?$JK0g0Y0?$AC?$AA?$AA@,4
; Function compile flags: /Ogtp
	.text
	.comdat	noduplicate, ?setData@WDSegment@WDDatas@@$$FA$AAMXP$01AE@Z
.global	?setData@WDSegment@WDDatas@@$$FA$AAMXP$01AE@Z	; WDDatas::WDSegment::setData
?setData@WDSegment@WDDatas@@$$FA$AAMXP$01AE@Z:		; WDDatas::WDSegment::setData
;	.proc.def	D:V(P)

; Function Header:
; max stack depth = 4
; function size = 207 bytes
; local varsig tk = 0x11000013 
; Exception Information:
; 1 handlers, each consisting of filtered handlers

;	.formal.mptr 0,"this$" SIG: Optional C Binding Modifier(token:0x4AD9D5).class (token:0x4AD9D7)
;	.formal.mptr 1,"inData$" SIG: szarray (token:0x4B2851)
;	.local.mptr 1,"tmpWDDataException$11914" SIG: class (token:0x4ACF51)
;	.local.mptr 4,"exp$11913" SIG: class (token:0x4ACEC5)
;	.local.i4 0,"tmpPos$" SIG: i4
;	.local.mptr 2,"tmpWDDataException$11905" SIG: class (token:0x4ACF51)
;	.local.mptr 3,"tmpWDDataException$11901" SIG: class (token:0x4ACF51)

;	.proc.beg
; Line 541
	ldarg.1				; inData$
	brtrue.s	$LN5@setData
; Line 544
	ldstr		$StringLiteralTok$??_C@_1BO@MACLDLLC@0?$LD0?T0?$PMQC0?G0?$PM0?$LP0Lg?$CK?$IK?9?$FL?$JK0g0Y0?$AC?$AA?$AA@
	newobj		??0WDDatasException@WDDatas@@$$FQ$AAM@P$AAVString@System@@@Z
	stloc.3				; tmpWDDataException$11901
; Line 545
	ldloc.3				; tmpWDDataException$11901
	ldc.i4		10411		; i32 0x28ab
	stfld		?ErrorCode@WDDatasException@WDDatas@@3HA
; Line 546
	ldloc.3				; tmpWDDataException$11901
	ldc.i.1		1		; i32 0x1
	stfld		?ErrorCode2@WDDatasException@WDDatas@@3HA
; Line 547
	ldloc.3				; tmpWDDataException$11901
	throw.u2	
$LN5@setData:
; Line 549
	ldarg.1				; inData$
	ldlen		
	ldc.i4.s	100		; i32 0x64
	beq.s		$LN4@setData
; Line 552
	ldstr		$StringLiteralTok$??_C@_1CG@BHOEGJEO@0?$LD0?T0?$PMQC0?G0?$PM0?$LP?$JFw0Lkc0W0O0B0?$IK0?$HO0?$FL0?$JD0?$AC?$AA?$AA@
	newobj		??0WDDatasException@WDDatas@@$$FQ$AAM@P$AAVString@System@@@Z
	stloc.2				; tmpWDDataException$11905
; Line 553
	ldloc.2				; tmpWDDataException$11905
	ldc.i4		10411		; i32 0x28ab
	stfld		?ErrorCode@WDDatasException@WDDatas@@3HA
; Line 554
	ldloc.2				; tmpWDDataException$11905
	ldc.i.2		2		; i32 0x2
	stfld		?ErrorCode2@WDDatasException@WDDatas@@3HA
; Line 555
	ldloc.2				; tmpWDDataException$11905
	throw.u2	
$LN4@setData:
	nop		
$LN17@setData:
; Line 561
	ldc.i.0		0		; i32 0x0
	stloc.0				; tmpPos$
; Line 563
	ldarg.0				; this$
	ldarg.1				; inData$
	ldc.i.0		0		; i32 0x0
	call		?ArrayToInt32@FJIFuncs@FJIsam@@$$FSMHP$01AEH@Z
	stfld		?SegmentID@WDSegment@WDDatas@@3HA
; Line 564
	ldc.i.4		4		; i32 0x4
	stloc.0				; tmpPos$
; Line 566
	ldarg.0				; this$
	ldarg.1				; inData$
	ldc.i.4		4		; i32 0x4
	call		?ArrayToInt32@FJIFuncs@FJIsam@@$$FSMHP$01AEH@Z
	stfld		?SegmentNo@WDSegment@WDDatas@@3HA
; Line 567
	ldc.i.8		8		; i32 0x8
	stloc.0				; tmpPos$
; Line 569
	ldarg.0				; this$
	ldfld		?Name@WDSegment@WDDatas@@3P$AAVString@System@@$AA
	ldnull		0		; i32 0x0
	call		??9String@System@@$$FSM_NP$AAV01@0@Z
	pop		
; Line 570
	ldarg.0				; this$
	ldarg.1				; inData$
	ldc.i.8		8		; i32 0x8
	ldc.i4.s	60		; i32 0x3c
	call		?ArrayToString@FJIFuncs@FJIsam@@$$FSMP$AAVString@System@@P$01AEHH@Z
	stfld		?Name@WDSegment@WDDatas@@3P$AAVString@System@@$AA
; Line 571
	ldc.i4.s	68		; i32 0x44
	stloc.0				; tmpPos$
; Line 573
	ldarg.0				; this$
	ldfld		?ShortName@WDSegment@WDDatas@@3P$AAVString@System@@$AA
	ldnull		0		; i32 0x0
	call		??9String@System@@$$FSM_NP$AAV01@0@Z
	pop		
; Line 574
	ldarg.0				; this$
	ldarg.1				; inData$
	ldc.i4.s	68		; i32 0x44
	ldc.i4.s	10		; i32 0xa
	call		?ArrayToString@FJIFuncs@FJIsam@@$$FSMP$AAVString@System@@P$01AEHH@Z
	stfld		?ShortName@WDSegment@WDDatas@@3P$AAVString@System@@$AA
; Line 575
	ldc.i4.s	78		; i32 0x4e
	stloc.0				; tmpPos$
	leave.s		$LN8@setData
__catch$?setData@WDSegment@WDDatas@@$$FA$AAMXP$01AE@Z$0:
; Line 577
	imp.push	
	stloc.s		4		; exp$11913
; Line 579
	ldstr		$StringLiteralTok$??_C@_1BO@BMAIFGGH@0?G0?$PM0?$LP0n?$IK?9?$FL?$JK0kY1eW0W0?$HO0W0_0?$AC?$AA?$AA@
	ldloc.s		4		; exp$11913
	newobj		??0WDDatasException@WDDatas@@$$FQ$AAM@P$AAVString@System@@P$AAVException@3@@Z
	stloc.1				; tmpWDDataException$11914
; Line 580
	ldloc.1				; tmpWDDataException$11914
	ldc.i4		10411		; i32 0x28ab
	stfld		?ErrorCode@WDDatasException@WDDatas@@3HA
; Line 581
	ldloc.1				; tmpWDDataException$11914
	ldc.i.3		3		; i32 0x3
	stfld		?ErrorCode2@WDDatasException@WDDatas@@3HA
; Line 582
	ldloc.1				; tmpWDDataException$11914
	throw.u2	
$LN13@setData:
	leave.s		$LN8@setData
$LN8@setData:
$LN16@setData:
; Line 584
	ret		
 .end ?setData@WDSegment@WDDatas@@$$FA$AAMXP$01AE@Z	; WDDatas::WDSegment::setData
;	.proc.end.void
; Function compile flags: /Ogtp
	.text
	.comdat	any, ?<Dispose>@WDRec@WDDatas@@$$FU$AAMXXZ
.global	?<Dispose>@WDRec@WDDatas@@$$FU$AAMXXZ		; WDDatas::WDRec::<Dispose>
?<Dispose>@WDRec@WDDatas@@$$FU$AAMXXZ:			; WDDatas::WDRec::<Dispose>
;	.proc.def	D:V()

; Function Header:
; max stack depth = 2
; function size = 14 bytes
; local varsig tk = 0x0 
; Exception Information:
; 0 handlers, each consisting of filtered handlers

;	.formal.mptr 0,"this$" SIG: Optional C Binding Modifier(token:0x4B3745).class (token:0x4B3747)

;	.proc.beg
	ldarg.0				; this$
	ldc.i.1		1		; u8 0x1
	callvirt	?<Dispose>@WDRec@WDDatas@@$$FM$AAMX_N@Z
	ldarg.0				; this$
	call		?SuppressFinalize@GC@System@@$$FSMXP$AAVObject@2@@Z
	ret		
 .end ?<Dispose>@WDRec@WDDatas@@$$FU$AAMXXZ		; WDDatas::WDRec::<Dispose>
;	.proc.end.void
; Function compile flags: /Ogtp
	.text
	.comdat	any, ?<Dispose>@WDSegment@WDDatas@@$$FM$AAMX_N@Z
.global	?<Dispose>@WDSegment@WDDatas@@$$FM$AAMX_N@Z	; WDDatas::WDSegment::<Dispose>
?<Dispose>@WDSegment@WDDatas@@$$FM$AAMX_N@Z:		; WDDatas::WDSegment::<Dispose>
;	.proc.def	D:V(I)

; Function Header:
; max stack depth = 2
; function size = 27 bytes
; local varsig tk = 0x0 
; Exception Information:
; 1 handlers, each consisting of filtered handlers

;	.formal.mptr 0,"this$" SIG: Optional C Binding Modifier(token:0x4AD9D5).class (token:0x4AD9D7)
;	.formal.u1 1,"disposing$" SIG: bool

;	.proc.beg
	ldarg.1				; disposing$
	brfalse.s	$LN3@
$LN13@:
	ldarg.0				; this$
	call		??1WDSegment@WDDatas@@$$FA$AAM@XZ
$LN2@:
	leave.s		$LN12@
$LN7@:
	ldarg.0				; this$
	ldc.i.1		1		; u8 0x1
	call		?<Dispose>@WDRec@WDDatas@@$$FM$AAMX_N@Z
$LN9@:
	endfinally	
$LN3@:
	ldarg.0				; this$
	ldc.i.0		0		; u8 0x0
	call		?<Dispose>@WDRec@WDDatas@@$$FM$AAMX_N@Z
$LN12@:
	ret		
 .end ?<Dispose>@WDSegment@WDDatas@@$$FM$AAMX_N@Z	; WDDatas::WDSegment::<Dispose>
;	.proc.end.void
.global	
	.bss
.local	$T12168,0
.local	$StringLiteralTok$??_C@_1CM@IBIPDKIN@0?G0?$PM0?$LP0?l0?$LD0?$PM0?IS?V_?$JH0g0?$KI0?i0?$PM0Lvzu?$BP0W0?$HO0W0_0?$AC?$AA?$AA@,4
.local	,4
; Function compile flags: /Ogtp
	.text
	.comdat	noduplicate, ?getRecord@WDSegment@WDDatas@@$$FU$AAMP$AAVDataRecord@FJIsam@@XZ
.global	?getRecord@WDSegment@WDDatas@@$$FU$AAMP$AAVDataRecord@FJIsam@@XZ ; WDDatas::WDSegment::getRecord
?getRecord@WDSegment@WDDatas@@$$FU$AAMP$AAVDataRecord@FJIsam@@XZ: ; WDDatas::WDSegment::getRecord
;	.proc.def	D:P()

; Function Header:
; max stack depth = 4
; function size = 145 bytes
; local varsig tk = 0x11000015 
; Exception Information:
; 2 handlers, each consisting of filtered handlers

;	.formal.mptr 0,"this$" SIG: Optional C Binding Modifier(token:0x4AD9D5).class (token:0x4AD9D7)
;	.local.mptr 1,"tmpWDDataException$11313" SIG: class (token:0x4ACF51)
;	.local.mptr 4,"exp$11312" SIG: class (token:0x4ACEC5)
;	.local.mptr 2,"tmpWDDataException$11307" SIG: class (token:0x4ACF51)
;	.local.mptr 5,"exp$11306" SIG: class (token:0x4ACEC5)
;	.local.mptr 3,"tmpDat$" SIG: szarray (token:0x4B2851)
;	.local.mptr 0,"tmpRec$" SIG: class (token:0x4ACFE5)

;	.proc.beg
; Line 77
	ldnull		0		; i32 0x0
	stloc.0				; tmpRec$
; Line 81
	ldarg.0				; this$
	call		?getRecord@WDRec@WDDatas@@$$FU$AAMP$AAVDataRecord@FJIsam@@XZ
	brtrue.s	$LN4@getRecord
$LN23@getRecord:
; Line 85
	ldarg.0				; this$
	ldnull		0		; i32 0x0
	call		?getData@WDSegment@WDDatas@@$$FA$AAMP$01AEP$01AE@Z
	stloc.3				; tmpDat$
; Line 86
	newobj		??0DataRecord@FJIsam@@$$FQ$AAM@XZ
	stloc.0				; tmpRec$
; Line 87
	ldloc.0				; tmpRec$
	ldloc.3				; tmpDat$
	ldc.i4.s	100		; i32 0x64
	call		?setData@DataRecord@FJIsam@@$$FQ$AAMXP$01AEH@Z
; Line 88
	ldarg.0				; this$
	ldloc.0				; tmpRec$
	call		?setRecord@WDRec@WDDatas@@$$FU$AAMXP$AAVDataRecord@FJIsam@@@Z
	leave.s		$LN9@getRecord
__catch$?getRecord@WDSegment@WDDatas@@$$FU$AAMP$AAVDataRecord@FJIsam@@XZ$0:
; Line 89
	imp.push	
	stloc.s		5		; exp$11306
; Line 91
	ldstr		$StringLiteralTok$??_C@_1CM@IBIPDKIN@0?G0?$PM0?$LP0?l0?$LD0?$PM0?IS?V_?$JH0g0?$KI0?i0?$PM0Lvzu?$BP0W0?$HO0W0_0?$AC?$AA?$AA@
	ldloc.s		5		; exp$11306
	newobj		??0WDDatasException@WDDatas@@$$FQ$AAM@P$AAVString@System@@P$AAVException@3@@Z
	stloc.2				; tmpWDDataException$11307
; Line 92
	ldloc.2				; tmpWDDataException$11307
	ldc.i4		10402		; i32 0x28a2
	stfld		?ErrorCode@WDDatasException@WDDatas@@3HA
; Line 93
	ldloc.2				; tmpWDDataException$11307
	ldc.i.1		1		; i32 0x1
	stfld		?ErrorCode2@WDDatasException@WDDatas@@3HA
; Line 94
	ldloc.2				; tmpWDDataException$11307
	throw.u2	
$LN14@getRecord:
	leave.s		$LN9@getRecord
$LN4@getRecord:
	nop		
$LN24@getRecord:
; Line 99
	ldarg.0				; this$
	ldnull		0		; i32 0x0
	call		?getData@WDSegment@WDDatas@@$$FA$AAMP$01AEP$01AE@Z
	stloc.3				; tmpDat$
; Line 100
	ldarg.0				; this$
	call		?getRecord@WDRec@WDDatas@@$$FU$AAMP$AAVDataRecord@FJIsam@@XZ
	stloc.0				; tmpRec$
; Line 101
	ldloc.0				; tmpRec$
	ldloc.3				; tmpDat$
	ldc.i4.s	100		; i32 0x64
	call		?setData@DataRecord@FJIsam@@$$FQ$AAMXP$01AEH@Z
	leave.s		$LN9@getRecord
__catch$?getRecord@WDSegment@WDDatas@@$$FU$AAMP$AAVDataRecord@FJIsam@@XZ$2:
; Line 102
	imp.push	
	stloc.s		4		; exp$11312
; Line 104
	ldstr		$StringLiteralTok$??_C@_1CM@IBIPDKIN@0?G0?$PM0?$LP0?l0?$LD0?$PM0?IS?V_?$JH0g0?$KI0?i0?$PM0Lvzu?$BP0W0?$HO0W0_0?$AC?$AA?$AA@
	ldloc.s		4		; exp$11312
	newobj		??0WDDatasException@WDDatas@@$$FQ$AAM@P$AAVString@System@@P$AAVException@3@@Z
	stloc.1				; tmpWDDataException$11313
; Line 105
	ldloc.1				; tmpWDDataException$11313
	ldc.i4		10402		; i32 0x28a2
	stfld		?ErrorCode@WDDatasException@WDDatas@@3HA
; Line 106
	ldloc.1				; tmpWDDataException$11313
	ldc.i.2		2		; i32 0x2
	stfld		?ErrorCode2@WDDatasException@WDDatas@@3HA
; Line 107
	ldloc.1				; tmpWDDataException$11313
	throw.u2	
$LN18@getRecord:
	leave.s		$LN9@getRecord
$LN9@getRecord:
; Line 114
	ldloc.0				; tmpRec$
	ret		
 .end ?getRecord@WDSegment@WDDatas@@$$FU$AAMP$AAVDataRecord@FJIsam@@XZ ; WDDatas::WDSegment::getRecord
;	.proc.end.mptr
	.bss
.local	$T12192,0
.local	$StringLiteralTok$??_C@_1CM@POGCAHHH@0?G0?$PM0?$LP0?l0?$LD0?$PM0?I?$IK?9?$FL?$JK0g0?$KI0?i0?$PM0Lvzu?$BP0W0?$HO0W0_0?$AC?$AA?$AA@,4
; Function compile flags: /Ogtp
	.text
	.comdat	noduplicate, ?setRecord@WDSegment@WDDatas@@$$FU$AAMXP$AAVDataRecord@FJIsam@@@Z
.global	?setRecord@WDSegment@WDDatas@@$$FU$AAMXP$AAVDataRecord@FJIsam@@@Z ; WDDatas::WDSegment::setRecord
?setRecord@WDSegment@WDDatas@@$$FU$AAMXP$AAVDataRecord@FJIsam@@@Z: ; WDDatas::WDSegment::setRecord
;	.proc.def	D:V(P)

; Function Header:
; max stack depth = 4
; function size = 112 bytes
; local varsig tk = 0x11000016 
; Exception Information:
; 2 handlers, each consisting of filtered handlers

;	.formal.mptr 0,"this$" SIG: Optional C Binding Modifier(token:0x4AD9D5).class (token:0x4AD9D7)
;	.formal.mptr 1,"inRec$" SIG: class (token:0x4ACFE5)
;	.local.mptr 0,"tmpWDDataException$11331" SIG: class (token:0x4ACF51)
;	.local.mptr 3,"exp$11330" SIG: class (token:0x4ACEC5)
;	.local.mptr 1,"tmpWDDataException$11325" SIG: class (token:0x4ACF51)
;	.local.mptr 4,"exp$11324" SIG: class (token:0x4ACEC5)
;	.local.mptr 2,"tmpDat$11323" SIG: szarray (token:0x4B2851)

;	.proc.beg
; Line 120
	ldarg.1				; inRec$
	brfalse.s	$LN4@setRecord
$LN23@setRecord:
; Line 125
	ldarg.1				; inRec$
	ldnull		0		; i32 0x0
	call		?getData@DataRecord@FJIsam@@$$FQ$AAMP$01AEP$01AE@Z
	stloc.2				; tmpDat$11323
; Line 126
	ldarg.0				; this$
	ldloc.2				; tmpDat$11323
	call		?setData@WDSegment@WDDatas@@$$FA$AAMXP$01AE@Z
; Line 127
	ldnull		0		; i32 0x0
	stloc.2				; tmpDat$11323
; Line 128
	ldarg.0				; this$
	ldarg.1				; inRec$
	call		?setRecord@WDRec@WDDatas@@$$FU$AAMXP$AAVDataRecord@FJIsam@@@Z
	leave.s		$LN9@setRecord
__catch$?setRecord@WDSegment@WDDatas@@$$FU$AAMXP$AAVDataRecord@FJIsam@@@Z$0:
; Line 129
	imp.push	
	stloc.s		4		; exp$11324
; Line 131
	ldstr		$StringLiteralTok$??_C@_1CM@POGCAHHH@0?G0?$PM0?$LP0?l0?$LD0?$PM0?I?$IK?9?$FL?$JK0g0?$KI0?i0?$PM0Lvzu?$BP0W0?$HO0W0_0?$AC?$AA?$AA@
	ldloc.s		4		; exp$11324
	newobj		??0WDDatasException@WDDatas@@$$FQ$AAM@P$AAVString@System@@P$AAVException@3@@Z
	stloc.1				; tmpWDDataException$11325
; Line 132
	ldloc.1				; tmpWDDataException$11325
	ldc.i4		10403		; i32 0x28a3
	stfld		?ErrorCode@WDDatasException@WDDatas@@3HA
; Line 133
	ldloc.1				; tmpWDDataException$11325
	ldc.i.1		1		; i32 0x1
	stfld		?ErrorCode2@WDDatasException@WDDatas@@3HA
; Line 134
	ldloc.1				; tmpWDDataException$11325
	throw.u2	
$LN14@setRecord:
	leave.s		$LN9@setRecord
$LN4@setRecord:
	nop		
$LN24@setRecord:
; Line 139
	ldarg.0				; this$
	ldnull		0		; i32 0x0
	call		?setRecord@WDRec@WDDatas@@$$FU$AAMXP$AAVDataRecord@FJIsam@@@Z
	leave.s		$LN9@setRecord
__catch$?setRecord@WDSegment@WDDatas@@$$FU$AAMXP$AAVDataRecord@FJIsam@@@Z$2:
; Line 140
	imp.push	
	stloc.3				; exp$11330
; Line 142
	ldstr		$StringLiteralTok$??_C@_1CM@POGCAHHH@0?G0?$PM0?$LP0?l0?$LD0?$PM0?I?$IK?9?$FL?$JK0g0?$KI0?i0?$PM0Lvzu?$BP0W0?$HO0W0_0?$AC?$AA?$AA@
	ldloc.3				; exp$11330
	newobj		??0WDDatasException@WDDatas@@$$FQ$AAM@P$AAVString@System@@P$AAVException@3@@Z
	stloc.0				; tmpWDDataException$11331
; Line 143
	ldloc.0				; tmpWDDataException$11331
	ldc.i4		10403		; i32 0x28a3
	stfld		?ErrorCode@WDDatasException@WDDatas@@3HA
; Line 144
	ldloc.0				; tmpWDDataException$11331
	ldc.i.2		2		; i32 0x2
	stfld		?ErrorCode2@WDDatasException@WDDatas@@3HA
; Line 145
	ldloc.0				; tmpWDDataException$11331
	throw.u2	
$LN18@setRecord:
	leave.s		$LN9@setRecord
$LN9@setRecord:
; Line 148
	ret		
 .end ?setRecord@WDSegment@WDDatas@@$$FU$AAMXP$AAVDataRecord@FJIsam@@@Z ; WDDatas::WDSegment::setRecord
;	.proc.end.void
.global	
	.bss
.local	$T12217,0
.local	$StringLiteralTok$??_C@_1CG@PFOLFNFI@0?G0?$PM0?$LP0?l0?$LD0?$PM0?I0nf?x?$IP?$LM0kY1eW0W0?$HO0W0_0?$AC?$AA?$AA@,4
.local	$StringLiteralTok$??_C@_1BM@LAKNIOBD@0?l0?$LD0?$PM0?IRJ?$JGd0o0g0M0?$HO0?$FL0?$JD0?$AC?$AA?$AA@,4
.local	$StringLiteralTok$??_C@_1BO@OEMADJDL@?$AAI?$AAS?$AAA?$AAM0?U0?$KB0?$KE0?k0LN?$ANkc0g0Y0?$AC?$AA?$AA@,4
.local	$TypeTok$11280448$,4
.local	,4
; Function compile flags: /Ogtp
	.text
	.comdat	noduplicate, ?Write@WDSegment@WDDatas@@$$FU$AAMXXZ
.global	?Write@WDSegment@WDDatas@@$$FU$AAMXXZ		; WDDatas::WDSegment::Write
?Write@WDSegment@WDDatas@@$$FU$AAMXXZ:			; WDDatas::WDSegment::Write
;	.proc.def	D:V()

; Function Header:
; max stack depth = 4
; function size = 204 bytes
; local varsig tk = 0x11000018 
; Exception Information:
; 2 handlers, each consisting of filtered handlers

;	.formal.mptr 0,"this$" SIG: Optional C Binding Modifier(token:0x4AD9D5).class (token:0x4AD9D7)
;	.local.mptr 1,"tmpWDDataException$11520" SIG: class (token:0x4ACF51)
;	.local.mptr 4,"exp$11519" SIG: class (token:0x4ACEC5)
;	.local.mptr 2,"tmpWDDataException$11516" SIG: class (token:0x4ACF51)
;	.local.mptr 3,"tmpWDDataException$11508" SIG: class (token:0x4ACF51)
;	.local.mptr 5,"exp$11507" SIG: class (token:0x4ACEC5)
;	.local.mptr 0,"tmpParent$" SIG: class (token:0x4B1F69)

;	.proc.beg
; Line 152
	ldnull		0		; i32 0x0
	stloc.0				; tmpParent$
; Line 156
	ldarg.0				; this$
	call		?getRecord@WDRec@WDDatas@@$$FU$AAMP$AAVDataRecord@FJIsam@@XZ
	brfalse		$LN13@Write
$LN27@Write:
; Line 164
	ldarg.0				; this$
	call		?getRecord@WDRec@WDDatas@@$$FU$AAMP$AAVDataRecord@FJIsam@@XZ
	call		?getParentFile@DataRecord@FJIsam@@$$FQ$AAMP$AAVObject@System@@XZ
	castClass	$TypeTok$11280448$
	stloc.0				; tmpParent$
; Line 165
	ldloc.0				; tmpParent$
	brtrue.s	$LN6@Write
; Line 167
	leave		$LN13@Write
$LN6@Write:
	leave.s		$LN11@Write
__catch$?Write@WDSegment@WDDatas@@$$FU$AAMXXZ$0:
; Line 169
	imp.push	
	stloc.s		5		; exp$11507
; Line 171
	ldstr		$StringLiteralTok$??_C@_1BO@OEMADJDL@?$AAI?$AAS?$AAA?$AAM0?U0?$KB0?$KE0?k0LN?$ANkc0g0Y0?$AC?$AA?$AA@
	ldloc.s		5		; exp$11507
	newobj		??0WDDatasException@WDDatas@@$$FQ$AAM@P$AAVString@System@@P$AAVException@3@@Z
	stloc.3				; tmpWDDataException$11508
; Line 172
	ldloc.3				; tmpWDDataException$11508
	ldc.i4		10404		; i32 0x28a4
	stfld		?ErrorCode@WDDatasException@WDDatas@@3HA
; Line 173
	ldloc.3				; tmpWDDataException$11508
	ldc.i.1		1		; i32 0x1
	stfld		?ErrorCode2@WDDatasException@WDDatas@@3HA
; Line 174
	ldloc.3				; tmpWDDataException$11508
	throw.u2	
$LN18@Write:
	leave.s		$LN11@Write
$LN11@Write:
	nop		
$LN28@Write:
; Line 180
	ldarg.0				; this$
	call		?getRecord@WDRec@WDDatas@@$$FU$AAMP$AAVDataRecord@FJIsam@@XZ
	call		?getRecStat@DataRecord@FJIsam@@$$FQ$AAM?AW4DataRecStat_EN@2@XZ
	brtrue.s	$LN4@Write
; Line 182
	ldloc.0				; tmpParent$
	ldarg.0				; this$
	callvirt	?getRecord@WDSegment@WDDatas@@$$FU$AAMP$AAVDataRecord@FJIsam@@XZ
	call		?AddRecord@FIsam@FJIsam@@$$FQ$AAMXP$AAVDataRecord@2@@Z
	br.s		$LN1@Write
$LN4@Write:
; Line 183
	ldarg.0				; this$
	call		?getRecord@WDRec@WDDatas@@$$FU$AAMP$AAVDataRecord@FJIsam@@XZ
	call		?getRecStat@DataRecord@FJIsam@@$$FQ$AAM?AW4DataRecStat_EN@2@XZ
	ldc.i.1		1		; i32 0x1
	bne.un.s	$LN2@Write
; Line 184
	ldloc.0				; tmpParent$
	ldarg.0				; this$
	callvirt	?getRecord@WDSegment@WDDatas@@$$FU$AAMP$AAVDataRecord@FJIsam@@XZ
	call		?UpdateRecord@FIsam@FJIsam@@$$FQ$AAMXP$AAVDataRecord@2@@Z
$LN1@Write:
; Line 190
	leave.s		$LN13@Write
$LN2@Write:
; Line 187
	ldstr		$StringLiteralTok$??_C@_1BM@LAKNIOBD@0?l0?$LD0?$PM0?IRJ?$JGd0o0g0M0?$HO0?$FL0?$JD0?$AC?$AA?$AA@
	newobj		??0WDDatasException@WDDatas@@$$FQ$AAM@P$AAVString@System@@@Z
	stloc.2				; tmpWDDataException$11516
; Line 188
	ldloc.2				; tmpWDDataException$11516
	ldc.i4		10404		; i32 0x28a4
	stfld		?ErrorCode@WDDatasException@WDDatas@@3HA
; Line 189
	ldloc.2				; tmpWDDataException$11516
	ldc.i.2		2		; i32 0x2
	stfld		?ErrorCode2@WDDatasException@WDDatas@@3HA
; Line 190
	ldloc.2				; tmpWDDataException$11516
	throw.u2	
$LN19@Write:
; Line 192
	leave.s		$LN13@Write
__catch$?Write@WDSegment@WDDatas@@$$FU$AAMXXZ$2:
	imp.push	
	stloc.s		4		; exp$11519
; Line 194
	ldstr		$StringLiteralTok$??_C@_1CG@PFOLFNFI@0?G0?$PM0?$LP0?l0?$LD0?$PM0?I0nf?x?$IP?$LM0kY1eW0W0?$HO0W0_0?$AC?$AA?$AA@
	ldloc.s		4		; exp$11519
	newobj		??0WDDatasException@WDDatas@@$$FQ$AAM@P$AAVString@System@@P$AAVException@3@@Z
	stloc.1				; tmpWDDataException$11520
; Line 195
	ldloc.1				; tmpWDDataException$11520
	ldc.i4		10404		; i32 0x28a4
	stfld		?ErrorCode@WDDatasException@WDDatas@@3HA
; Line 196
	ldloc.1				; tmpWDDataException$11520
	ldc.i.3		3		; i32 0x3
	stfld		?ErrorCode2@WDDatasException@WDDatas@@3HA
; Line 197
	ldloc.1				; tmpWDDataException$11520
	throw.u2	
$LN22@Write:
	leave.s		$LN13@Write
$LN13@Write:
; Line 199
	ret		
 .end ?Write@WDSegment@WDDatas@@$$FU$AAMXXZ		; WDDatas::WDSegment::Write
;	.proc.end.void
	.bss
.local	$T12241,0
; Function compile flags: /Ogtp
	.text
	.comdat	noduplicate, ?Delete@WDSegment@WDDatas@@$$FU$AAMXXZ
.global	?Delete@WDSegment@WDDatas@@$$FU$AAMXXZ		; WDDatas::WDSegment::Delete
?Delete@WDSegment@WDDatas@@$$FU$AAMXXZ:			; WDDatas::WDSegment::Delete
;	.proc.def	D:V()

; Function Header:
; max stack depth = 4
; function size = 364 bytes
; local varsig tk = 0x11000019 
; Exception Information:
; 2 handlers, each consisting of filtered handlers

;	.formal.mptr 0,"this$" SIG: Optional C Binding Modifier(token:0x4AD9D5).class (token:0x4AD9D7)
;	.local.mptr 0,"tmpWDDataException$11552" SIG: class (token:0x4ACF51)
;	.local.mptr 4,"exp$11551" SIG: class (token:0x4ACEC5)
;	.local.mptr 1,"tmpWDDataException$11549" SIG: class (token:0x4ACF51)
;	.local.mptr 2,"tmpWDDataException$11542" SIG: class (token:0x4ACF51)
;	.local.mptr 5,"exp$11541" SIG: class (token:0x4ACEC5)
;	.local.mptr 3,"tmpParent$" SIG: class (token:0x4B1F69)

;	.proc.beg
; Line 203
	ldnull		0		; i32 0x0
	stloc.3				; tmpParent$
; Line 207
	ldarg.0				; this$
	call		?getRecord@WDRec@WDDatas@@$$FU$AAMP$AAVDataRecord@FJIsam@@XZ
	brtrue.s	$LN14@Delete
; Line 210
	ldarg.0				; this$
	ldc.i.0		0		; i32 0x0
	stfld		?SegmentID@WDSegment@WDDatas@@3HA
; Line 211
	ldarg.0				; this$
	ldc.i.0		0		; i32 0x0
	stfld		?SegmentNo@WDSegment@WDDatas@@3HA
; Line 212
	ldarg.0				; this$
	ldfld		?Name@WDSegment@WDDatas@@3P$AAVString@System@@$AA
	ldnull		0		; i32 0x0
	call		??9String@System@@$$FSM_NP$AAV01@0@Z
	brfalse.s	$LN13@Delete
; Line 215
	ldarg.0				; this$
	ldnull		0		; i32 0x0
	stfld		?Name@WDSegment@WDDatas@@3P$AAVString@System@@$AA
$LN13@Delete:
; Line 217
	ldarg.0				; this$
	ldfld		?ShortName@WDSegment@WDDatas@@3P$AAVString@System@@$AA
	ldnull		0		; i32 0x0
	call		??9String@System@@$$FSM_NP$AAV01@0@Z
	brfalse		$LN1@Delete
; Line 220
	ldarg.0				; this$
	ldnull		0		; i32 0x0
	stfld		?ShortName@WDSegment@WDDatas@@3P$AAVString@System@@$AA
; Line 223
	br		$LN1@Delete
$LN14@Delete:
	nop		
$LN33@Delete:
; Line 229
	ldarg.0				; this$
	call		?getRecord@WDRec@WDDatas@@$$FU$AAMP$AAVDataRecord@FJIsam@@XZ
	call		?getParentFile@DataRecord@FJIsam@@$$FQ$AAMP$AAVObject@System@@XZ
	castClass	$TypeTok$11280448$
	stloc.3				; tmpParent$
; Line 230
	ldloc.3				; tmpParent$
	brtrue.s	$LN10@Delete
; Line 233
	ldarg.0				; this$
	ldc.i.0		0		; i32 0x0
	stfld		?SegmentID@WDSegment@WDDatas@@3HA
; Line 234
	ldarg.0				; this$
	ldc.i.0		0		; i32 0x0
	stfld		?SegmentNo@WDSegment@WDDatas@@3HA
; Line 235
	ldarg.0				; this$
	ldfld		?Name@WDSegment@WDDatas@@3P$AAVString@System@@$AA
	ldnull		0		; i32 0x0
	call		??9String@System@@$$FSM_NP$AAV01@0@Z
	brfalse.s	$LN9@Delete
; Line 238
	ldarg.0				; this$
	ldnull		0		; i32 0x0
	stfld		?Name@WDSegment@WDDatas@@3P$AAVString@System@@$AA
$LN9@Delete:
; Line 240
	ldarg.0				; this$
	ldfld		?ShortName@WDSegment@WDDatas@@3P$AAVString@System@@$AA
	ldnull		0		; i32 0x0
	call		??9String@System@@$$FSM_NP$AAV01@0@Z
	brfalse.s	$LN8@Delete
; Line 243
	ldarg.0				; this$
	ldnull		0		; i32 0x0
	stfld		?ShortName@WDSegment@WDDatas@@3P$AAVString@System@@$AA
$LN8@Delete:
; Line 246
	leave		$LN1@Delete
$LN10@Delete:
	leave.s		$LN17@Delete
__catch$?Delete@WDSegment@WDDatas@@$$FU$AAMXXZ$0:
; Line 248
	imp.push	
	stloc.s		5		; exp$11541
; Line 250
	ldstr		$StringLiteralTok$??_C@_1BO@OEMADJDL@?$AAI?$AAS?$AAA?$AAM0?U0?$KB0?$KE0?k0LN?$ANkc0g0Y0?$AC?$AA?$AA@
	ldloc.s		5		; exp$11541
	newobj		??0WDDatasException@WDDatas@@$$FQ$AAM@P$AAVString@System@@P$AAVException@3@@Z
	stloc.2				; tmpWDDataException$11542
; Line 251
	ldloc.2				; tmpWDDataException$11542
	ldc.i4		10405		; i32 0x28a5
	stfld		?ErrorCode@WDDatasException@WDDatas@@3HA
; Line 252
	ldloc.2				; tmpWDDataException$11542
	ldc.i.1		1		; i32 0x1
	stfld		?ErrorCode2@WDDatasException@WDDatas@@3HA
; Line 253
	ldloc.2				; tmpWDDataException$11542
	throw.u2	
$LN24@Delete:
	leave.s		$LN17@Delete
$LN17@Delete:
	nop		
$LN34@Delete:
; Line 259
	ldarg.0				; this$
	call		?getRecord@WDRec@WDDatas@@$$FU$AAMP$AAVDataRecord@FJIsam@@XZ
	call		?getRecStat@DataRecord@FJIsam@@$$FQ$AAM?AW4DataRecStat_EN@2@XZ
	brfalse.s	$LN3@Delete
; Line 262
	ldarg.0				; this$
	call		?getRecord@WDRec@WDDatas@@$$FU$AAMP$AAVDataRecord@FJIsam@@XZ
	call		?getRecStat@DataRecord@FJIsam@@$$FQ$AAM?AW4DataRecStat_EN@2@XZ
	ldc.i.1		1		; i32 0x1
	bne.un.s	$LN4@Delete
; Line 263
	ldloc.3				; tmpParent$
	ldarg.0				; this$
	callvirt	?getRecord@WDSegment@WDDatas@@$$FU$AAMP$AAVDataRecord@FJIsam@@XZ
	call		?DeleteRecord@FIsam@FJIsam@@$$FQ$AAMXP$AAVDataRecord@2@@Z
$LN3@Delete:
; Line 269
	leave.s		$LN19@Delete
$LN4@Delete:
; Line 266
	ldstr		$StringLiteralTok$??_C@_1BM@LAKNIOBD@0?l0?$LD0?$PM0?IRJ?$JGd0o0g0M0?$HO0?$FL0?$JD0?$AC?$AA?$AA@
	newobj		??0WDDatasException@WDDatas@@$$FQ$AAM@P$AAVString@System@@@Z
	stloc.1				; tmpWDDataException$11549
; Line 267
	ldloc.1				; tmpWDDataException$11549
	ldc.i4		10405		; i32 0x28a5
	stfld		?ErrorCode@WDDatasException@WDDatas@@3HA
; Line 268
	ldloc.1				; tmpWDDataException$11549
	ldc.i.2		2		; i32 0x2
	stfld		?ErrorCode2@WDDatasException@WDDatas@@3HA
; Line 269
	ldloc.1				; tmpWDDataException$11549
	throw.u2	
$LN25@Delete:
; Line 271
	leave.s		$LN19@Delete
__catch$?Delete@WDSegment@WDDatas@@$$FU$AAMXXZ$2:
	imp.push	
	stloc.s		4		; exp$11551
; Line 273
	ldstr		$StringLiteralTok$??_C@_1CG@PFOLFNFI@0?G0?$PM0?$LP0?l0?$LD0?$PM0?I0nf?x?$IP?$LM0kY1eW0W0?$HO0W0_0?$AC?$AA?$AA@
	ldloc.s		4		; exp$11551
	newobj		??0WDDatasException@WDDatas@@$$FQ$AAM@P$AAVString@System@@P$AAVException@3@@Z
	stloc.0				; tmpWDDataException$11552
; Line 274
	ldloc.0				; tmpWDDataException$11552
	ldc.i4		10405		; i32 0x28a5
	stfld		?ErrorCode@WDDatasException@WDDatas@@3HA
; Line 275
	ldloc.0				; tmpWDDataException$11552
	ldc.i.3		3		; i32 0x3
	stfld		?ErrorCode2@WDDatasException@WDDatas@@3HA
; Line 276
	ldloc.0				; tmpWDDataException$11552
	throw.u2	
$LN28@Delete:
	leave.s		$LN19@Delete
$LN19@Delete:
; Line 280
	ldarg.0				; this$
	ldc.i.0		0		; i32 0x0
	stfld		?SegmentID@WDSegment@WDDatas@@3HA
; Line 281
	ldarg.0				; this$
	ldc.i.0		0		; i32 0x0
	stfld		?SegmentNo@WDSegment@WDDatas@@3HA
; Line 282
	ldarg.0				; this$
	ldfld		?Name@WDSegment@WDDatas@@3P$AAVString@System@@$AA
	ldnull		0		; i32 0x0
	call		??9String@System@@$$FSM_NP$AAV01@0@Z
	brfalse.s	$LN2@Delete
; Line 285
	ldarg.0				; this$
	ldnull		0		; i32 0x0
	stfld		?Name@WDSegment@WDDatas@@3P$AAVString@System@@$AA
$LN2@Delete:
; Line 287
	ldarg.0				; this$
	ldfld		?ShortName@WDSegment@WDDatas@@3P$AAVString@System@@$AA
	ldnull		0		; i32 0x0
	call		??9String@System@@$$FSM_NP$AAV01@0@Z
	brfalse.s	$LN1@Delete
; Line 290
	ldarg.0				; this$
	ldnull		0		; i32 0x0
	stfld		?ShortName@WDSegment@WDDatas@@3P$AAVString@System@@$AA
$LN1@Delete:
; Line 293
	ret		
 .end ?Delete@WDSegment@WDDatas@@$$FU$AAMXXZ		; WDDatas::WDSegment::Delete
;	.proc.end.void
	.bss
.local	$T12265,0
.local	$StringLiteralTok$??_C@_1CE@JDMCCNFK@0?G0?$PM0?$LP?$IK?9?$FL?$JK0g0?$KI0?i0?$PM0Lvzu?$BP0W0?$HO0W0_0?$AC?$AA?$AA@,4
.local	$StringLiteralTok$??_C@_1CM@KDCNDGBB@0?G0?$PM0?$LP0?l0?$LD0?$PM0?I0LS?3R?$AG0?G0?$PM0?$LP0g0o0B0?$IK0?$HO0?$FL0?$JD0?$AC?$AA?$AA@,4
; Function compile flags: /Ogtp
	.text
	.comdat	noduplicate, ??0WDSegment@WDDatas@@$$FQ$AAM@P$AAVDataRecord@FJIsam@@@Z
.global	??0WDSegment@WDDatas@@$$FQ$AAM@P$AAVDataRecord@FJIsam@@@Z ; WDDatas::WDSegment::WDSegment
??0WDSegment@WDDatas@@$$FQ$AAM@P$AAVDataRecord@FJIsam@@@Z: ; WDDatas::WDSegment::WDSegment
;	.proc.def	D:V(P)

; Function Header:
; max stack depth = 4
; function size = 124 bytes
; local varsig tk = 0x1100001A 
; Exception Information:
; 2 handlers, each consisting of filtered handlers

;	.formal.mptr 1,"inRec$" SIG: class (token:0x4ACFE5)
;	.formal.mptr 0,"this$" SIG: Optional C Binding Modifier(token:0x4AD9D5).class (token:0x4AD9D7)
;	.local.mptr 0,"tmpWDDataException$11283" SIG: class (token:0x4ACF51)
;	.local.mptr 2,"exp$11281" SIG: class (token:0x4ACEC5)
;	.local.mptr 1,"tmpWDDataException$10748" SIG: class (token:0x4ACF51)

;	.proc.beg
; Line 31
	ldarg.0				; this$
	call		??0Object@System@@$$FQ$AAM@XZ
$LN18@WDSegment@2:
; Line 33
	ldarg.1				; inRec$
	brtrue.s	$LN3@WDSegment@2
; Line 36
	ldarg.0				; this$
	ldc.i.0		0		; i32 0x0
	stfld		?SegmentID@WDSegment@WDDatas@@3HA
; Line 37
	ldarg.0				; this$
	ldc.i.0		0		; i32 0x0
	stfld		?SegmentNo@WDSegment@WDDatas@@3HA
; Line 38
	br.s		$LN6@WDSegment@2
$LN3@WDSegment@2:
; Line 42
	ldarg.1				; inRec$
	call		?getDataLength@DataRecord@FJIsam@@$$FQ$AAMHXZ
	ldc.i4.s	100		; i32 0x64
	bne.un.s	$LN22@WDSegment@2
	leave.s		$LN2@WDSegment@2
$LN22@WDSegment@2:
; Line 45
	ldstr		$StringLiteralTok$??_C@_1CM@KDCNDGBB@0?G0?$PM0?$LP0?l0?$LD0?$PM0?I0LS?3R?$AG0?G0?$PM0?$LP0g0o0B0?$IK0?$HO0?$FL0?$JD0?$AC?$AA?$AA@
	newobj		??0WDDatasException@WDDatas@@$$FQ$AAM@P$AAVString@System@@@Z
	stloc.1				; tmpWDDataException$10748
; Line 46
	ldloc.1				; tmpWDDataException$10748
	ldc.i4		10401		; i32 0x28a1
	stfld		?ErrorCode@WDDatasException@WDDatas@@3HA
; Line 47
	ldloc.1				; tmpWDDataException$10748
	ldc.i.1		1		; i32 0x1
	stfld		?ErrorCode2@WDDatasException@WDDatas@@3HA
; Line 48
	ldloc.1				; tmpWDDataException$10748
	throw.u2	
$LN2@WDSegment@2:
; File c:\users\amotoo\documents\myproject\worddicbt\wddatas\wddatas.h
	nop		
$LN19@WDSegment@2:
; File c:\users\amotoo\documents\myproject\worddicbt\wddatas\wdsegment.cpp
; Line 54
	ldarg.0				; this$
	ldarg.1				; inRec$
	callvirt	?setRecord@WDSegment@WDDatas@@$$FU$AAMXP$AAVDataRecord@FJIsam@@@Z
	leave.s		$LN6@WDSegment@2
__catch$??0WDSegment@WDDatas@@$$FQ$AAM@P$AAVDataRecord@FJIsam@@@Z$0:
; Line 55
	imp.push	
	stloc.2				; exp$11281
; Line 57
	ldstr		$StringLiteralTok$??_C@_1CE@JDMCCNFK@0?G0?$PM0?$LP?$IK?9?$FL?$JK0g0?$KI0?i0?$PM0Lvzu?$BP0W0?$HO0W0_0?$AC?$AA?$AA@
	ldloc.2				; exp$11281
	newobj		??0WDDatasException@WDDatas@@$$FQ$AAM@P$AAVString@System@@P$AAVException@3@@Z
	stloc.0				; tmpWDDataException$11283
; Line 58
	ldloc.0				; tmpWDDataException$11283
	ldc.i4		10401		; i32 0x28a1
	stfld		?ErrorCode@WDDatasException@WDDatas@@3HA
; Line 59
	ldloc.0				; tmpWDDataException$11283
	ldc.i.2		2		; i32 0x2
	stfld		?ErrorCode2@WDDatasException@WDDatas@@3HA
; Line 60
	ldloc.0				; tmpWDDataException$11283
	throw.u2	
$LN12@WDSegment@2:
	leave.s		$LN6@WDSegment@2
$LN6@WDSegment@2:
$LN5@WDSegment@2:
$LN17@WDSegment@2:
; Line 62
	leave.s		$LN20@WDSegment@2
$LN21@WDSegment@2:
	ldarg.0				; this$
	ldc.i.1		1		; u8 0x1
	call		?<Dispose>@WDRec@WDDatas@@$$FM$AAMX_N@Z
	endfinally	
$LN20@WDSegment@2:
; Line 42
	ret		
 .end ??0WDSegment@WDDatas@@$$FQ$AAM@P$AAVDataRecord@FJIsam@@@Z ; WDDatas::WDSegment::WDSegment
;	.proc.end.void
