; Listing generated by Microsoft (R) Optimizing Compiler Version 16.00.30319.01 

; Generated by VC++ for Common Language Runtime
.file "C:\Users\aMotoo\Documents\MyProject\WordDicBT\WDDatas\WDWord.cpp"
.global	
	.bss
.local	,4
; Function compile flags: /Ogtp
	.text
	.comdat	any, ??0WDRec@WDDatas@@$$FQ$AAM@XZ
.global	??0WDRec@WDDatas@@$$FQ$AAM@XZ			; WDDatas::WDRec::WDRec
??0WDRec@WDDatas@@$$FQ$AAM@XZ:				; WDDatas::WDRec::WDRec
;	.proc.def	D:V()

; Function Header:
; max stack depth = 1
; function size = 7 bytes
; local varsig tk = 0x0 
; Exception Information:
; 0 handlers, each consisting of filtered handlers

;	.formal.mptr 0,"this$" SIG: Optional C Binding Modifier(token:0x44DBB1).class (token:0x44DBB3)

;	.proc.beg
	ldarg.0				; this$
	call		??0Object@System@@$$FQ$AAM@XZ
	ret		
 .end ??0WDRec@WDDatas@@$$FQ$AAM@XZ			; WDDatas::WDRec::WDRec
;	.proc.end.void
; Function compile flags: /Ogtp
	.text
	.comdat	any, ?<Dispose>@WDRec@WDDatas@@$$FM$AAMX_N@Z
.global	?<Dispose>@WDRec@WDDatas@@$$FM$AAMX_N@Z		; WDDatas::WDRec::<Dispose>
?<Dispose>@WDRec@WDDatas@@$$FM$AAMX_N@Z:		; WDDatas::WDRec::<Dispose>
;	.proc.def	D:V(I)

; Function Header:
; max stack depth = 1
; function size = 18 bytes
; local varsig tk = 0x0 
; Exception Information:
; 0 handlers, each consisting of filtered handlers

;	.formal.mptr 0,"this$" SIG: Optional C Binding Modifier(token:0x44DBB1).class (token:0x44DBB3)
;	.formal.u1 1,"disposing$" SIG: bool

;	.proc.beg
	ldarg.1				; disposing$
	brfalse.s	$LN2@
	ldarg.0				; this$
	call		??1WDRec@WDDatas@@$$FA$AAM@XZ
	br.s		$LN1@
$LN2@:
	ldarg.0				; this$
	call		?<Finalize>@Object@System@@$$FM$AAMXXZ
$LN1@:
	ret		
 .end ?<Dispose>@WDRec@WDDatas@@$$FM$AAMX_N@Z		; WDDatas::WDRec::<Dispose>
;	.proc.end.void
.global	
	.bss
.local	,4
; Function compile flags: /Ogtp
	.text
	.comdat	any, ??0WDMeanGroup@WDDatas@@$$FQ$AAM@XZ
.global	??0WDMeanGroup@WDDatas@@$$FQ$AAM@XZ		; WDDatas::WDMeanGroup::WDMeanGroup
??0WDMeanGroup@WDDatas@@$$FQ$AAM@XZ:			; WDDatas::WDMeanGroup::WDMeanGroup
;	.proc.def	D:V()

; Function Header:
; max stack depth = 1
; function size = 7 bytes
; local varsig tk = 0x0 
; Exception Information:
; 0 handlers, each consisting of filtered handlers

;	.formal.mptr 0,"this$" SIG: Optional C Binding Modifier(token:0x44D7D9).class (token:0x44D7DB)

;	.proc.beg
	ldarg.0				; this$
	call		??0Object@System@@$$FQ$AAM@XZ
	ret		
 .end ??0WDMeanGroup@WDDatas@@$$FQ$AAM@XZ		; WDDatas::WDMeanGroup::WDMeanGroup
;	.proc.end.void
.global	
	.bss
.local	,4
; Function compile flags: /Ogtp
	.text
	.comdat	any, ??0WDMeanGrpComparer@WDDatas@@$$FQ$AAM@XZ
.global	??0WDMeanGrpComparer@WDDatas@@$$FQ$AAM@XZ	; WDDatas::WDMeanGrpComparer::WDMeanGrpComparer
??0WDMeanGrpComparer@WDDatas@@$$FQ$AAM@XZ:		; WDDatas::WDMeanGrpComparer::WDMeanGrpComparer
;	.proc.def	D:V()

; Function Header:
; max stack depth = 1
; function size = 7 bytes
; local varsig tk = 0x0 
; Exception Information:
; 0 handlers, each consisting of filtered handlers

;	.formal.mptr 0,"this$" SIG: Optional C Binding Modifier(token:0x44D741).class (token:0x44D743)

;	.proc.beg
	ldarg.0				; this$
	call		??0Object@System@@$$FQ$AAM@XZ
	ret		
 .end ??0WDMeanGrpComparer@WDDatas@@$$FQ$AAM@XZ		; WDDatas::WDMeanGrpComparer::WDMeanGrpComparer
;	.proc.end.void
.global	
	.bss
.local	,4
; Function compile flags: /Ogtp
	.text
	.comdat	any, ?<Dispose>@WDMean@WDDatas@@$$FM$AAMX_N@Z
.global	?<Dispose>@WDMean@WDDatas@@$$FM$AAMX_N@Z	; WDDatas::WDMean::<Dispose>
?<Dispose>@WDMean@WDDatas@@$$FM$AAMX_N@Z:		; WDDatas::WDMean::<Dispose>
;	.proc.def	D:V(I)

; Function Header:
; max stack depth = 2
; function size = 27 bytes
; local varsig tk = 0x0 
; Exception Information:
; 1 handlers, each consisting of filtered handlers

;	.formal.mptr 0,"this$" SIG: Optional C Binding Modifier(token:0x44D5FD).class (token:0x44D5FF)
;	.formal.u1 1,"disposing$" SIG: bool

;	.proc.beg
	ldarg.1				; disposing$
	brfalse.s	$LN3@
$LN13@:
	ldarg.0				; this$
	call		??1WDMean@WDDatas@@$$FA$AAM@XZ
$LN2@:
	leave.s		$LN12@
$LN7@:
	ldarg.0				; this$
	ldc.i.1		1		; u8 0x1
	call		?<Dispose>@WDRec@WDDatas@@$$FM$AAMX_N@Z
$LN9@:
	endfinally	
$LN3@:
	ldarg.0				; this$
	ldc.i.0		0		; u8 0x0
	call		?<Dispose>@WDRec@WDDatas@@$$FM$AAMX_N@Z
$LN12@:
	ret		
 .end ?<Dispose>@WDMean@WDDatas@@$$FM$AAMX_N@Z		; WDDatas::WDMean::<Dispose>
;	.proc.end.void
.global	?WDMeanGrpComp@WDMean@WDDatas@@0P$AAVWDMeanGrpComparer@2@$AA ; WDDatas::WDMean::WDMeanGrpComp
	.bss
.local	?WDMeanGrpComp@WDMean@WDDatas@@0P$AAVWDMeanGrpComparer@2@$AA,4 ; WDDatas::WDMean::WDMeanGrpComp
; Function compile flags: /Ogtp
	.text
	.comdat	any, ?.cctor@WDMean@WDDatas@@$$FSMXXZ
.global	?.cctor@WDMean@WDDatas@@$$FSMXXZ		; ?.cctor@WDMean@WDDatas@@$$FSMXXZ
?.cctor@WDMean@WDDatas@@$$FSMXXZ:			; ?.cctor@WDMean@WDDatas@@$$FSMXXZ
;	.proc.def	D:V()

; Function Header:
; max stack depth = 1
; function size = 7 bytes
; local varsig tk = 0x0 
; Exception Information:
; 0 handlers, each consisting of filtered handlers


;	.proc.beg
	ldnull		0		; i32 0x0
	stsfld		?WDMeanGrpComp@WDMean@WDDatas@@0P$AAVWDMeanGrpComparer@2@$AA
	ret		
 .end ?.cctor@WDMean@WDDatas@@$$FSMXXZ			; ?.cctor@WDMean@WDDatas@@$$FSMXXZ
;	.proc.end.void
.global	
	.bss
.local	,4
; Function compile flags: /Ogtp
	.text
	.comdat	any, ?<Dispose>@WDTrans@WDDatas@@$$FM$AAMX_N@Z
.global	?<Dispose>@WDTrans@WDDatas@@$$FM$AAMX_N@Z	; WDDatas::WDTrans::<Dispose>
?<Dispose>@WDTrans@WDDatas@@$$FM$AAMX_N@Z:		; WDDatas::WDTrans::<Dispose>
;	.proc.def	D:V(I)

; Function Header:
; max stack depth = 2
; function size = 27 bytes
; local varsig tk = 0x0 
; Exception Information:
; 1 handlers, each consisting of filtered handlers

;	.formal.mptr 0,"this$" SIG: Optional C Binding Modifier(token:0x44D40D).class (token:0x44D40F)
;	.formal.u1 1,"disposing$" SIG: bool

;	.proc.beg
	ldarg.1				; disposing$
	brfalse.s	$LN3@
$LN13@:
	ldarg.0				; this$
	call		??1WDTrans@WDDatas@@$$FA$AAM@XZ
$LN2@:
	leave.s		$LN12@
$LN7@:
	ldarg.0				; this$
	ldc.i.1		1		; u8 0x1
	call		?<Dispose>@WDRec@WDDatas@@$$FM$AAMX_N@Z
$LN9@:
	endfinally	
$LN3@:
	ldarg.0				; this$
	ldc.i.0		0		; u8 0x0
	call		?<Dispose>@WDRec@WDDatas@@$$FM$AAMX_N@Z
$LN12@:
	ret		
 .end ?<Dispose>@WDTrans@WDDatas@@$$FM$AAMX_N@Z		; WDDatas::WDTrans::<Dispose>
;	.proc.end.void
.global	
	.bss
.local	,4
; Function compile flags: /Ogtp
	.text
	.comdat	any, ?<Dispose>@WDRelation@WDDatas@@$$FM$AAMX_N@Z
.global	?<Dispose>@WDRelation@WDDatas@@$$FM$AAMX_N@Z	; WDDatas::WDRelation::<Dispose>
?<Dispose>@WDRelation@WDDatas@@$$FM$AAMX_N@Z:		; WDDatas::WDRelation::<Dispose>
;	.proc.def	D:V(I)

; Function Header:
; max stack depth = 2
; function size = 27 bytes
; local varsig tk = 0x0 
; Exception Information:
; 1 handlers, each consisting of filtered handlers

;	.formal.mptr 0,"this$" SIG: Optional C Binding Modifier(token:0x44D2C1).class (token:0x44D2C3)
;	.formal.u1 1,"disposing$" SIG: bool

;	.proc.beg
	ldarg.1				; disposing$
	brfalse.s	$LN3@
$LN13@:
	ldarg.0				; this$
	call		??1WDRelation@WDDatas@@$$FA$AAM@XZ
$LN2@:
	leave.s		$LN12@
$LN7@:
	ldarg.0				; this$
	ldc.i.1		1		; u8 0x1
	call		?<Dispose>@WDRec@WDDatas@@$$FM$AAMX_N@Z
$LN9@:
	endfinally	
$LN3@:
	ldarg.0				; this$
	ldc.i.0		0		; u8 0x0
	call		?<Dispose>@WDRec@WDDatas@@$$FM$AAMX_N@Z
$LN12@:
	ret		
 .end ?<Dispose>@WDRelation@WDDatas@@$$FM$AAMX_N@Z	; WDDatas::WDRelation::<Dispose>
;	.proc.end.void
.global	
	.bss
.local	,4
; Function compile flags: /Ogtp
	.text
	.comdat	any, ?<Dispose>@WDGroup@WDDatas@@$$FM$AAMX_N@Z
.global	?<Dispose>@WDGroup@WDDatas@@$$FM$AAMX_N@Z	; WDDatas::WDGroup::<Dispose>
?<Dispose>@WDGroup@WDDatas@@$$FM$AAMX_N@Z:		; WDDatas::WDGroup::<Dispose>
;	.proc.def	D:V(I)

; Function Header:
; max stack depth = 2
; function size = 27 bytes
; local varsig tk = 0x0 
; Exception Information:
; 1 handlers, each consisting of filtered handlers

;	.formal.mptr 0,"this$" SIG: Optional C Binding Modifier(token:0x44D17D).class (token:0x44D17F)
;	.formal.u1 1,"disposing$" SIG: bool

;	.proc.beg
	ldarg.1				; disposing$
	brfalse.s	$LN3@
$LN13@:
	ldarg.0				; this$
	call		??1WDGroup@WDDatas@@$$FA$AAM@XZ
$LN2@:
	leave.s		$LN12@
$LN7@:
	ldarg.0				; this$
	ldc.i.1		1		; u8 0x1
	call		?<Dispose>@WDRec@WDDatas@@$$FM$AAMX_N@Z
$LN9@:
	endfinally	
$LN3@:
	ldarg.0				; this$
	ldc.i.0		0		; u8 0x0
	call		?<Dispose>@WDRec@WDDatas@@$$FM$AAMX_N@Z
$LN12@:
	ret		
 .end ?<Dispose>@WDGroup@WDDatas@@$$FM$AAMX_N@Z		; WDDatas::WDGroup::<Dispose>
;	.proc.end.void
.global	
	.bss
.local	,4
; Function compile flags: /Ogtp
	.text
	.comdat	any, ?<Dispose>@WDSegment@WDDatas@@$$FM$AAMX_N@Z
.global	?<Dispose>@WDSegment@WDDatas@@$$FM$AAMX_N@Z	; WDDatas::WDSegment::<Dispose>
?<Dispose>@WDSegment@WDDatas@@$$FM$AAMX_N@Z:		; WDDatas::WDSegment::<Dispose>
;	.proc.def	D:V(I)

; Function Header:
; max stack depth = 2
; function size = 27 bytes
; local varsig tk = 0x0 
; Exception Information:
; 1 handlers, each consisting of filtered handlers

;	.formal.mptr 0,"this$" SIG: Optional C Binding Modifier(token:0x44D021).class (token:0x44D023)
;	.formal.u1 1,"disposing$" SIG: bool

;	.proc.beg
	ldarg.1				; disposing$
	brfalse.s	$LN3@
$LN13@:
	ldarg.0				; this$
	call		??1WDSegment@WDDatas@@$$FA$AAM@XZ
$LN2@:
	leave.s		$LN12@
$LN7@:
	ldarg.0				; this$
	ldc.i.1		1		; u8 0x1
	call		?<Dispose>@WDRec@WDDatas@@$$FM$AAMX_N@Z
$LN9@:
	endfinally	
$LN3@:
	ldarg.0				; this$
	ldc.i.0		0		; u8 0x0
	call		?<Dispose>@WDRec@WDDatas@@$$FM$AAMX_N@Z
$LN12@:
	ret		
 .end ?<Dispose>@WDSegment@WDDatas@@$$FM$AAMX_N@Z	; WDDatas::WDSegment::<Dispose>
;	.proc.end.void
.global	?Type@WDWord@WDDatas@@3HA			; WDDatas::WDWord::Type
.global	?Sex@WDWord@WDDatas@@3EA			; WDDatas::WDWord::Sex
.global	?Plurality@WDWord@WDDatas@@3EA			; WDDatas::WDWord::Plurality
.global	?Gramatical@WDWord@WDDatas@@3EA			; WDDatas::WDWord::Gramatical
.global	?Practical@WDWord@WDDatas@@3EA			; WDDatas::WDWord::Practical
.global	?BaseFlg@WDWord@WDDatas@@3_NA			; WDDatas::WDWord::BaseFlg
.global	?ReadPattern@WDWord@WDDatas@@3EA		; WDDatas::WDWord::ReadPattern
.global	
	.bss
.local	?Type@WDWord@WDDatas@@3HA,4			; WDDatas::WDWord::Type
.local	?Sex@WDWord@WDDatas@@3EA,1			; WDDatas::WDWord::Sex
	.align	2
.local	?Plurality@WDWord@WDDatas@@3EA,1		; WDDatas::WDWord::Plurality
	.align	2
.local	?Gramatical@WDWord@WDDatas@@3EA,1		; WDDatas::WDWord::Gramatical
	.align	2
.local	?Practical@WDWord@WDDatas@@3EA,1		; WDDatas::WDWord::Practical
	.align	2
.local	?BaseFlg@WDWord@WDDatas@@3_NA,1			; WDDatas::WDWord::BaseFlg
	.align	2
.local	?ReadPattern@WDWord@WDDatas@@3EA,1		; WDDatas::WDWord::ReadPattern
	.align	2
.local	,4
; Function compile flags: /Ogtp
	.text
	.comdat	noduplicate, ??0WDWord@WDDatas@@$$FQ$AAM@XZ
.global	??0WDWord@WDDatas@@$$FQ$AAM@XZ			; WDDatas::WDWord::WDWord
??0WDWord@WDDatas@@$$FQ$AAM@XZ:				; WDDatas::WDWord::WDWord
;	.proc.def	D:V()

; Function Header:
; max stack depth = 2
; function size = 66 bytes
; local varsig tk = 0x0 
; Exception Information:
; 1 handlers, each consisting of filtered handlers

;	.formal.mptr 0,"this$" SIG: Optional C Binding Modifier(token:0x44D869).class (token:0x44D86B)

;	.proc.beg
; File c:\users\amotoo\documents\myproject\worddicbt\wddatas\wdword.cpp
; Line 24
	ldarg.0				; this$
	call		??0Object@System@@$$FQ$AAM@XZ
$LN6@WDWord:
; Line 26
	ldarg.0				; this$
	ldc.i.0		0		; u8 0x0
	stfld		?ReadPattern@WDWord@WDDatas@@3EA
; Line 27
	ldarg.0				; this$
	ldc.i.0		0		; u8 0x0
	stfld		?BaseFlg@WDWord@WDDatas@@3_NA
; Line 28
	ldarg.0				; this$
	ldc.i.0		0		; u8 0x0
	stfld		?Practical@WDWord@WDDatas@@3EA
; Line 29
	ldarg.0				; this$
	ldc.i.0		0		; u8 0x0
	stfld		?Gramatical@WDWord@WDDatas@@3EA
; Line 30
	ldarg.0				; this$
	ldc.i.0		0		; u8 0x0
	stfld		?Plurality@WDWord@WDDatas@@3EA
; Line 31
	ldarg.0				; this$
	ldc.i.0		0		; u8 0x0
	stfld		?Sex@WDWord@WDDatas@@3EA
; Line 32
	ldarg.0				; this$
	ldc.i.0		0		; i32 0x0
	stfld		?Type@WDWord@WDDatas@@3HA
	leave.s		$LN7@WDWord
$LN8@WDWord:
	ldarg.0				; this$
	ldc.i.1		1		; u8 0x1
	call		?<Dispose>@WDRec@WDDatas@@$$FM$AAMX_N@Z
	endfinally	
$LN7@WDWord:
; Line 34
	ret		
 .end ??0WDWord@WDDatas@@$$FQ$AAM@XZ			; WDDatas::WDWord::WDWord
;	.proc.end.void
.global	?Read2@WDWord@WDDatas@@3P$AAVString@System@@$AA	; WDDatas::WDWord::Read2
.global	?Read1@WDWord@WDDatas@@3P$AAVString@System@@$AA	; WDDatas::WDWord::Read1
.global	?Word@WDWord@WDDatas@@3P$AAVString@System@@$AA	; WDDatas::WDWord::Word
	.bss
.local	?Read2@WDWord@WDDatas@@3P$AAVString@System@@$AA,4 ; WDDatas::WDWord::Read2
.local	?Read1@WDWord@WDDatas@@3P$AAVString@System@@$AA,4 ; WDDatas::WDWord::Read1
.local	?Word@WDWord@WDDatas@@3P$AAVString@System@@$AA,4 ; WDDatas::WDWord::Word
; Function compile flags: /Ogtp
	.text
	.comdat	noduplicate, ??1WDWord@WDDatas@@$$FA$AAM@XZ
.global	??1WDWord@WDDatas@@$$FA$AAM@XZ			; WDDatas::WDWord::~WDWord
??1WDWord@WDDatas@@$$FA$AAM@XZ:				; WDDatas::WDWord::~WDWord
;	.proc.def	D:V()

; Function Header:
; max stack depth = 2
; function size = 40 bytes
; local varsig tk = 0x0 
; Exception Information:
; 0 handlers, each consisting of filtered handlers

;	.formal.mptr 0,"this$" SIG: Optional C Binding Modifier(token:0x44D869).class (token:0x44D86B)

;	.proc.beg
; Line 80
	ldarg.0				; this$
	ldfld		?Word@WDWord@WDDatas@@3P$AAVString@System@@$AA
	ldnull		0		; i32 0x0
	call		??9String@System@@$$FSM_NP$AAV01@0@Z
	pop		
; Line 81
	ldarg.0				; this$
	ldfld		?Read1@WDWord@WDDatas@@3P$AAVString@System@@$AA
	ldnull		0		; i32 0x0
	call		??9String@System@@$$FSM_NP$AAV01@0@Z
	pop		
; Line 82
	ldarg.0				; this$
	ldfld		?Read2@WDWord@WDDatas@@3P$AAVString@System@@$AA
	ldnull		0		; i32 0x0
	call		??9String@System@@$$FSM_NP$AAV01@0@Z
	pop		
; Line 83
	ret		
 .end ??1WDWord@WDDatas@@$$FA$AAM@XZ			; WDDatas::WDWord::~WDWord
;	.proc.end.void
; Function compile flags: /Ogtp
	.text
	.comdat	noduplicate, ?Length@WDWord@WDDatas@@$$FSMHXZ
.global	?Length@WDWord@WDDatas@@$$FSMHXZ		; WDDatas::WDWord::Length
?Length@WDWord@WDDatas@@$$FSMHXZ:			; WDDatas::WDWord::Length
;	.proc.def	D:I()

; Function Header:
; max stack depth = 1
; function size = 6 bytes
; local varsig tk = 0x0 
; Exception Information:
; 0 handlers, each consisting of filtered handlers


;	.proc.beg
; Line 346
	ldc.i4		400		; i32 0x190
	ret		
 .end ?Length@WDWord@WDDatas@@$$FSMHXZ			; WDDatas::WDWord::Length
;	.proc.end.i4
; Function compile flags: /Ogtp
	.text
	.comdat	noduplicate, ?RecLength@WDWord@WDDatas@@$$FU$AAMHXZ
.global	?RecLength@WDWord@WDDatas@@$$FU$AAMHXZ		; WDDatas::WDWord::RecLength
?RecLength@WDWord@WDDatas@@$$FU$AAMHXZ:			; WDDatas::WDWord::RecLength
;	.proc.def	D:I()

; Function Header:
; max stack depth = 2
; function size = 12 bytes
; local varsig tk = 0x0 
; Exception Information:
; 0 handlers, each consisting of filtered handlers


;	.proc.beg
; Line 352
	call		?getHeaderLength@DataRecord@FJIsam@@$$FSMHXZ
	ldc.i4		400		; i32 0x190
	add		
	ret		
 .end ?RecLength@WDWord@WDDatas@@$$FU$AAMHXZ		; WDDatas::WDWord::RecLength
;	.proc.end.i4
.global	
	.bss
.local	$T12153,0
.local	$StringLiteralTok$??_C@_11LOCGONAA@?$AA?$AA@,4
.local	$va_argTok$_W,4
.local	$TypeTok$110031CC$,4
.local	,4
; Function compile flags: /Ogtp
	.text
	.comdat	noduplicate, ?getWord@WDWord@WDDatas@@$$FQ$AAMP$AAVString@System@@P$AAV34@@Z
.global	?getWord@WDWord@WDDatas@@$$FQ$AAMP$AAVString@System@@P$AAV34@@Z ; WDDatas::WDWord::getWord
?getWord@WDWord@WDDatas@@$$FQ$AAMP$AAVString@System@@P$AAV34@@Z: ; WDDatas::WDWord::getWord
;	.proc.def	D:P(P)

; Function Header:
; max stack depth = 3
; function size = 82 bytes
; local varsig tk = 0x1100000B 
; Exception Information:
; 0 handlers, each consisting of filtered handlers

;	.formal.mptr 0,"this$" SIG: Optional C Binding Modifier(token:0x44D869).class (token:0x44D86B)
;	.formal.mptr 1,"inData$" SIG: string
;	.local.mptr 0,"$T11673" SIG: szarray (token:0x44AB41)

;	.proc.beg
; Line 361
	ldarg.1				; inData$
	ldnull		0		; i32 0x0
	call		??9String@System@@$$FSM_NP$AAV01@0@Z
	brfalse.s	$LN4@getWord
; Line 363
	ldarg.1				; inData$
	ldc.i.0		0		; i32 0x0
	call		?Remove@String@System@@$$FQ$AAMP$AAV12@H@Z
	pop		
; Line 364
	ldarg.1				; inData$
	ldc.i.0		0		; i32 0x0
	ldarg.0				; this$
	ldfld		?Word@WDWord@WDDatas@@3P$AAVString@System@@$AA
	call		?Insert@String@System@@$$FQ$AAMP$AAV12@HP$AAV12@@Z
	pop		
; Line 365
	ldarg.1				; inData$
	ret		
$LN4@getWord:
; Line 367
	ldarg.0				; this$
	ldfld		?Word@WDWord@WDDatas@@3P$AAVString@System@@$AA
	call		?get@Length@String@System@@$$FQ$AAMHXZ
	ldc.i.0		0		; i32 0x0
	ble.s		$LN2@getWord
; Line 369
	ldc.i.1		1		; i32 0x1
	newarr		$TypeTok$110031CC$
	stloc.0				; $T11673
	ldloc.0				; $T11673
	ldc.i.0		0		; i32 0x0
	ldelema		$va_argTok$_W
	ldc.i.0		0		; u16 0x0
	stind.i2	
	ldarg.0				; this$
	ldfld		?Word@WDWord@WDDatas@@3P$AAVString@System@@$AA
	ldloc.0				; $T11673
	call		?Trim@String@System@@$$FQ$AAMP$AAV12@P$01A_W@Z
	ret		
$LN2@getWord:
; Line 371
	ldstr		$StringLiteralTok$??_C@_11LOCGONAA@?$AA?$AA@
	ret		
 .end ?getWord@WDWord@WDDatas@@$$FQ$AAMP$AAVString@System@@P$AAV34@@Z ; WDDatas::WDWord::getWord
;	.proc.end.mptr
	.bss
.local	$T12156,0
; Function compile flags: /Ogtp
	.text
	.comdat	noduplicate, ?getRead1@WDWord@WDDatas@@$$FQ$AAMP$AAVString@System@@P$AAV34@@Z
.global	?getRead1@WDWord@WDDatas@@$$FQ$AAMP$AAVString@System@@P$AAV34@@Z ; WDDatas::WDWord::getRead1
?getRead1@WDWord@WDDatas@@$$FQ$AAMP$AAVString@System@@P$AAV34@@Z: ; WDDatas::WDWord::getRead1
;	.proc.def	D:P(P)

; Function Header:
; max stack depth = 3
; function size = 82 bytes
; local varsig tk = 0x1100000B 
; Exception Information:
; 0 handlers, each consisting of filtered handlers

;	.formal.mptr 0,"this$" SIG: Optional C Binding Modifier(token:0x44D869).class (token:0x44D86B)
;	.formal.mptr 1,"inData$" SIG: string
;	.local.mptr 0,"$T11687" SIG: szarray (token:0x44AB41)

;	.proc.beg
; Line 379
	ldarg.1				; inData$
	ldnull		0		; i32 0x0
	call		??9String@System@@$$FSM_NP$AAV01@0@Z
	brfalse.s	$LN4@getRead1
; Line 381
	ldarg.1				; inData$
	ldc.i.0		0		; i32 0x0
	call		?Remove@String@System@@$$FQ$AAMP$AAV12@H@Z
	pop		
; Line 382
	ldarg.1				; inData$
	ldc.i.0		0		; i32 0x0
	ldarg.0				; this$
	ldfld		?Read1@WDWord@WDDatas@@3P$AAVString@System@@$AA
	call		?Insert@String@System@@$$FQ$AAMP$AAV12@HP$AAV12@@Z
	pop		
; Line 383
	ldarg.1				; inData$
	ret		
$LN4@getRead1:
; Line 385
	ldarg.0				; this$
	ldfld		?Read1@WDWord@WDDatas@@3P$AAVString@System@@$AA
	call		?get@Length@String@System@@$$FQ$AAMHXZ
	ldc.i.0		0		; i32 0x0
	ble.s		$LN2@getRead1
; Line 387
	ldc.i.1		1		; i32 0x1
	newarr		$TypeTok$110031CC$
	stloc.0				; $T11687
	ldloc.0				; $T11687
	ldc.i.0		0		; i32 0x0
	ldelema		$va_argTok$_W
	ldc.i.0		0		; u16 0x0
	stind.i2	
	ldarg.0				; this$
	ldfld		?Read1@WDWord@WDDatas@@3P$AAVString@System@@$AA
	ldloc.0				; $T11687
	call		?Trim@String@System@@$$FQ$AAMP$AAV12@P$01A_W@Z
	ret		
$LN2@getRead1:
; Line 389
	ldstr		$StringLiteralTok$??_C@_11LOCGONAA@?$AA?$AA@
	ret		
 .end ?getRead1@WDWord@WDDatas@@$$FQ$AAMP$AAVString@System@@P$AAV34@@Z ; WDDatas::WDWord::getRead1
;	.proc.end.mptr
	.bss
.local	$T12159,0
; Function compile flags: /Ogtp
	.text
	.comdat	noduplicate, ?getRead2@WDWord@WDDatas@@$$FQ$AAMP$AAVString@System@@P$AAV34@@Z
.global	?getRead2@WDWord@WDDatas@@$$FQ$AAMP$AAVString@System@@P$AAV34@@Z ; WDDatas::WDWord::getRead2
?getRead2@WDWord@WDDatas@@$$FQ$AAMP$AAVString@System@@P$AAV34@@Z: ; WDDatas::WDWord::getRead2
;	.proc.def	D:P(P)

; Function Header:
; max stack depth = 3
; function size = 82 bytes
; local varsig tk = 0x1100000B 
; Exception Information:
; 0 handlers, each consisting of filtered handlers

;	.formal.mptr 0,"this$" SIG: Optional C Binding Modifier(token:0x44D869).class (token:0x44D86B)
;	.formal.mptr 1,"inData$" SIG: string
;	.local.mptr 0,"$T11697" SIG: szarray (token:0x44AB41)

;	.proc.beg
; Line 397
	ldarg.1				; inData$
	ldnull		0		; i32 0x0
	call		??9String@System@@$$FSM_NP$AAV01@0@Z
	brfalse.s	$LN4@getRead2
; Line 399
	ldarg.1				; inData$
	ldc.i.0		0		; i32 0x0
	call		?Remove@String@System@@$$FQ$AAMP$AAV12@H@Z
	pop		
; Line 400
	ldarg.1				; inData$
	ldc.i.0		0		; i32 0x0
	ldarg.0				; this$
	ldfld		?Read2@WDWord@WDDatas@@3P$AAVString@System@@$AA
	call		?Insert@String@System@@$$FQ$AAMP$AAV12@HP$AAV12@@Z
	pop		
; Line 401
	ldarg.1				; inData$
	ret		
$LN4@getRead2:
; Line 403
	ldarg.0				; this$
	ldfld		?Read2@WDWord@WDDatas@@3P$AAVString@System@@$AA
	call		?get@Length@String@System@@$$FQ$AAMHXZ
	ldc.i.0		0		; i32 0x0
	ble.s		$LN2@getRead2
; Line 405
	ldc.i.1		1		; i32 0x1
	newarr		$TypeTok$110031CC$
	stloc.0				; $T11697
	ldloc.0				; $T11697
	ldc.i.0		0		; i32 0x0
	ldelema		$va_argTok$_W
	ldc.i.0		0		; u16 0x0
	stind.i2	
	ldarg.0				; this$
	ldfld		?Read2@WDWord@WDDatas@@3P$AAVString@System@@$AA
	ldloc.0				; $T11697
	call		?Trim@String@System@@$$FQ$AAMP$AAV12@P$01A_W@Z
	ret		
$LN2@getRead2:
; Line 407
	ldstr		$StringLiteralTok$??_C@_11LOCGONAA@?$AA?$AA@
	ret		
 .end ?getRead2@WDWord@WDDatas@@$$FQ$AAMP$AAVString@System@@P$AAV34@@Z ; WDDatas::WDWord::getRead2
;	.proc.end.mptr
.global	?WordID@WDWord@WDDatas@@3HA			; WDDatas::WDWord::WordID
	.bss
.local	?WordID@WDWord@WDDatas@@3HA,4			; WDDatas::WDWord::WordID
; Function compile flags: /Ogtp
	.text
	.comdat	noduplicate, ?getWordID@WDWord@WDDatas@@$$FQ$AAMHXZ
.global	?getWordID@WDWord@WDDatas@@$$FQ$AAMHXZ		; WDDatas::WDWord::getWordID
?getWordID@WDWord@WDDatas@@$$FQ$AAMHXZ:			; WDDatas::WDWord::getWordID
;	.proc.def	D:I()

; Function Header:
; max stack depth = 1
; function size = 7 bytes
; local varsig tk = 0x0 
; Exception Information:
; 0 handlers, each consisting of filtered handlers

;	.formal.mptr 0,"this$" SIG: Optional C Binding Modifier(token:0x44D869).class (token:0x44D86B)

;	.proc.beg
; Line 416
	ldarg.0				; this$
	ldfld		?WordID@WDWord@WDDatas@@3HA
	ret		
 .end ?getWordID@WDWord@WDDatas@@$$FQ$AAMHXZ		; WDDatas::WDWord::getWordID
;	.proc.end.i4
; Function compile flags: /Ogtp
	.text
	.comdat	noduplicate, ?getReadPattern@WDWord@WDDatas@@$$FQ$AAMEXZ
.global	?getReadPattern@WDWord@WDDatas@@$$FQ$AAMEXZ	; WDDatas::WDWord::getReadPattern
?getReadPattern@WDWord@WDDatas@@$$FQ$AAMEXZ:		; WDDatas::WDWord::getReadPattern
;	.proc.def	D:I()

; Function Header:
; max stack depth = 1
; function size = 7 bytes
; local varsig tk = 0x0 
; Exception Information:
; 0 handlers, each consisting of filtered handlers

;	.formal.mptr 0,"this$" SIG: Optional C Binding Modifier(token:0x44D869).class (token:0x44D86B)

;	.proc.beg
; Line 422
	ldarg.0				; this$
	ldfld		?ReadPattern@WDWord@WDDatas@@3EA
	ret		
 .end ?getReadPattern@WDWord@WDDatas@@$$FQ$AAMEXZ	; WDDatas::WDWord::getReadPattern
;	.proc.end.u1
; Function compile flags: /Ogtp
	.text
	.comdat	noduplicate, ?getBaseFlg@WDWord@WDDatas@@$$FQ$AAM_NXZ
.global	?getBaseFlg@WDWord@WDDatas@@$$FQ$AAM_NXZ	; WDDatas::WDWord::getBaseFlg
?getBaseFlg@WDWord@WDDatas@@$$FQ$AAM_NXZ:		; WDDatas::WDWord::getBaseFlg
;	.proc.def	D:I()

; Function Header:
; max stack depth = 1
; function size = 7 bytes
; local varsig tk = 0x0 
; Exception Information:
; 0 handlers, each consisting of filtered handlers

;	.formal.mptr 0,"this$" SIG: Optional C Binding Modifier(token:0x44D869).class (token:0x44D86B)

;	.proc.beg
; Line 428
	ldarg.0				; this$
	ldfld		?BaseFlg@WDWord@WDDatas@@3_NA
	ret		
 .end ?getBaseFlg@WDWord@WDDatas@@$$FQ$AAM_NXZ		; WDDatas::WDWord::getBaseFlg
;	.proc.end.u1
; Function compile flags: /Ogtp
	.text
	.comdat	noduplicate, ?getPractical@WDWord@WDDatas@@$$FQ$AAMEXZ
.global	?getPractical@WDWord@WDDatas@@$$FQ$AAMEXZ	; WDDatas::WDWord::getPractical
?getPractical@WDWord@WDDatas@@$$FQ$AAMEXZ:		; WDDatas::WDWord::getPractical
;	.proc.def	D:I()

; Function Header:
; max stack depth = 1
; function size = 7 bytes
; local varsig tk = 0x0 
; Exception Information:
; 0 handlers, each consisting of filtered handlers

;	.formal.mptr 0,"this$" SIG: Optional C Binding Modifier(token:0x44D869).class (token:0x44D86B)

;	.proc.beg
; Line 435
	ldarg.0				; this$
	ldfld		?Practical@WDWord@WDDatas@@3EA
	ret		
 .end ?getPractical@WDWord@WDDatas@@$$FQ$AAMEXZ		; WDDatas::WDWord::getPractical
;	.proc.end.u1
; Function compile flags: /Ogtp
	.text
	.comdat	noduplicate, ?getGramatical@WDWord@WDDatas@@$$FQ$AAMEXZ
.global	?getGramatical@WDWord@WDDatas@@$$FQ$AAMEXZ	; WDDatas::WDWord::getGramatical
?getGramatical@WDWord@WDDatas@@$$FQ$AAMEXZ:		; WDDatas::WDWord::getGramatical
;	.proc.def	D:I()

; Function Header:
; max stack depth = 1
; function size = 7 bytes
; local varsig tk = 0x0 
; Exception Information:
; 0 handlers, each consisting of filtered handlers

;	.formal.mptr 0,"this$" SIG: Optional C Binding Modifier(token:0x44D869).class (token:0x44D86B)

;	.proc.beg
; Line 441
	ldarg.0				; this$
	ldfld		?Gramatical@WDWord@WDDatas@@3EA
	ret		
 .end ?getGramatical@WDWord@WDDatas@@$$FQ$AAMEXZ	; WDDatas::WDWord::getGramatical
;	.proc.end.u1
; Function compile flags: /Ogtp
	.text
	.comdat	noduplicate, ?getPlurality@WDWord@WDDatas@@$$FQ$AAMEXZ
.global	?getPlurality@WDWord@WDDatas@@$$FQ$AAMEXZ	; WDDatas::WDWord::getPlurality
?getPlurality@WDWord@WDDatas@@$$FQ$AAMEXZ:		; WDDatas::WDWord::getPlurality
;	.proc.def	D:I()

; Function Header:
; max stack depth = 1
; function size = 7 bytes
; local varsig tk = 0x0 
; Exception Information:
; 0 handlers, each consisting of filtered handlers

;	.formal.mptr 0,"this$" SIG: Optional C Binding Modifier(token:0x44D869).class (token:0x44D86B)

;	.proc.beg
; Line 447
	ldarg.0				; this$
	ldfld		?Plurality@WDWord@WDDatas@@3EA
	ret		
 .end ?getPlurality@WDWord@WDDatas@@$$FQ$AAMEXZ		; WDDatas::WDWord::getPlurality
;	.proc.end.u1
; Function compile flags: /Ogtp
	.text
	.comdat	noduplicate, ?getSex@WDWord@WDDatas@@$$FQ$AAMEXZ
.global	?getSex@WDWord@WDDatas@@$$FQ$AAMEXZ		; WDDatas::WDWord::getSex
?getSex@WDWord@WDDatas@@$$FQ$AAMEXZ:			; WDDatas::WDWord::getSex
;	.proc.def	D:I()

; Function Header:
; max stack depth = 1
; function size = 7 bytes
; local varsig tk = 0x0 
; Exception Information:
; 0 handlers, each consisting of filtered handlers

;	.formal.mptr 0,"this$" SIG: Optional C Binding Modifier(token:0x44D869).class (token:0x44D86B)

;	.proc.beg
; Line 453
	ldarg.0				; this$
	ldfld		?Sex@WDWord@WDDatas@@3EA
	ret		
 .end ?getSex@WDWord@WDDatas@@$$FQ$AAMEXZ		; WDDatas::WDWord::getSex
;	.proc.end.u1
; Function compile flags: /Ogtp
	.text
	.comdat	noduplicate, ?getType@WDWord@WDDatas@@$$FQ$AAMHXZ
.global	?getType@WDWord@WDDatas@@$$FQ$AAMHXZ		; WDDatas::WDWord::getType
?getType@WDWord@WDDatas@@$$FQ$AAMHXZ:			; WDDatas::WDWord::getType
;	.proc.def	D:I()

; Function Header:
; max stack depth = 1
; function size = 7 bytes
; local varsig tk = 0x0 
; Exception Information:
; 0 handlers, each consisting of filtered handlers

;	.formal.mptr 0,"this$" SIG: Optional C Binding Modifier(token:0x44D869).class (token:0x44D86B)

;	.proc.beg
; Line 459
	ldarg.0				; this$
	ldfld		?Type@WDWord@WDDatas@@3HA
	ret		
 .end ?getType@WDWord@WDDatas@@$$FQ$AAMHXZ		; WDDatas::WDWord::getType
;	.proc.end.i4
.global	?ErrorCode2@WDDatasException@WDDatas@@3HA	; WDDatas::WDDatasException::ErrorCode2
.global	?ErrorCode@WDDatasException@WDDatas@@3HA	; WDDatas::WDDatasException::ErrorCode
.global	
.global	
	.bss
.local	$T12192,0
.local	$StringLiteralTok$??_C@_1BM@IGMKMPHD@SX?$IK?$JO0n?$IK?9?$FL?$JK0kY1eW0W0?$HO0W0_0?$AC?$AA?$AA@,4
.local	$StringLiteralTok$??_C@_1BE@KFAMMPHD@SX?$IK?$JO0L?$JFw0Y0N0?$HO0Y0?$AC?$AA?$AA@,4
.local	?ErrorCode2@WDDatasException@WDDatas@@3HA,4	; WDDatas::WDDatasException::ErrorCode2
.local	?ErrorCode@WDDatasException@WDDatas@@3HA,4	; WDDatas::WDDatasException::ErrorCode
.local	$StringLiteralTok$??_C@_1BE@DOGPBOKL@SX?$IK?$JO0Lg?$CK?$IK?9?$FL?$JK0g0Y0?$AC?$AA?$AA@,4
.local	,4
.local	,4
; Function compile flags: /Ogtp
	.text
	.comdat	noduplicate, ?setWord@WDWord@WDDatas@@$$FQ$AAMXP$AAVString@System@@@Z
.global	?setWord@WDWord@WDDatas@@$$FQ$AAMXP$AAVString@System@@@Z ; WDDatas::WDWord::setWord
?setWord@WDWord@WDDatas@@$$FQ$AAMXP$AAVString@System@@@Z: ; WDDatas::WDWord::setWord
;	.proc.def	D:V(P)

; Function Header:
; max stack depth = 4
; function size = 147 bytes
; local varsig tk = 0x1100000E 
; Exception Information:
; 1 handlers, each consisting of filtered handlers

;	.formal.mptr 0,"this$" SIG: Optional C Binding Modifier(token:0x44D869).class (token:0x44D86B)
;	.formal.mptr 1,"inData$" SIG: string
;	.local.mptr 0,"tmpWDDataException$11748" SIG: class (token:0x44C131)
;	.local.mptr 3,"exp$11747" SIG: class (token:0x44C0A5)
;	.local.mptr 1,"tmpWDDataException$11741" SIG: class (token:0x44C131)
;	.local.mptr 2,"tmpWDDataException$11737" SIG: class (token:0x44C131)

;	.proc.beg
; Line 468
	ldarg.1				; inData$
	ldnull		0		; i32 0x0
	call		??8String@System@@$$FSM_NP$AAV01@0@Z
	brfalse.s	$LN4@setWord
; Line 471
	ldstr		$StringLiteralTok$??_C@_1BE@DOGPBOKL@SX?$IK?$JO0Lg?$CK?$IK?9?$FL?$JK0g0Y0?$AC?$AA?$AA@
	newobj		??0WDDatasException@WDDatas@@$$FQ$AAM@P$AAVString@System@@@Z
	stloc.2				; tmpWDDataException$11737
; Line 472
	ldloc.2				; tmpWDDataException$11737
	ldc.i4		10106		; i32 0x277a
	stfld		?ErrorCode@WDDatasException@WDDatas@@3HA
; Line 473
	ldloc.2				; tmpWDDataException$11737
	ldc.i.1		1		; i32 0x1
	stfld		?ErrorCode2@WDDatasException@WDDatas@@3HA
; Line 474
	ldloc.2				; tmpWDDataException$11737
	throw.u2	
$LN4@setWord:
; Line 476
	ldarg.1				; inData$
	call		?get@Length@String@System@@$$FQ$AAMHXZ
	ldc.i.1		1		; i32 0x1
	shl		
	ldc.i4.s	100		; i32 0x64
	ble.s		$LN3@setWord
; Line 479
	ldstr		$StringLiteralTok$??_C@_1BE@KFAMMPHD@SX?$IK?$JO0L?$JFw0Y0N0?$HO0Y0?$AC?$AA?$AA@
	newobj		??0WDDatasException@WDDatas@@$$FQ$AAM@P$AAVString@System@@@Z
	stloc.1				; tmpWDDataException$11741
; Line 480
	ldloc.1				; tmpWDDataException$11741
	ldc.i4		10106		; i32 0x277a
	stfld		?ErrorCode@WDDatasException@WDDatas@@3HA
; Line 481
	ldloc.1				; tmpWDDataException$11741
	ldc.i.2		2		; i32 0x2
	stfld		?ErrorCode2@WDDatasException@WDDatas@@3HA
; Line 482
	ldloc.1				; tmpWDDataException$11741
	throw.u2	
$LN3@setWord:
	nop		
$LN16@setWord:
; Line 488
	ldarg.0				; this$
	ldfld		?Word@WDWord@WDDatas@@3P$AAVString@System@@$AA
	ldnull		0		; i32 0x0
	call		??9String@System@@$$FSM_NP$AAV01@0@Z
	pop		
; Line 489
	ldarg.0				; this$
	ldarg.1				; inData$
	call		?Copy@String@System@@$$FSMP$AAV12@P$AAV12@@Z
	stfld		?Word@WDWord@WDDatas@@3P$AAVString@System@@$AA
	leave.s		$LN7@setWord
__catch$?setWord@WDWord@WDDatas@@$$FQ$AAMXP$AAVString@System@@@Z$0:
; Line 491
	imp.push	
	stloc.3				; exp$11747
; Line 493
	ldstr		$StringLiteralTok$??_C@_1BM@IGMKMPHD@SX?$IK?$JO0n?$IK?9?$FL?$JK0kY1eW0W0?$HO0W0_0?$AC?$AA?$AA@
	ldloc.3				; exp$11747
	newobj		??0WDDatasException@WDDatas@@$$FQ$AAM@P$AAVString@System@@P$AAVException@3@@Z
	stloc.0				; tmpWDDataException$11748
; Line 494
	ldloc.0				; tmpWDDataException$11748
	ldc.i4		10106		; i32 0x277a
	stfld		?ErrorCode@WDDatasException@WDDatas@@3HA
; Line 495
	ldloc.0				; tmpWDDataException$11748
	ldc.i.3		3		; i32 0x3
	stfld		?ErrorCode2@WDDatasException@WDDatas@@3HA
; Line 496
	ldloc.0				; tmpWDDataException$11748
	throw.u2	
$LN12@setWord:
	leave.s		$LN7@setWord
$LN7@setWord:
$LN15@setWord:
; Line 499
	ret		
 .end ?setWord@WDWord@WDDatas@@$$FQ$AAMXP$AAVString@System@@@Z ; WDDatas::WDWord::setWord
;	.proc.end.void
	.bss
.local	$T12208,0
.local	$StringLiteralTok$??_C@_1BO@HIBEEDCO@?$IK?$KN0?$HP?$AA10n?$IK?9?$FL?$JK0kY1eW0W0?$HO0W0_0?$AC?$AA?$AA@,4
.local	$StringLiteralTok$??_C@_1BG@HKFNHGBP@?$IK?$KN0?$HP?$AA10L?$JFw0Y0N0?$HO0Y0?$AC?$AA?$AA@,4
.local	$StringLiteralTok$??_C@_1BG@OBDOKHMH@?$IK?$KN0?$HP?$AA10Lg?$CK?$IK?9?$FL?$JK0g0Y0?$AC?$AA?$AA@,4
; Function compile flags: /Ogtp
	.text
	.comdat	noduplicate, ?setRead1@WDWord@WDDatas@@$$FQ$AAMXP$AAVString@System@@@Z
.global	?setRead1@WDWord@WDDatas@@$$FQ$AAMXP$AAVString@System@@@Z ; WDDatas::WDWord::setRead1
?setRead1@WDWord@WDDatas@@$$FQ$AAMXP$AAVString@System@@@Z: ; WDDatas::WDWord::setRead1
;	.proc.def	D:V(P)

; Function Header:
; max stack depth = 4
; function size = 147 bytes
; local varsig tk = 0x1100000E 
; Exception Information:
; 1 handlers, each consisting of filtered handlers

;	.formal.mptr 0,"this$" SIG: Optional C Binding Modifier(token:0x44D869).class (token:0x44D86B)
;	.formal.mptr 1,"inData$" SIG: string
;	.local.mptr 0,"tmpWDDataException$11767" SIG: class (token:0x44C131)
;	.local.mptr 3,"exp$11766" SIG: class (token:0x44C0A5)
;	.local.mptr 1,"tmpWDDataException$11760" SIG: class (token:0x44C131)
;	.local.mptr 2,"tmpWDDataException$11756" SIG: class (token:0x44C131)

;	.proc.beg
; Line 505
	ldarg.1				; inData$
	ldnull		0		; i32 0x0
	call		??8String@System@@$$FSM_NP$AAV01@0@Z
	brfalse.s	$LN4@setRead1
; Line 508
	ldstr		$StringLiteralTok$??_C@_1BG@OBDOKHMH@?$IK?$KN0?$HP?$AA10Lg?$CK?$IK?9?$FL?$JK0g0Y0?$AC?$AA?$AA@
	newobj		??0WDDatasException@WDDatas@@$$FQ$AAM@P$AAVString@System@@@Z
	stloc.2				; tmpWDDataException$11756
; Line 509
	ldloc.2				; tmpWDDataException$11756
	ldc.i4		10107		; i32 0x277b
	stfld		?ErrorCode@WDDatasException@WDDatas@@3HA
; Line 510
	ldloc.2				; tmpWDDataException$11756
	ldc.i.1		1		; i32 0x1
	stfld		?ErrorCode2@WDDatasException@WDDatas@@3HA
; Line 511
	ldloc.2				; tmpWDDataException$11756
	throw.u2	
$LN4@setRead1:
; Line 513
	ldarg.1				; inData$
	call		?get@Length@String@System@@$$FQ$AAMHXZ
	ldc.i.1		1		; i32 0x1
	shl		
	ldc.i4.s	100		; i32 0x64
	ble.s		$LN3@setRead1
; Line 516
	ldstr		$StringLiteralTok$??_C@_1BG@HKFNHGBP@?$IK?$KN0?$HP?$AA10L?$JFw0Y0N0?$HO0Y0?$AC?$AA?$AA@
	newobj		??0WDDatasException@WDDatas@@$$FQ$AAM@P$AAVString@System@@@Z
	stloc.1				; tmpWDDataException$11760
; Line 517
	ldloc.1				; tmpWDDataException$11760
	ldc.i4		10107		; i32 0x277b
	stfld		?ErrorCode@WDDatasException@WDDatas@@3HA
; Line 518
	ldloc.1				; tmpWDDataException$11760
	ldc.i.2		2		; i32 0x2
	stfld		?ErrorCode2@WDDatasException@WDDatas@@3HA
; Line 519
	ldloc.1				; tmpWDDataException$11760
	throw.u2	
$LN3@setRead1:
	nop		
$LN16@setRead1:
; Line 525
	ldarg.0				; this$
	ldfld		?Read1@WDWord@WDDatas@@3P$AAVString@System@@$AA
	ldnull		0		; i32 0x0
	call		??9String@System@@$$FSM_NP$AAV01@0@Z
	pop		
; Line 526
	ldarg.0				; this$
	ldarg.1				; inData$
	call		?Copy@String@System@@$$FSMP$AAV12@P$AAV12@@Z
	stfld		?Read1@WDWord@WDDatas@@3P$AAVString@System@@$AA
	leave.s		$LN7@setRead1
__catch$?setRead1@WDWord@WDDatas@@$$FQ$AAMXP$AAVString@System@@@Z$0:
; Line 528
	imp.push	
	stloc.3				; exp$11766
; Line 530
	ldstr		$StringLiteralTok$??_C@_1BO@HIBEEDCO@?$IK?$KN0?$HP?$AA10n?$IK?9?$FL?$JK0kY1eW0W0?$HO0W0_0?$AC?$AA?$AA@
	ldloc.3				; exp$11766
	newobj		??0WDDatasException@WDDatas@@$$FQ$AAM@P$AAVString@System@@P$AAVException@3@@Z
	stloc.0				; tmpWDDataException$11767
; Line 531
	ldloc.0				; tmpWDDataException$11767
	ldc.i4		10107		; i32 0x277b
	stfld		?ErrorCode@WDDatasException@WDDatas@@3HA
; Line 532
	ldloc.0				; tmpWDDataException$11767
	ldc.i.3		3		; i32 0x3
	stfld		?ErrorCode2@WDDatasException@WDDatas@@3HA
; Line 533
	ldloc.0				; tmpWDDataException$11767
	throw.u2	
$LN12@setRead1:
	leave.s		$LN7@setRead1
$LN7@setRead1:
$LN15@setRead1:
; Line 536
	ret		
 .end ?setRead1@WDWord@WDDatas@@$$FQ$AAMXP$AAVString@System@@@Z ; WDDatas::WDWord::setRead1
;	.proc.end.void
	.bss
.local	$T12224,0
.local	$StringLiteralTok$??_C@_1BO@IKEDKONG@?$IK?$KN0?$HP?$AA20n?$IK?9?$FL?$JK0kY1eW0W0?$HO0W0_0?$AC?$AA?$AA@,4
.local	$StringLiteralTok$??_C@_1BG@JANLKLHN@?$IK?$KN0?$HP?$AA20L?$JFw0Y0N0?$HO0Y0?$AC?$AA?$AA@,4
.local	$StringLiteralTok$??_C@_1BG@LLIHKKF@?$IK?$KN0?$HP?$AA20Lg?$CK?$IK?9?$FL?$JK0g0Y0?$AC?$AA?$AA@,4
; Function compile flags: /Ogtp
	.text
	.comdat	noduplicate, ?setRead2@WDWord@WDDatas@@$$FQ$AAMXP$AAVString@System@@@Z
.global	?setRead2@WDWord@WDDatas@@$$FQ$AAMXP$AAVString@System@@@Z ; WDDatas::WDWord::setRead2
?setRead2@WDWord@WDDatas@@$$FQ$AAMXP$AAVString@System@@@Z: ; WDDatas::WDWord::setRead2
;	.proc.def	D:V(P)

; Function Header:
; max stack depth = 4
; function size = 147 bytes
; local varsig tk = 0x1100000E 
; Exception Information:
; 1 handlers, each consisting of filtered handlers

;	.formal.mptr 0,"this$" SIG: Optional C Binding Modifier(token:0x44D869).class (token:0x44D86B)
;	.formal.mptr 1,"inData$" SIG: string
;	.local.mptr 0,"tmpWDDataException$11786" SIG: class (token:0x44C131)
;	.local.mptr 3,"exp$11785" SIG: class (token:0x44C0A5)
;	.local.mptr 1,"tmpWDDataException$11779" SIG: class (token:0x44C131)
;	.local.mptr 2,"tmpWDDataException$11775" SIG: class (token:0x44C131)

;	.proc.beg
; Line 542
	ldarg.1				; inData$
	ldnull		0		; i32 0x0
	call		??8String@System@@$$FSM_NP$AAV01@0@Z
	brfalse.s	$LN4@setRead2
; Line 545
	ldstr		$StringLiteralTok$??_C@_1BG@LLIHKKF@?$IK?$KN0?$HP?$AA20Lg?$CK?$IK?9?$FL?$JK0g0Y0?$AC?$AA?$AA@
	newobj		??0WDDatasException@WDDatas@@$$FQ$AAM@P$AAVString@System@@@Z
	stloc.2				; tmpWDDataException$11775
; Line 546
	ldloc.2				; tmpWDDataException$11775
	ldc.i4		10108		; i32 0x277c
	stfld		?ErrorCode@WDDatasException@WDDatas@@3HA
; Line 547
	ldloc.2				; tmpWDDataException$11775
	ldc.i.1		1		; i32 0x1
	stfld		?ErrorCode2@WDDatasException@WDDatas@@3HA
; Line 548
	ldloc.2				; tmpWDDataException$11775
	throw.u2	
$LN4@setRead2:
; Line 550
	ldarg.1				; inData$
	call		?get@Length@String@System@@$$FQ$AAMHXZ
	ldc.i.1		1		; i32 0x1
	shl		
	ldc.i4.s	100		; i32 0x64
	ble.s		$LN3@setRead2
; Line 553
	ldstr		$StringLiteralTok$??_C@_1BG@JANLKLHN@?$IK?$KN0?$HP?$AA20L?$JFw0Y0N0?$HO0Y0?$AC?$AA?$AA@
	newobj		??0WDDatasException@WDDatas@@$$FQ$AAM@P$AAVString@System@@@Z
	stloc.1				; tmpWDDataException$11779
; Line 554
	ldloc.1				; tmpWDDataException$11779
	ldc.i4		10108		; i32 0x277c
	stfld		?ErrorCode@WDDatasException@WDDatas@@3HA
; Line 555
	ldloc.1				; tmpWDDataException$11779
	ldc.i.2		2		; i32 0x2
	stfld		?ErrorCode2@WDDatasException@WDDatas@@3HA
; Line 556
	ldloc.1				; tmpWDDataException$11779
	throw.u2	
$LN3@setRead2:
	nop		
$LN16@setRead2:
; Line 562
	ldarg.0				; this$
	ldfld		?Read2@WDWord@WDDatas@@3P$AAVString@System@@$AA
	ldnull		0		; i32 0x0
	call		??9String@System@@$$FSM_NP$AAV01@0@Z
	pop		
; Line 563
	ldarg.0				; this$
	ldarg.1				; inData$
	call		?Copy@String@System@@$$FSMP$AAV12@P$AAV12@@Z
	stfld		?Read2@WDWord@WDDatas@@3P$AAVString@System@@$AA
	leave.s		$LN7@setRead2
__catch$?setRead2@WDWord@WDDatas@@$$FQ$AAMXP$AAVString@System@@@Z$0:
; Line 565
	imp.push	
	stloc.3				; exp$11785
; Line 567
	ldstr		$StringLiteralTok$??_C@_1BO@IKEDKONG@?$IK?$KN0?$HP?$AA20n?$IK?9?$FL?$JK0kY1eW0W0?$HO0W0_0?$AC?$AA?$AA@
	ldloc.3				; exp$11785
	newobj		??0WDDatasException@WDDatas@@$$FQ$AAM@P$AAVString@System@@P$AAVException@3@@Z
	stloc.0				; tmpWDDataException$11786
; Line 568
	ldloc.0				; tmpWDDataException$11786
	ldc.i4		10108		; i32 0x277c
	stfld		?ErrorCode@WDDatasException@WDDatas@@3HA
; Line 569
	ldloc.0				; tmpWDDataException$11786
	ldc.i.3		3		; i32 0x3
	stfld		?ErrorCode2@WDDatasException@WDDatas@@3HA
; Line 570
	ldloc.0				; tmpWDDataException$11786
	throw.u2	
$LN12@setRead2:
	leave.s		$LN7@setRead2
$LN7@setRead2:
$LN15@setRead2:
; Line 573
	ret		
 .end ?setRead2@WDWord@WDDatas@@$$FQ$AAMXP$AAVString@System@@@Z ; WDDatas::WDWord::setRead2
;	.proc.end.void
.global	
	.bss
.local	$T12230,0
.local	$StringLiteralTok$??_C@_1BG@GAPALFHB@SX?$IK?$JO?$AAI?$AAD0LN?$ANkc0g0Y0?$AC?$AA?$AA@,4
.local	,4
; Function compile flags: /Ogtp
	.text
	.comdat	noduplicate, ?setWordID@WDWord@WDDatas@@$$FQ$AAMXH@Z
.global	?setWordID@WDWord@WDDatas@@$$FQ$AAMXH@Z		; WDDatas::WDWord::setWordID
?setWordID@WDWord@WDDatas@@$$FQ$AAMXH@Z:		; WDDatas::WDWord::setWordID
;	.proc.def	D:V(I)

; Function Header:
; max stack depth = 2
; function size = 43 bytes
; local varsig tk = 0x11000010 
; Exception Information:
; 0 handlers, each consisting of filtered handlers

;	.formal.mptr 0,"this$" SIG: Optional C Binding Modifier(token:0x44D869).class (token:0x44D86B)
;	.formal.i4 1,"inData$" SIG: i4
;	.local.mptr 0,"tmpWDDataException$11794" SIG: class (token:0x44C131)

;	.proc.beg
; Line 579
	ldarg.1				; inData$
	ldc.i.0		0		; i32 0x0
	bgt.s		$LN1@setWordID
; Line 582
	ldstr		$StringLiteralTok$??_C@_1BG@GAPALFHB@SX?$IK?$JO?$AAI?$AAD0LN?$ANkc0g0Y0?$AC?$AA?$AA@
	newobj		??0WDDatasException@WDDatas@@$$FQ$AAM@P$AAVString@System@@@Z
	stloc.0				; tmpWDDataException$11794
; Line 583
	ldloc.0				; tmpWDDataException$11794
	ldc.i4		10109		; i32 0x277d
	stfld		?ErrorCode@WDDatasException@WDDatas@@3HA
; Line 584
	ldloc.0				; tmpWDDataException$11794
	ldc.i.1		1		; i32 0x1
	stfld		?ErrorCode2@WDDatasException@WDDatas@@3HA
; Line 585
	ldloc.0				; tmpWDDataException$11794
	throw.u2	
$LN1@setWordID:
; Line 588
	ldarg.0				; this$
	ldarg.1				; inData$
	stfld		?WordID@WDWord@WDDatas@@3HA
; Line 589
	ret		
 .end ?setWordID@WDWord@WDDatas@@$$FQ$AAMXH@Z		; WDDatas::WDWord::setWordID
;	.proc.end.void
.global	
	.bss
.local	,4
; Function compile flags: /Ogtp
	.text
	.comdat	noduplicate, ?setReadPattern@WDWord@WDDatas@@$$FQ$AAMXE@Z
.global	?setReadPattern@WDWord@WDDatas@@$$FQ$AAMXE@Z	; WDDatas::WDWord::setReadPattern
?setReadPattern@WDWord@WDDatas@@$$FQ$AAMXE@Z:		; WDDatas::WDWord::setReadPattern
;	.proc.def	D:V(I)

; Function Header:
; max stack depth = 2
; function size = 8 bytes
; local varsig tk = 0x0 
; Exception Information:
; 0 handlers, each consisting of filtered handlers

;	.formal.u1 1,"inData$" SIG: u1
;	.formal.mptr 0,"this$" SIG: Optional C Binding Modifier(token:0x44D869).class (token:0x44D86B)

;	.proc.beg
; Line 594
	ldarg.0				; this$
	ldarg.1				; inData$
	stfld		?ReadPattern@WDWord@WDDatas@@3EA
; Line 595
	ret		
 .end ?setReadPattern@WDWord@WDDatas@@$$FQ$AAMXE@Z	; WDDatas::WDWord::setReadPattern
;	.proc.end.void
.global	
	.bss
.local	,4
; Function compile flags: /Ogtp
	.text
	.comdat	noduplicate, ?setBaseFlg@WDWord@WDDatas@@$$FQ$AAMX_N@Z
.global	?setBaseFlg@WDWord@WDDatas@@$$FQ$AAMX_N@Z	; WDDatas::WDWord::setBaseFlg
?setBaseFlg@WDWord@WDDatas@@$$FQ$AAMX_N@Z:		; WDDatas::WDWord::setBaseFlg
;	.proc.def	D:V(I)

; Function Header:
; max stack depth = 2
; function size = 8 bytes
; local varsig tk = 0x0 
; Exception Information:
; 0 handlers, each consisting of filtered handlers

;	.formal.u1 1,"inData$" SIG: bool
;	.formal.mptr 0,"this$" SIG: Optional C Binding Modifier(token:0x44D869).class (token:0x44D86B)

;	.proc.beg
; Line 600
	ldarg.0				; this$
	ldarg.1				; inData$
	stfld		?BaseFlg@WDWord@WDDatas@@3_NA
; Line 601
	ret		
 .end ?setBaseFlg@WDWord@WDDatas@@$$FQ$AAMX_N@Z		; WDDatas::WDWord::setBaseFlg
;	.proc.end.void
; Function compile flags: /Ogtp
	.text
	.comdat	noduplicate, ?setPractical@WDWord@WDDatas@@$$FQ$AAMXE@Z
.global	?setPractical@WDWord@WDDatas@@$$FQ$AAMXE@Z	; WDDatas::WDWord::setPractical
?setPractical@WDWord@WDDatas@@$$FQ$AAMXE@Z:		; WDDatas::WDWord::setPractical
;	.proc.def	D:V(I)

; Function Header:
; max stack depth = 2
; function size = 8 bytes
; local varsig tk = 0x0 
; Exception Information:
; 0 handlers, each consisting of filtered handlers

;	.formal.u1 1,"inData$" SIG: u1
;	.formal.mptr 0,"this$" SIG: Optional C Binding Modifier(token:0x44D869).class (token:0x44D86B)

;	.proc.beg
; Line 607
	ldarg.0				; this$
	ldarg.1				; inData$
	stfld		?Practical@WDWord@WDDatas@@3EA
; Line 608
	ret		
 .end ?setPractical@WDWord@WDDatas@@$$FQ$AAMXE@Z	; WDDatas::WDWord::setPractical
;	.proc.end.void
; Function compile flags: /Ogtp
	.text
	.comdat	noduplicate, ?setGramatical@WDWord@WDDatas@@$$FQ$AAMXE@Z
.global	?setGramatical@WDWord@WDDatas@@$$FQ$AAMXE@Z	; WDDatas::WDWord::setGramatical
?setGramatical@WDWord@WDDatas@@$$FQ$AAMXE@Z:		; WDDatas::WDWord::setGramatical
;	.proc.def	D:V(I)

; Function Header:
; max stack depth = 2
; function size = 8 bytes
; local varsig tk = 0x0 
; Exception Information:
; 0 handlers, each consisting of filtered handlers

;	.formal.u1 1,"inData$" SIG: u1
;	.formal.mptr 0,"this$" SIG: Optional C Binding Modifier(token:0x44D869).class (token:0x44D86B)

;	.proc.beg
; Line 613
	ldarg.0				; this$
	ldarg.1				; inData$
	stfld		?Gramatical@WDWord@WDDatas@@3EA
; Line 614
	ret		
 .end ?setGramatical@WDWord@WDDatas@@$$FQ$AAMXE@Z	; WDDatas::WDWord::setGramatical
;	.proc.end.void
; Function compile flags: /Ogtp
	.text
	.comdat	noduplicate, ?setPlurality@WDWord@WDDatas@@$$FQ$AAMXE@Z
.global	?setPlurality@WDWord@WDDatas@@$$FQ$AAMXE@Z	; WDDatas::WDWord::setPlurality
?setPlurality@WDWord@WDDatas@@$$FQ$AAMXE@Z:		; WDDatas::WDWord::setPlurality
;	.proc.def	D:V(I)

; Function Header:
; max stack depth = 2
; function size = 8 bytes
; local varsig tk = 0x0 
; Exception Information:
; 0 handlers, each consisting of filtered handlers

;	.formal.u1 1,"inData$" SIG: u1
;	.formal.mptr 0,"this$" SIG: Optional C Binding Modifier(token:0x44D869).class (token:0x44D86B)

;	.proc.beg
; Line 619
	ldarg.0				; this$
	ldarg.1				; inData$
	stfld		?Plurality@WDWord@WDDatas@@3EA
; Line 620
	ret		
 .end ?setPlurality@WDWord@WDDatas@@$$FQ$AAMXE@Z	; WDDatas::WDWord::setPlurality
;	.proc.end.void
; Function compile flags: /Ogtp
	.text
	.comdat	noduplicate, ?setSex@WDWord@WDDatas@@$$FQ$AAMXE@Z
.global	?setSex@WDWord@WDDatas@@$$FQ$AAMXE@Z		; WDDatas::WDWord::setSex
?setSex@WDWord@WDDatas@@$$FQ$AAMXE@Z:			; WDDatas::WDWord::setSex
;	.proc.def	D:V(I)

; Function Header:
; max stack depth = 2
; function size = 8 bytes
; local varsig tk = 0x0 
; Exception Information:
; 0 handlers, each consisting of filtered handlers

;	.formal.u1 1,"inData$" SIG: u1
;	.formal.mptr 0,"this$" SIG: Optional C Binding Modifier(token:0x44D869).class (token:0x44D86B)

;	.proc.beg
; Line 625
	ldarg.0				; this$
	ldarg.1				; inData$
	stfld		?Sex@WDWord@WDDatas@@3EA
; Line 626
	ret		
 .end ?setSex@WDWord@WDDatas@@$$FQ$AAMXE@Z		; WDDatas::WDWord::setSex
;	.proc.end.void
	.bss
.local	$T12248,0
.local	$StringLiteralTok$??_C@_1BI@HMJHFHB@m?$DLu?$CI0?$LP0?$KE0?W0LN?$ANkc0g0Y0?$AC?$AA?$AA@,4
; Function compile flags: /Ogtp
	.text
	.comdat	noduplicate, ?setType@WDWord@WDDatas@@$$FQ$AAMXH@Z
.global	?setType@WDWord@WDDatas@@$$FQ$AAMXH@Z		; WDDatas::WDWord::setType
?setType@WDWord@WDDatas@@$$FQ$AAMXH@Z:			; WDDatas::WDWord::setType
;	.proc.def	D:V(I)

; Function Header:
; max stack depth = 2
; function size = 43 bytes
; local varsig tk = 0x11000010 
; Exception Information:
; 0 handlers, each consisting of filtered handlers

;	.formal.mptr 0,"this$" SIG: Optional C Binding Modifier(token:0x44D869).class (token:0x44D86B)
;	.formal.i4 1,"inData$" SIG: i4
;	.local.mptr 0,"tmpWDDataException$11828" SIG: class (token:0x44C131)

;	.proc.beg
; Line 632
	ldarg.1				; inData$
	ldc.i.0		0		; i32 0x0
	bge.s		$LN1@setType
; Line 635
	ldstr		$StringLiteralTok$??_C@_1BI@HMJHFHB@m?$DLu?$CI0?$LP0?$KE0?W0LN?$ANkc0g0Y0?$AC?$AA?$AA@
	newobj		??0WDDatasException@WDDatas@@$$FQ$AAM@P$AAVString@System@@@Z
	stloc.0				; tmpWDDataException$11828
; Line 636
	ldloc.0				; tmpWDDataException$11828
	ldc.i4		10116		; i32 0x2784
	stfld		?ErrorCode@WDDatasException@WDDatas@@3HA
; Line 637
	ldloc.0				; tmpWDDataException$11828
	ldc.i.1		1		; i32 0x1
	stfld		?ErrorCode2@WDDatasException@WDDatas@@3HA
; Line 638
	ldloc.0				; tmpWDDataException$11828
	throw.u2	
$LN1@setType:
; Line 642
	ldarg.0				; this$
	ldarg.1				; inData$
	stfld		?Type@WDWord@WDDatas@@3HA
; Line 643
	ret		
 .end ?setType@WDWord@WDDatas@@$$FQ$AAMXH@Z		; WDDatas::WDWord::setType
;	.proc.end.void
.global	
	.bss
.local	$T12265,0
.local	$StringLiteralTok$??_C@_1CA@PDKIJOOO@0?G0?$PM0?$LP0n0?$LD0?T0?$PM0kY1eW0W0?$HO0W0_0?$AC?$AA?$AA@,4
.local	$TypeTok$110DD6FC$,4
.local	$StringLiteralTok$??_C@_1CA@DCBKAEPK@0?$LD0?T0?$PMQH0?G0?$PM0?$LP?$JFw0Lw?m0Y0N0?$HO0Y0?$AC?$AA?$AA@,4
.local	,4
; Function compile flags: /Ogtp
	.text
	.comdat	noduplicate, ?getData@WDWord@WDDatas@@$$FA$AAMP$01AEP$01AE@Z
.global	?getData@WDWord@WDDatas@@$$FA$AAMP$01AEP$01AE@Z	; WDDatas::WDWord::getData
?getData@WDWord@WDDatas@@$$FA$AAMP$01AEP$01AE@Z:	; WDDatas::WDWord::getData
;	.proc.def	D:P(P)

; Function Header:
; max stack depth = 4
; function size = 380 bytes
; local varsig tk = 0x11000014 
; Exception Information:
; 1 handlers, each consisting of filtered handlers

;	.formal.mptr 0,"this$" SIG: Optional C Binding Modifier(token:0x44D869).class (token:0x44D86B)
;	.formal.mptr 1,"inData$" SIG: szarray (token:0x44B96D)
;	.local.mptr 2,"tmpWDDataException$11978" SIG: class (token:0x44C131)
;	.local.mptr 5,"exp$11977" SIG: class (token:0x44C0A5)
;	.local.i4 3,"i$11922" SIG: i4
;	.local.i4 1,"tmpPos$" SIG: i4
;	.local.mptr 4,"tmpWDDataException$11841" SIG: class (token:0x44C131)
;	.local.mptr 0,"rtData$" SIG: szarray (token:0x44B96D)

;	.proc.beg
; Line 651
	ldnull		0		; i32 0x0
	stloc.0				; rtData$
; Line 657
	ldarg.1				; inData$
	brfalse.s	$LN9@getData
	ldarg.1				; inData$
	ldlen		
	ldc.i4		314		; i32 0x13a
	bge.s		$LN9@getData
; Line 660
	ldstr		$StringLiteralTok$??_C@_1CA@DCBKAEPK@0?$LD0?T0?$PMQH0?G0?$PM0?$LP?$JFw0Lw?m0Y0N0?$HO0Y0?$AC?$AA?$AA@
	newobj		??0WDDatasException@WDDatas@@$$FQ$AAM@P$AAVString@System@@@Z
	stloc.s		4		; tmpWDDataException$11841
; Line 661
	ldloc.s		4		; tmpWDDataException$11841
	ldc.i4		10117		; i32 0x2785
	stfld		?ErrorCode@WDDatasException@WDDatas@@3HA
; Line 662
	ldloc.s		4		; tmpWDDataException$11841
	ldc.i.1		1		; i32 0x1
	stfld		?ErrorCode2@WDDatasException@WDDatas@@3HA
; Line 663
	ldloc.s		4		; tmpWDDataException$11841
	throw.u2	
$LN9@getData:
	nop		
$LN22@getData:
; Line 669
	ldarg.1				; inData$
	brtrue.s	$LN7@getData
; Line 671
	ldc.i4		400		; i32 0x190
	newarr		$TypeTok$110DD6FC$
	stloc.0				; rtData$
; Line 672
	br.s		$LN6@getData
$LN7@getData:
; Line 673
	ldarg.1				; inData$
	stloc.0				; rtData$
$LN6@getData:
; Line 676
	ldc.i.0		0		; i32 0x0
	stloc.1				; tmpPos$
; Line 678
	ldarg.0				; this$
	ldfld		?Word@WDWord@WDDatas@@3P$AAVString@System@@$AA
	ldloc.0				; rtData$
	ldc.i.0		0		; i32 0x0
	ldc.i4.s	100		; i32 0x64
	call		?StringToArray@FJIFuncs@FJIsam@@$$FSMP$01AEP$AAVString@System@@P$01AEHH@Z
	pop		
; Line 679
	ldc.i4.s	100		; i32 0x64
	stloc.1				; tmpPos$
; Line 681
	ldarg.0				; this$
	ldfld		?Read1@WDWord@WDDatas@@3P$AAVString@System@@$AA
	ldloc.0				; rtData$
	ldc.i4.s	100		; i32 0x64
	ldc.i4.s	100		; i32 0x64
	call		?StringToArray@FJIFuncs@FJIsam@@$$FSMP$01AEP$AAVString@System@@P$01AEHH@Z
	pop		
; Line 682
	ldc.i4		200		; i32 0xc8
	stloc.1				; tmpPos$
; Line 684
	ldarg.0				; this$
	ldfld		?Read2@WDWord@WDDatas@@3P$AAVString@System@@$AA
	ldloc.0				; rtData$
	ldc.i4		200		; i32 0xc8
	ldc.i4.s	100		; i32 0x64
	call		?StringToArray@FJIFuncs@FJIsam@@$$FSMP$01AEP$AAVString@System@@P$01AEHH@Z
	pop		
; Line 685
	ldc.i4		300		; i32 0x12c
	stloc.1				; tmpPos$
; Line 687
	ldarg.0				; this$
	ldfld		?WordID@WDWord@WDDatas@@3HA
	ldloc.0				; rtData$
	ldc.i4		300		; i32 0x12c
	call		?Int32ToArray@FJIFuncs@FJIsam@@$$FSMP$01AEHP$01AEH@Z
	pop		
; Line 688
	ldc.i4		304		; i32 0x130
	stloc.1				; tmpPos$
; Line 691
	ldloc.0				; rtData$
	ldc.i4		304		; i32 0x130
	ldarg.0				; this$
	ldfld		?ReadPattern@WDWord@WDDatas@@3EA
	stelem.i1	
; Line 692
	ldc.i4		305		; i32 0x131
	stloc.1				; tmpPos$
; Line 695
	ldarg.0				; this$
	ldfld		?BaseFlg@WDWord@WDDatas@@3_NA
	ldc.i.1		1		; u8 0x1
	bne.un.s	$LN5@getData
; Line 697
	ldloc.0				; rtData$
	ldc.i4		305		; i32 0x131
	ldc.i.0		0		; u8 0x0
	stelem.i1	
; Line 698
	br.s		$LN4@getData
$LN5@getData:
; Line 699
	ldloc.0				; rtData$
	ldc.i4		305		; i32 0x131
	ldc.i.1		1		; u8 0x1
	stelem.i1	
$LN4@getData:
; Line 701
	ldc.i4		306		; i32 0x132
	stloc.1				; tmpPos$
; Line 704
	ldloc.0				; rtData$
	ldc.i4		306		; i32 0x132
	ldarg.0				; this$
	ldfld		?Practical@WDWord@WDDatas@@3EA
	stelem.i1	
; Line 705
	ldc.i4		307		; i32 0x133
	stloc.1				; tmpPos$
; Line 707
	ldloc.0				; rtData$
	ldc.i4		307		; i32 0x133
	ldarg.0				; this$
	ldfld		?Plurality@WDWord@WDDatas@@3EA
	stelem.i1	
; Line 708
	ldc.i4		308		; i32 0x134
	stloc.1				; tmpPos$
; Line 710
	ldloc.0				; rtData$
	ldc.i4		308		; i32 0x134
	ldarg.0				; this$
	ldfld		?Gramatical@WDWord@WDDatas@@3EA
	stelem.i1	
; Line 711
	ldc.i4		309		; i32 0x135
	stloc.1				; tmpPos$
; Line 713
	ldloc.0				; rtData$
	ldc.i4		309		; i32 0x135
	ldarg.0				; this$
	ldfld		?Sex@WDWord@WDDatas@@3EA
	stelem.i1	
; Line 714
	ldc.i4		310		; i32 0x136
	stloc.1				; tmpPos$
; Line 716
	ldarg.0				; this$
	ldfld		?Type@WDWord@WDDatas@@3HA
	ldloc.0				; rtData$
	ldc.i4		310		; i32 0x136
	call		?Int32ToArray@FJIFuncs@FJIsam@@$$FSMP$01AEHP$01AEH@Z
	pop		
; Line 717
	ldc.i4		314		; i32 0x13a
	stloc.1				; tmpPos$
; Line 720
	ldc.i.0		0		; i32 0x0
	stloc.3				; i$11922
$LL3@getData:
	ldloc.3				; i$11922
	ldc.i4.s	86		; i32 0x56
	bge.s		$LN1@getData
; Line 722
	ldloc.0				; rtData$
	ldloc.1				; tmpPos$
	ldc.i.0		0		; u8 0x0
	call		?SetByte@Buffer@System@@$$FSMXP$AAVArray@2@HE@Z
; Line 723
	ldloc.1				; tmpPos$
	ldc.i.1		1		; i32 0x1
	add		
	stloc.1				; tmpPos$
; Line 720
	ldloc.3				; i$11922
	ldc.i.1		1		; i32 0x1
	add		
	stloc.3				; i$11922
	br.s		$LL3@getData
$LN1@getData:
; Line 724
	leave.s		$LN12@getData
__catch$?getData@WDWord@WDDatas@@$$FA$AAMP$01AEP$01AE@Z$0:
; Line 726
	imp.push	
	stloc.s		5		; exp$11977
; Line 728
	ldstr		$StringLiteralTok$??_C@_1CA@PDKIJOOO@0?G0?$PM0?$LP0n0?$LD0?T0?$PM0kY1eW0W0?$HO0W0_0?$AC?$AA?$AA@
	ldloc.s		5		; exp$11977
	newobj		??0WDDatasException@WDDatas@@$$FQ$AAM@P$AAVString@System@@P$AAVException@3@@Z
	stloc.2				; tmpWDDataException$11978
; Line 729
	ldloc.2				; tmpWDDataException$11978
	ldc.i4		10117		; i32 0x2785
	stfld		?ErrorCode@WDDatasException@WDDatas@@3HA
; Line 730
	ldloc.2				; tmpWDDataException$11978
	ldc.i.2		2		; i32 0x2
	stfld		?ErrorCode2@WDDatasException@WDDatas@@3HA
; Line 731
	ldloc.2				; tmpWDDataException$11978
	throw.u2	
$LN17@getData:
	leave.s		$LN12@getData
$LN12@getData:
; Line 735
	ldloc.0				; rtData$
	ret		
 .end ?getData@WDWord@WDDatas@@$$FA$AAMP$01AEP$01AE@Z	; WDDatas::WDWord::getData
;	.proc.end.mptr
	.bss
.local	$T12281,0
.local	$StringLiteralTok$??_C@_1BO@BMAIFGGH@0?G0?$PM0?$LP0n?$IK?9?$FL?$JK0kY1eW0W0?$HO0W0_0?$AC?$AA?$AA@,4
.local	$StringLiteralTok$??_C@_1CG@BHOEGJEO@0?$LD0?T0?$PMQC0?G0?$PM0?$LP?$JFw0Lkc0W0O0B0?$IK0?$HO0?$FL0?$JD0?$AC?$AA?$AA@,4
.local	$StringLiteralTok$??_C@_1BO@MACLDLLC@0?$LD0?T0?$PMQC0?G0?$PM0?$LP0Lg?$CK?$IK?9?$FL?$JK0g0Y0?$AC?$AA?$AA@,4
; Function compile flags: /Ogtp
	.text
	.comdat	noduplicate, ?setData@WDWord@WDDatas@@$$FA$AAMXP$01AE@Z
.global	?setData@WDWord@WDDatas@@$$FA$AAMXP$01AE@Z	; WDDatas::WDWord::setData
?setData@WDWord@WDDatas@@$$FA$AAMXP$01AE@Z:		; WDDatas::WDWord::setData
;	.proc.def	D:V(P)

; Function Header:
; max stack depth = 4
; function size = 393 bytes
; local varsig tk = 0x11000015 
; Exception Information:
; 1 handlers, each consisting of filtered handlers

;	.formal.mptr 0,"this$" SIG: Optional C Binding Modifier(token:0x44D869).class (token:0x44D86B)
;	.formal.mptr 1,"inData$" SIG: szarray (token:0x44B96D)
;	.local.mptr 1,"tmpWDDataException$12005" SIG: class (token:0x44C131)
;	.local.mptr 4,"exp$12004" SIG: class (token:0x44C0A5)
;	.local.i4 0,"tmpPos$" SIG: i4
;	.local.mptr 2,"tmpWDDataException$11992" SIG: class (token:0x44C131)
;	.local.mptr 3,"tmpWDDataException$11988" SIG: class (token:0x44C131)

;	.proc.beg
; Line 744
	ldarg.1				; inData$
	brtrue.s	$LN8@setData
; Line 747
	ldstr		$StringLiteralTok$??_C@_1BO@MACLDLLC@0?$LD0?T0?$PMQC0?G0?$PM0?$LP0Lg?$CK?$IK?9?$FL?$JK0g0Y0?$AC?$AA?$AA@
	newobj		??0WDDatasException@WDDatas@@$$FQ$AAM@P$AAVString@System@@@Z
	stloc.3				; tmpWDDataException$11988
; Line 748
	ldloc.3				; tmpWDDataException$11988
	ldc.i4		10118		; i32 0x2786
	stfld		?ErrorCode@WDDatasException@WDDatas@@3HA
; Line 749
	ldloc.3				; tmpWDDataException$11988
	ldc.i.1		1		; i32 0x1
	stfld		?ErrorCode2@WDDatasException@WDDatas@@3HA
; Line 750
	ldloc.3				; tmpWDDataException$11988
	throw.u2	
$LN8@setData:
; Line 752
	ldarg.1				; inData$
	ldlen		
	ldc.i4		400		; i32 0x190
	beq.s		$LN7@setData
; Line 755
	ldstr		$StringLiteralTok$??_C@_1CG@BHOEGJEO@0?$LD0?T0?$PMQC0?G0?$PM0?$LP?$JFw0Lkc0W0O0B0?$IK0?$HO0?$FL0?$JD0?$AC?$AA?$AA@
	newobj		??0WDDatasException@WDDatas@@$$FQ$AAM@P$AAVString@System@@@Z
	stloc.2				; tmpWDDataException$11992
; Line 756
	ldloc.2				; tmpWDDataException$11992
	ldc.i4		10118		; i32 0x2786
	stfld		?ErrorCode@WDDatasException@WDDatas@@3HA
; Line 757
	ldloc.2				; tmpWDDataException$11992
	ldc.i.2		2		; i32 0x2
	stfld		?ErrorCode2@WDDatasException@WDDatas@@3HA
; Line 758
	ldloc.2				; tmpWDDataException$11992
	throw.u2	
$LN7@setData:
	nop		
$LN20@setData:
; Line 764
	ldc.i.0		0		; i32 0x0
	stloc.0				; tmpPos$
; Line 766
	ldarg.0				; this$
	ldfld		?Word@WDWord@WDDatas@@3P$AAVString@System@@$AA
	ldnull		0		; i32 0x0
	call		??9String@System@@$$FSM_NP$AAV01@0@Z
	pop		
; Line 767
	ldarg.0				; this$
	ldarg.1				; inData$
	ldc.i.0		0		; i32 0x0
	ldc.i4.s	100		; i32 0x64
	call		?ArrayToString@FJIFuncs@FJIsam@@$$FSMP$AAVString@System@@P$01AEHH@Z
	stfld		?Word@WDWord@WDDatas@@3P$AAVString@System@@$AA
; Line 768
	ldc.i4.s	100		; i32 0x64
	stloc.0				; tmpPos$
; Line 770
	ldarg.0				; this$
	ldfld		?Read1@WDWord@WDDatas@@3P$AAVString@System@@$AA
	ldnull		0		; i32 0x0
	call		??9String@System@@$$FSM_NP$AAV01@0@Z
	pop		
; Line 771
	ldarg.0				; this$
	ldarg.1				; inData$
	ldc.i4.s	100		; i32 0x64
	ldc.i4.s	100		; i32 0x64
	call		?ArrayToString@FJIFuncs@FJIsam@@$$FSMP$AAVString@System@@P$01AEHH@Z
	stfld		?Read1@WDWord@WDDatas@@3P$AAVString@System@@$AA
; Line 772
	ldc.i4		200		; i32 0xc8
	stloc.0				; tmpPos$
; Line 774
	ldarg.0				; this$
	ldfld		?Read2@WDWord@WDDatas@@3P$AAVString@System@@$AA
	ldnull		0		; i32 0x0
	call		??9String@System@@$$FSM_NP$AAV01@0@Z
	pop		
; Line 775
	ldarg.0				; this$
	ldarg.1				; inData$
	ldc.i4		200		; i32 0xc8
	ldc.i4.s	100		; i32 0x64
	call		?ArrayToString@FJIFuncs@FJIsam@@$$FSMP$AAVString@System@@P$01AEHH@Z
	stfld		?Read2@WDWord@WDDatas@@3P$AAVString@System@@$AA
; Line 776
	ldc.i4		300		; i32 0x12c
	stloc.0				; tmpPos$
; Line 778
	ldarg.0				; this$
	ldarg.1				; inData$
	ldc.i4		300		; i32 0x12c
	call		?ArrayToInt32@FJIFuncs@FJIsam@@$$FSMHP$01AEH@Z
	stfld		?WordID@WDWord@WDDatas@@3HA
; Line 779
	ldc.i4		304		; i32 0x130
	stloc.0				; tmpPos$
; Line 782
	ldarg.0				; this$
	ldarg.1				; inData$
	ldc.i4		304		; i32 0x130
	ldelem.u1	
	stfld		?ReadPattern@WDWord@WDDatas@@3EA
; Line 783
	ldc.i4		305		; i32 0x131
	stloc.0				; tmpPos$
; Line 786
	ldarg.1				; inData$
	ldc.i4		305		; i32 0x131
	ldelem.u1	
	brtrue.s	$LN2@setData
; Line 788
	ldarg.0				; this$
	ldc.i.1		1		; u8 0x1
	stfld		?BaseFlg@WDWord@WDDatas@@3_NA
; Line 789
	br.s		$LN1@setData
$LN2@setData:
; Line 790
	ldarg.0				; this$
	ldc.i.0		0		; u8 0x0
	stfld		?BaseFlg@WDWord@WDDatas@@3_NA
$LN1@setData:
; Line 792
	ldc.i4		306		; i32 0x132
	stloc.0				; tmpPos$
; Line 794
	ldarg.0				; this$
	ldarg.1				; inData$
	ldc.i4		306		; i32 0x132
	ldelem.u1	
	stfld		?Practical@WDWord@WDDatas@@3EA
; Line 795
	ldc.i4		307		; i32 0x133
	stloc.0				; tmpPos$
; Line 797
	ldarg.0				; this$
	ldarg.1				; inData$
	ldc.i4		307		; i32 0x133
	ldelem.u1	
	stfld		?Plurality@WDWord@WDDatas@@3EA
; Line 798
	ldc.i4		308		; i32 0x134
	stloc.0				; tmpPos$
; Line 800
	ldarg.0				; this$
	ldarg.1				; inData$
	ldc.i4		308		; i32 0x134
	ldelem.u1	
	stfld		?Gramatical@WDWord@WDDatas@@3EA
; Line 801
	ldc.i4		309		; i32 0x135
	stloc.0				; tmpPos$
; Line 803
	ldarg.0				; this$
	ldarg.1				; inData$
	ldc.i4		309		; i32 0x135
	ldelem.u1	
	stfld		?Sex@WDWord@WDDatas@@3EA
; Line 804
	ldc.i4		310		; i32 0x136
	stloc.0				; tmpPos$
; Line 806
	ldarg.0				; this$
	ldarg.1				; inData$
	ldc.i4		310		; i32 0x136
	call		?ArrayToInt32@FJIFuncs@FJIsam@@$$FSMHP$01AEH@Z
	stfld		?Type@WDWord@WDDatas@@3HA
; Line 807
	ldc.i4		314		; i32 0x13a
	stloc.0				; tmpPos$
	leave.s		$LN11@setData
__catch$?setData@WDWord@WDDatas@@$$FA$AAMXP$01AE@Z$0:
; Line 809
	imp.push	
	stloc.s		4		; exp$12004
; Line 811
	ldstr		$StringLiteralTok$??_C@_1BO@BMAIFGGH@0?G0?$PM0?$LP0n?$IK?9?$FL?$JK0kY1eW0W0?$HO0W0_0?$AC?$AA?$AA@
	ldloc.s		4		; exp$12004
	newobj		??0WDDatasException@WDDatas@@$$FQ$AAM@P$AAVString@System@@P$AAVException@3@@Z
	stloc.1				; tmpWDDataException$12005
; Line 812
	ldloc.1				; tmpWDDataException$12005
	ldc.i4		10118		; i32 0x2786
	stfld		?ErrorCode@WDDatasException@WDDatas@@3HA
; Line 813
	ldloc.1				; tmpWDDataException$12005
	ldc.i.3		3		; i32 0x3
	stfld		?ErrorCode2@WDDatasException@WDDatas@@3HA
; Line 814
	ldloc.1				; tmpWDDataException$12005
	throw.u2	
$LN16@setData:
	leave.s		$LN11@setData
$LN11@setData:
$LN19@setData:
; Line 816
	ret		
 .end ?setData@WDWord@WDDatas@@$$FA$AAMXP$01AE@Z	; WDDatas::WDWord::setData
;	.proc.end.void
; Function compile flags: /Ogtp
	.text
	.comdat	any, ?<Dispose>@WDRec@WDDatas@@$$FU$AAMXXZ
.global	?<Dispose>@WDRec@WDDatas@@$$FU$AAMXXZ		; WDDatas::WDRec::<Dispose>
?<Dispose>@WDRec@WDDatas@@$$FU$AAMXXZ:			; WDDatas::WDRec::<Dispose>
;	.proc.def	D:V()

; Function Header:
; max stack depth = 2
; function size = 14 bytes
; local varsig tk = 0x0 
; Exception Information:
; 0 handlers, each consisting of filtered handlers

;	.formal.mptr 0,"this$" SIG: Optional C Binding Modifier(token:0x44DBB1).class (token:0x44DBB3)

;	.proc.beg
	ldarg.0				; this$
	ldc.i.1		1		; u8 0x1
	callvirt	?<Dispose>@WDRec@WDDatas@@$$FM$AAMX_N@Z
	ldarg.0				; this$
	call		?SuppressFinalize@GC@System@@$$FSMXP$AAVObject@2@@Z
	ret		
 .end ?<Dispose>@WDRec@WDDatas@@$$FU$AAMXXZ		; WDDatas::WDRec::<Dispose>
;	.proc.end.void
; Function compile flags: /Ogtp
	.text
	.comdat	any, ?<Dispose>@WDWord@WDDatas@@$$FM$AAMX_N@Z
.global	?<Dispose>@WDWord@WDDatas@@$$FM$AAMX_N@Z	; WDDatas::WDWord::<Dispose>
?<Dispose>@WDWord@WDDatas@@$$FM$AAMX_N@Z:		; WDDatas::WDWord::<Dispose>
;	.proc.def	D:V(I)

; Function Header:
; max stack depth = 2
; function size = 27 bytes
; local varsig tk = 0x0 
; Exception Information:
; 1 handlers, each consisting of filtered handlers

;	.formal.mptr 0,"this$" SIG: Optional C Binding Modifier(token:0x44D869).class (token:0x44D86B)
;	.formal.u1 1,"disposing$" SIG: bool

;	.proc.beg
	ldarg.1				; disposing$
	brfalse.s	$LN3@
$LN13@:
	ldarg.0				; this$
	call		??1WDWord@WDDatas@@$$FA$AAM@XZ
$LN2@:
	leave.s		$LN12@
$LN7@:
	ldarg.0				; this$
	ldc.i.1		1		; u8 0x1
	call		?<Dispose>@WDRec@WDDatas@@$$FM$AAMX_N@Z
$LN9@:
	endfinally	
$LN3@:
	ldarg.0				; this$
	ldc.i.0		0		; u8 0x0
	call		?<Dispose>@WDRec@WDDatas@@$$FM$AAMX_N@Z
$LN12@:
	ret		
 .end ?<Dispose>@WDWord@WDDatas@@$$FM$AAMX_N@Z		; WDDatas::WDWord::<Dispose>
;	.proc.end.void
.global	
	.bss
.local	$T12318,0
.local	$StringLiteralTok$??_C@_1CM@IBIPDKIN@0?G0?$PM0?$LP0?l0?$LD0?$PM0?IS?V_?$JH0g0?$KI0?i0?$PM0Lvzu?$BP0W0?$HO0W0_0?$AC?$AA?$AA@,4
.local	,4
; Function compile flags: /Ogtp
	.text
	.comdat	noduplicate, ?getRecord@WDWord@WDDatas@@$$FU$AAMP$AAVDataRecord@FJIsam@@XZ
.global	?getRecord@WDWord@WDDatas@@$$FU$AAMP$AAVDataRecord@FJIsam@@XZ ; WDDatas::WDWord::getRecord
?getRecord@WDWord@WDDatas@@$$FU$AAMP$AAVDataRecord@FJIsam@@XZ: ; WDDatas::WDWord::getRecord
;	.proc.def	D:P()

; Function Header:
; max stack depth = 4
; function size = 151 bytes
; local varsig tk = 0x11000017 
; Exception Information:
; 2 handlers, each consisting of filtered handlers

;	.formal.mptr 0,"this$" SIG: Optional C Binding Modifier(token:0x44D869).class (token:0x44D86B)
;	.local.mptr 1,"tmpWDDataException$11315" SIG: class (token:0x44C131)
;	.local.mptr 4,"exp$11314" SIG: class (token:0x44C0A5)
;	.local.mptr 2,"tmpWDDataException$11309" SIG: class (token:0x44C131)
;	.local.mptr 5,"exp$11308" SIG: class (token:0x44C0A5)
;	.local.mptr 3,"tmpDat$" SIG: szarray (token:0x44B96D)
;	.local.mptr 0,"tmpRec$" SIG: class (token:0x44C1C5)

;	.proc.beg
; Line 90
	ldnull		0		; i32 0x0
	stloc.0				; tmpRec$
; Line 94
	ldarg.0				; this$
	call		?getRecord@WDRec@WDDatas@@$$FU$AAMP$AAVDataRecord@FJIsam@@XZ
	brtrue.s	$LN4@getRecord
$LN23@getRecord:
; Line 98
	ldarg.0				; this$
	ldnull		0		; i32 0x0
	call		?getData@WDWord@WDDatas@@$$FA$AAMP$01AEP$01AE@Z
	stloc.3				; tmpDat$
; Line 99
	newobj		??0DataRecord@FJIsam@@$$FQ$AAM@XZ
	stloc.0				; tmpRec$
; Line 100
	ldloc.0				; tmpRec$
	ldloc.3				; tmpDat$
	ldc.i4		400		; i32 0x190
	call		?setData@DataRecord@FJIsam@@$$FQ$AAMXP$01AEH@Z
; Line 101
	ldarg.0				; this$
	ldloc.0				; tmpRec$
	call		?setRecord@WDRec@WDDatas@@$$FU$AAMXP$AAVDataRecord@FJIsam@@@Z
	leave.s		$LN9@getRecord
__catch$?getRecord@WDWord@WDDatas@@$$FU$AAMP$AAVDataRecord@FJIsam@@XZ$0:
; Line 102
	imp.push	
	stloc.s		5		; exp$11308
; Line 104
	ldstr		$StringLiteralTok$??_C@_1CM@IBIPDKIN@0?G0?$PM0?$LP0?l0?$LD0?$PM0?IS?V_?$JH0g0?$KI0?i0?$PM0Lvzu?$BP0W0?$HO0W0_0?$AC?$AA?$AA@
	ldloc.s		5		; exp$11308
	newobj		??0WDDatasException@WDDatas@@$$FQ$AAM@P$AAVString@System@@P$AAVException@3@@Z
	stloc.2				; tmpWDDataException$11309
; Line 105
	ldloc.2				; tmpWDDataException$11309
	ldc.i4		10102		; i32 0x2776
	stfld		?ErrorCode@WDDatasException@WDDatas@@3HA
; Line 106
	ldloc.2				; tmpWDDataException$11309
	ldc.i.1		1		; i32 0x1
	stfld		?ErrorCode2@WDDatasException@WDDatas@@3HA
; Line 107
	ldloc.2				; tmpWDDataException$11309
	throw.u2	
$LN14@getRecord:
	leave.s		$LN9@getRecord
$LN4@getRecord:
	nop		
$LN24@getRecord:
; Line 112
	ldarg.0				; this$
	ldnull		0		; i32 0x0
	call		?getData@WDWord@WDDatas@@$$FA$AAMP$01AEP$01AE@Z
	stloc.3				; tmpDat$
; Line 113
	ldarg.0				; this$
	call		?getRecord@WDRec@WDDatas@@$$FU$AAMP$AAVDataRecord@FJIsam@@XZ
	stloc.0				; tmpRec$
; Line 114
	ldloc.0				; tmpRec$
	ldloc.3				; tmpDat$
	ldc.i4		400		; i32 0x190
	call		?setData@DataRecord@FJIsam@@$$FQ$AAMXP$01AEH@Z
	leave.s		$LN9@getRecord
__catch$?getRecord@WDWord@WDDatas@@$$FU$AAMP$AAVDataRecord@FJIsam@@XZ$2:
; Line 115
	imp.push	
	stloc.s		4		; exp$11314
; Line 117
	ldstr		$StringLiteralTok$??_C@_1CM@IBIPDKIN@0?G0?$PM0?$LP0?l0?$LD0?$PM0?IS?V_?$JH0g0?$KI0?i0?$PM0Lvzu?$BP0W0?$HO0W0_0?$AC?$AA?$AA@
	ldloc.s		4		; exp$11314
	newobj		??0WDDatasException@WDDatas@@$$FQ$AAM@P$AAVString@System@@P$AAVException@3@@Z
	stloc.1				; tmpWDDataException$11315
; Line 118
	ldloc.1				; tmpWDDataException$11315
	ldc.i4		10102		; i32 0x2776
	stfld		?ErrorCode@WDDatasException@WDDatas@@3HA
; Line 119
	ldloc.1				; tmpWDDataException$11315
	ldc.i.2		2		; i32 0x2
	stfld		?ErrorCode2@WDDatasException@WDDatas@@3HA
; Line 120
	ldloc.1				; tmpWDDataException$11315
	throw.u2	
$LN18@getRecord:
	leave.s		$LN9@getRecord
$LN9@getRecord:
; Line 127
	ldloc.0				; tmpRec$
	ret		
 .end ?getRecord@WDWord@WDDatas@@$$FU$AAMP$AAVDataRecord@FJIsam@@XZ ; WDDatas::WDWord::getRecord
;	.proc.end.mptr
	.bss
.local	$T12342,0
.local	$StringLiteralTok$??_C@_1CM@POGCAHHH@0?G0?$PM0?$LP0?l0?$LD0?$PM0?I?$IK?9?$FL?$JK0g0?$KI0?i0?$PM0Lvzu?$BP0W0?$HO0W0_0?$AC?$AA?$AA@,4
; Function compile flags: /Ogtp
	.text
	.comdat	noduplicate, ?setRecord@WDWord@WDDatas@@$$FU$AAMXP$AAVDataRecord@FJIsam@@@Z
.global	?setRecord@WDWord@WDDatas@@$$FU$AAMXP$AAVDataRecord@FJIsam@@@Z ; WDDatas::WDWord::setRecord
?setRecord@WDWord@WDDatas@@$$FU$AAMXP$AAVDataRecord@FJIsam@@@Z: ; WDDatas::WDWord::setRecord
;	.proc.def	D:V(P)

; Function Header:
; max stack depth = 4
; function size = 112 bytes
; local varsig tk = 0x11000018 
; Exception Information:
; 2 handlers, each consisting of filtered handlers

;	.formal.mptr 0,"this$" SIG: Optional C Binding Modifier(token:0x44D869).class (token:0x44D86B)
;	.formal.mptr 1,"inRec$" SIG: class (token:0x44C1C5)
;	.local.mptr 0,"tmpWDDataException$11333" SIG: class (token:0x44C131)
;	.local.mptr 3,"exp$11332" SIG: class (token:0x44C0A5)
;	.local.mptr 1,"tmpWDDataException$11327" SIG: class (token:0x44C131)
;	.local.mptr 4,"exp$11326" SIG: class (token:0x44C0A5)
;	.local.mptr 2,"tmpDat$11325" SIG: szarray (token:0x44B96D)

;	.proc.beg
; Line 133
	ldarg.1				; inRec$
	brfalse.s	$LN4@setRecord
$LN23@setRecord:
; Line 138
	ldarg.1				; inRec$
	ldnull		0		; i32 0x0
	call		?getData@DataRecord@FJIsam@@$$FQ$AAMP$01AEP$01AE@Z
	stloc.2				; tmpDat$11325
; Line 139
	ldarg.0				; this$
	ldloc.2				; tmpDat$11325
	call		?setData@WDWord@WDDatas@@$$FA$AAMXP$01AE@Z
; Line 140
	ldnull		0		; i32 0x0
	stloc.2				; tmpDat$11325
; Line 141
	ldarg.0				; this$
	ldarg.1				; inRec$
	call		?setRecord@WDRec@WDDatas@@$$FU$AAMXP$AAVDataRecord@FJIsam@@@Z
	leave.s		$LN9@setRecord
__catch$?setRecord@WDWord@WDDatas@@$$FU$AAMXP$AAVDataRecord@FJIsam@@@Z$0:
; Line 142
	imp.push	
	stloc.s		4		; exp$11326
; Line 144
	ldstr		$StringLiteralTok$??_C@_1CM@POGCAHHH@0?G0?$PM0?$LP0?l0?$LD0?$PM0?I?$IK?9?$FL?$JK0g0?$KI0?i0?$PM0Lvzu?$BP0W0?$HO0W0_0?$AC?$AA?$AA@
	ldloc.s		4		; exp$11326
	newobj		??0WDDatasException@WDDatas@@$$FQ$AAM@P$AAVString@System@@P$AAVException@3@@Z
	stloc.1				; tmpWDDataException$11327
; Line 145
	ldloc.1				; tmpWDDataException$11327
	ldc.i4		10103		; i32 0x2777
	stfld		?ErrorCode@WDDatasException@WDDatas@@3HA
; Line 146
	ldloc.1				; tmpWDDataException$11327
	ldc.i.1		1		; i32 0x1
	stfld		?ErrorCode2@WDDatasException@WDDatas@@3HA
; Line 147
	ldloc.1				; tmpWDDataException$11327
	throw.u2	
$LN14@setRecord:
	leave.s		$LN9@setRecord
$LN4@setRecord:
	nop		
$LN24@setRecord:
; Line 152
	ldarg.0				; this$
	ldnull		0		; i32 0x0
	call		?setRecord@WDRec@WDDatas@@$$FU$AAMXP$AAVDataRecord@FJIsam@@@Z
	leave.s		$LN9@setRecord
__catch$?setRecord@WDWord@WDDatas@@$$FU$AAMXP$AAVDataRecord@FJIsam@@@Z$2:
; Line 153
	imp.push	
	stloc.3				; exp$11332
; Line 155
	ldstr		$StringLiteralTok$??_C@_1CM@POGCAHHH@0?G0?$PM0?$LP0?l0?$LD0?$PM0?I?$IK?9?$FL?$JK0g0?$KI0?i0?$PM0Lvzu?$BP0W0?$HO0W0_0?$AC?$AA?$AA@
	ldloc.3				; exp$11332
	newobj		??0WDDatasException@WDDatas@@$$FQ$AAM@P$AAVString@System@@P$AAVException@3@@Z
	stloc.0				; tmpWDDataException$11333
; Line 156
	ldloc.0				; tmpWDDataException$11333
	ldc.i4		10103		; i32 0x2777
	stfld		?ErrorCode@WDDatasException@WDDatas@@3HA
; Line 157
	ldloc.0				; tmpWDDataException$11333
	ldc.i.2		2		; i32 0x2
	stfld		?ErrorCode2@WDDatasException@WDDatas@@3HA
; Line 158
	ldloc.0				; tmpWDDataException$11333
	throw.u2	
$LN18@setRecord:
	leave.s		$LN9@setRecord
$LN9@setRecord:
; Line 161
	ret		
 .end ?setRecord@WDWord@WDDatas@@$$FU$AAMXP$AAVDataRecord@FJIsam@@@Z ; WDDatas::WDWord::setRecord
;	.proc.end.void
.global	
	.bss
.local	$T12367,0
.local	$StringLiteralTok$??_C@_1CG@PFOLFNFI@0?G0?$PM0?$LP0?l0?$LD0?$PM0?I0nf?x?$IP?$LM0kY1eW0W0?$HO0W0_0?$AC?$AA?$AA@,4
.local	$StringLiteralTok$??_C@_1BM@LAKNIOBD@0?l0?$LD0?$PM0?IRJ?$JGd0o0g0M0?$HO0?$FL0?$JD0?$AC?$AA?$AA@,4
.local	$StringLiteralTok$??_C@_1BO@OEMADJDL@?$AAI?$AAS?$AAA?$AAM0?U0?$KB0?$KE0?k0LN?$ANkc0g0Y0?$AC?$AA?$AA@,4
.local	$TypeTok$11280448$,4
.local	,4
; Function compile flags: /Ogtp
	.text
	.comdat	noduplicate, ?Write@WDWord@WDDatas@@$$FU$AAMXXZ
.global	?Write@WDWord@WDDatas@@$$FU$AAMXXZ		; WDDatas::WDWord::Write
?Write@WDWord@WDDatas@@$$FU$AAMXXZ:			; WDDatas::WDWord::Write
;	.proc.def	D:V()

; Function Header:
; max stack depth = 4
; function size = 204 bytes
; local varsig tk = 0x1100001A 
; Exception Information:
; 2 handlers, each consisting of filtered handlers

;	.formal.mptr 0,"this$" SIG: Optional C Binding Modifier(token:0x44D869).class (token:0x44D86B)
;	.local.mptr 1,"tmpWDDataException$11522" SIG: class (token:0x44C131)
;	.local.mptr 4,"exp$11521" SIG: class (token:0x44C0A5)
;	.local.mptr 2,"tmpWDDataException$11518" SIG: class (token:0x44C131)
;	.local.mptr 3,"tmpWDDataException$11510" SIG: class (token:0x44C131)
;	.local.mptr 5,"exp$11509" SIG: class (token:0x44C0A5)
;	.local.mptr 0,"tmpParent$" SIG: class (token:0x44B035)

;	.proc.beg
; Line 165
	ldnull		0		; i32 0x0
	stloc.0				; tmpParent$
; Line 169
	ldarg.0				; this$
	call		?getRecord@WDRec@WDDatas@@$$FU$AAMP$AAVDataRecord@FJIsam@@XZ
	brfalse		$LN13@Write
$LN27@Write:
; Line 177
	ldarg.0				; this$
	call		?getRecord@WDRec@WDDatas@@$$FU$AAMP$AAVDataRecord@FJIsam@@XZ
	call		?getParentFile@DataRecord@FJIsam@@$$FQ$AAMP$AAVObject@System@@XZ
	castClass	$TypeTok$11280448$
	stloc.0				; tmpParent$
; Line 178
	ldloc.0				; tmpParent$
	brtrue.s	$LN6@Write
; Line 180
	leave		$LN13@Write
$LN6@Write:
	leave.s		$LN11@Write
__catch$?Write@WDWord@WDDatas@@$$FU$AAMXXZ$0:
; Line 182
	imp.push	
	stloc.s		5		; exp$11509
; Line 184
	ldstr		$StringLiteralTok$??_C@_1BO@OEMADJDL@?$AAI?$AAS?$AAA?$AAM0?U0?$KB0?$KE0?k0LN?$ANkc0g0Y0?$AC?$AA?$AA@
	ldloc.s		5		; exp$11509
	newobj		??0WDDatasException@WDDatas@@$$FQ$AAM@P$AAVString@System@@P$AAVException@3@@Z
	stloc.3				; tmpWDDataException$11510
; Line 185
	ldloc.3				; tmpWDDataException$11510
	ldc.i4		10104		; i32 0x2778
	stfld		?ErrorCode@WDDatasException@WDDatas@@3HA
; Line 186
	ldloc.3				; tmpWDDataException$11510
	ldc.i.1		1		; i32 0x1
	stfld		?ErrorCode2@WDDatasException@WDDatas@@3HA
; Line 187
	ldloc.3				; tmpWDDataException$11510
	throw.u2	
$LN18@Write:
	leave.s		$LN11@Write
$LN11@Write:
	nop		
$LN28@Write:
; Line 193
	ldarg.0				; this$
	call		?getRecord@WDRec@WDDatas@@$$FU$AAMP$AAVDataRecord@FJIsam@@XZ
	call		?getRecStat@DataRecord@FJIsam@@$$FQ$AAM?AW4DataRecStat_EN@2@XZ
	brtrue.s	$LN4@Write
; Line 195
	ldloc.0				; tmpParent$
	ldarg.0				; this$
	callvirt	?getRecord@WDWord@WDDatas@@$$FU$AAMP$AAVDataRecord@FJIsam@@XZ
	call		?AddRecord@FIsam@FJIsam@@$$FQ$AAMXP$AAVDataRecord@2@@Z
	br.s		$LN1@Write
$LN4@Write:
; Line 196
	ldarg.0				; this$
	call		?getRecord@WDRec@WDDatas@@$$FU$AAMP$AAVDataRecord@FJIsam@@XZ
	call		?getRecStat@DataRecord@FJIsam@@$$FQ$AAM?AW4DataRecStat_EN@2@XZ
	ldc.i.1		1		; i32 0x1
	bne.un.s	$LN2@Write
; Line 197
	ldloc.0				; tmpParent$
	ldarg.0				; this$
	callvirt	?getRecord@WDWord@WDDatas@@$$FU$AAMP$AAVDataRecord@FJIsam@@XZ
	call		?UpdateRecord@FIsam@FJIsam@@$$FQ$AAMXP$AAVDataRecord@2@@Z
$LN1@Write:
; Line 203
	leave.s		$LN13@Write
$LN2@Write:
; Line 200
	ldstr		$StringLiteralTok$??_C@_1BM@LAKNIOBD@0?l0?$LD0?$PM0?IRJ?$JGd0o0g0M0?$HO0?$FL0?$JD0?$AC?$AA?$AA@
	newobj		??0WDDatasException@WDDatas@@$$FQ$AAM@P$AAVString@System@@@Z
	stloc.2				; tmpWDDataException$11518
; Line 201
	ldloc.2				; tmpWDDataException$11518
	ldc.i4		10104		; i32 0x2778
	stfld		?ErrorCode@WDDatasException@WDDatas@@3HA
; Line 202
	ldloc.2				; tmpWDDataException$11518
	ldc.i.2		2		; i32 0x2
	stfld		?ErrorCode2@WDDatasException@WDDatas@@3HA
; Line 203
	ldloc.2				; tmpWDDataException$11518
	throw.u2	
$LN19@Write:
; Line 205
	leave.s		$LN13@Write
__catch$?Write@WDWord@WDDatas@@$$FU$AAMXXZ$2:
	imp.push	
	stloc.s		4		; exp$11521
; Line 207
	ldstr		$StringLiteralTok$??_C@_1CG@PFOLFNFI@0?G0?$PM0?$LP0?l0?$LD0?$PM0?I0nf?x?$IP?$LM0kY1eW0W0?$HO0W0_0?$AC?$AA?$AA@
	ldloc.s		4		; exp$11521
	newobj		??0WDDatasException@WDDatas@@$$FQ$AAM@P$AAVString@System@@P$AAVException@3@@Z
	stloc.1				; tmpWDDataException$11522
; Line 208
	ldloc.1				; tmpWDDataException$11522
	ldc.i4		10104		; i32 0x2778
	stfld		?ErrorCode@WDDatasException@WDDatas@@3HA
; Line 209
	ldloc.1				; tmpWDDataException$11522
	ldc.i.3		3		; i32 0x3
	stfld		?ErrorCode2@WDDatasException@WDDatas@@3HA
; Line 210
	ldloc.1				; tmpWDDataException$11522
	throw.u2	
$LN22@Write:
	leave.s		$LN13@Write
$LN13@Write:
; Line 212
	ret		
 .end ?Write@WDWord@WDDatas@@$$FU$AAMXXZ		; WDDatas::WDWord::Write
;	.proc.end.void
	.bss
.local	$T12391,0
; Function compile flags: /Ogtp
	.text
	.comdat	noduplicate, ?Delete@WDWord@WDDatas@@$$FU$AAMXXZ
.global	?Delete@WDWord@WDDatas@@$$FU$AAMXXZ		; WDDatas::WDWord::Delete
?Delete@WDWord@WDDatas@@$$FU$AAMXXZ:			; WDDatas::WDWord::Delete
;	.proc.def	D:V()

; Function Header:
; max stack depth = 4
; function size = 529 bytes
; local varsig tk = 0x1100001B 
; Exception Information:
; 2 handlers, each consisting of filtered handlers

;	.formal.mptr 0,"this$" SIG: Optional C Binding Modifier(token:0x44D869).class (token:0x44D86B)
;	.local.mptr 0,"tmpWDDataException$11558" SIG: class (token:0x44C131)
;	.local.mptr 4,"exp$11557" SIG: class (token:0x44C0A5)
;	.local.mptr 1,"tmpWDDataException$11555" SIG: class (token:0x44C131)
;	.local.mptr 2,"tmpWDDataException$11548" SIG: class (token:0x44C131)
;	.local.mptr 5,"exp$11547" SIG: class (token:0x44C0A5)
;	.local.mptr 3,"tmpParent$" SIG: class (token:0x44B035)

;	.proc.beg
; Line 216
	ldnull		0		; i32 0x0
	stloc.3				; tmpParent$
; Line 220
	ldarg.0				; this$
	call		?getRecord@WDRec@WDDatas@@$$FU$AAMP$AAVDataRecord@FJIsam@@XZ
	brtrue.s	$LN17@Delete
; Line 223
	ldarg.0				; this$
	ldfld		?Word@WDWord@WDDatas@@3P$AAVString@System@@$AA
	ldnull		0		; i32 0x0
	call		??9String@System@@$$FSM_NP$AAV01@0@Z
	brfalse.s	$LN16@Delete
; Line 226
	ldarg.0				; this$
	ldnull		0		; i32 0x0
	stfld		?Word@WDWord@WDDatas@@3P$AAVString@System@@$AA
$LN16@Delete:
; Line 228
	ldarg.0				; this$
	ldfld		?Read1@WDWord@WDDatas@@3P$AAVString@System@@$AA
	ldnull		0		; i32 0x0
	call		??9String@System@@$$FSM_NP$AAV01@0@Z
	brfalse.s	$LN15@Delete
; Line 231
	ldarg.0				; this$
	ldnull		0		; i32 0x0
	stfld		?Read1@WDWord@WDDatas@@3P$AAVString@System@@$AA
$LN15@Delete:
; Line 233
	ldarg.0				; this$
	ldfld		?Read2@WDWord@WDDatas@@3P$AAVString@System@@$AA
	ldnull		0		; i32 0x0
	call		??9String@System@@$$FSM_NP$AAV01@0@Z
	brfalse.s	$LN14@Delete
; Line 236
	ldarg.0				; this$
	ldnull		0		; i32 0x0
	stfld		?Read2@WDWord@WDDatas@@3P$AAVString@System@@$AA
$LN14@Delete:
; Line 239
	ldarg.0				; this$
	ldc.i.0		0		; u8 0x0
	stfld		?ReadPattern@WDWord@WDDatas@@3EA
; Line 240
	ldarg.0				; this$
	ldc.i.0		0		; u8 0x0
	stfld		?BaseFlg@WDWord@WDDatas@@3_NA
; Line 241
	ldarg.0				; this$
	ldc.i.0		0		; u8 0x0
	stfld		?Practical@WDWord@WDDatas@@3EA
; Line 242
	ldarg.0				; this$
	ldc.i.0		0		; u8 0x0
	stfld		?Gramatical@WDWord@WDDatas@@3EA
; Line 243
	ldarg.0				; this$
	ldc.i.0		0		; u8 0x0
	stfld		?Plurality@WDWord@WDDatas@@3EA
; Line 244
	ldarg.0				; this$
	ldc.i.0		0		; u8 0x0
	stfld		?Sex@WDWord@WDDatas@@3EA
; Line 245
	ldarg.0				; this$
	ldc.i.0		0		; i32 0x0
	stfld		?Type@WDWord@WDDatas@@3HA
; Line 247
	br		$LN18@Delete
$LN17@Delete:
	nop		
$LN36@Delete:
; Line 253
	ldarg.0				; this$
	call		?getRecord@WDRec@WDDatas@@$$FU$AAMP$AAVDataRecord@FJIsam@@XZ
	call		?getParentFile@DataRecord@FJIsam@@$$FQ$AAMP$AAVObject@System@@XZ
	castClass	$TypeTok$11280448$
	stloc.3				; tmpParent$
; Line 254
	ldloc.3				; tmpParent$
	brtrue.s	$LN12@Delete
; Line 257
	ldarg.0				; this$
	ldfld		?Word@WDWord@WDDatas@@3P$AAVString@System@@$AA
	ldnull		0		; i32 0x0
	call		??9String@System@@$$FSM_NP$AAV01@0@Z
	brfalse.s	$LN11@Delete
; Line 260
	ldarg.0				; this$
	ldnull		0		; i32 0x0
	stfld		?Word@WDWord@WDDatas@@3P$AAVString@System@@$AA
$LN11@Delete:
; Line 262
	ldarg.0				; this$
	ldfld		?Read1@WDWord@WDDatas@@3P$AAVString@System@@$AA
	ldnull		0		; i32 0x0
	call		??9String@System@@$$FSM_NP$AAV01@0@Z
	brfalse.s	$LN10@Delete
; Line 265
	ldarg.0				; this$
	ldnull		0		; i32 0x0
	stfld		?Read1@WDWord@WDDatas@@3P$AAVString@System@@$AA
$LN10@Delete:
; Line 267
	ldarg.0				; this$
	ldfld		?Read2@WDWord@WDDatas@@3P$AAVString@System@@$AA
	ldnull		0		; i32 0x0
	call		??9String@System@@$$FSM_NP$AAV01@0@Z
	brfalse.s	$LN9@Delete
; Line 270
	ldarg.0				; this$
	ldnull		0		; i32 0x0
	stfld		?Read2@WDWord@WDDatas@@3P$AAVString@System@@$AA
$LN9@Delete:
; Line 273
	ldarg.0				; this$
	ldc.i.0		0		; u8 0x0
	stfld		?ReadPattern@WDWord@WDDatas@@3EA
; Line 274
	ldarg.0				; this$
	ldc.i.0		0		; u8 0x0
	stfld		?BaseFlg@WDWord@WDDatas@@3_NA
; Line 275
	ldarg.0				; this$
	ldc.i.0		0		; u8 0x0
	stfld		?Practical@WDWord@WDDatas@@3EA
; Line 276
	ldarg.0				; this$
	ldc.i.0		0		; u8 0x0
	stfld		?Gramatical@WDWord@WDDatas@@3EA
; Line 277
	ldarg.0				; this$
	ldc.i.0		0		; u8 0x0
	stfld		?Plurality@WDWord@WDDatas@@3EA
; Line 278
	ldarg.0				; this$
	ldc.i.0		0		; u8 0x0
	stfld		?Sex@WDWord@WDDatas@@3EA
; Line 279
	ldarg.0				; this$
	ldc.i.0		0		; i32 0x0
	stfld		?Type@WDWord@WDDatas@@3HA
; Line 281
	leave		$LN18@Delete
$LN12@Delete:
	leave.s		$LN20@Delete
__catch$?Delete@WDWord@WDDatas@@$$FU$AAMXXZ$0:
; Line 283
	imp.push	
	stloc.s		5		; exp$11547
; Line 285
	ldstr		$StringLiteralTok$??_C@_1BO@OEMADJDL@?$AAI?$AAS?$AAA?$AAM0?U0?$KB0?$KE0?k0LN?$ANkc0g0Y0?$AC?$AA?$AA@
	ldloc.s		5		; exp$11547
	newobj		??0WDDatasException@WDDatas@@$$FQ$AAM@P$AAVString@System@@P$AAVException@3@@Z
	stloc.2				; tmpWDDataException$11548
; Line 286
	ldloc.2				; tmpWDDataException$11548
	ldc.i4		10105		; i32 0x2779
	stfld		?ErrorCode@WDDatasException@WDDatas@@3HA
; Line 287
	ldloc.2				; tmpWDDataException$11548
	ldc.i.1		1		; i32 0x1
	stfld		?ErrorCode2@WDDatasException@WDDatas@@3HA
; Line 288
	ldloc.2				; tmpWDDataException$11548
	throw.u2	
$LN27@Delete:
	leave.s		$LN20@Delete
$LN20@Delete:
	nop		
$LN37@Delete:
; Line 294
	ldarg.0				; this$
	call		?getRecord@WDRec@WDDatas@@$$FU$AAMP$AAVDataRecord@FJIsam@@XZ
	call		?getRecStat@DataRecord@FJIsam@@$$FQ$AAM?AW4DataRecStat_EN@2@XZ
	brfalse.s	$LN4@Delete
; Line 297
	ldarg.0				; this$
	call		?getRecord@WDRec@WDDatas@@$$FU$AAMP$AAVDataRecord@FJIsam@@XZ
	call		?getRecStat@DataRecord@FJIsam@@$$FQ$AAM?AW4DataRecStat_EN@2@XZ
	ldc.i.1		1		; i32 0x1
	bne.un.s	$LN5@Delete
; Line 298
	ldloc.3				; tmpParent$
	ldarg.0				; this$
	callvirt	?getRecord@WDWord@WDDatas@@$$FU$AAMP$AAVDataRecord@FJIsam@@XZ
	call		?DeleteRecord@FIsam@FJIsam@@$$FQ$AAMXP$AAVDataRecord@2@@Z
$LN4@Delete:
; Line 304
	leave.s		$LN22@Delete
$LN5@Delete:
; Line 301
	ldstr		$StringLiteralTok$??_C@_1BM@LAKNIOBD@0?l0?$LD0?$PM0?IRJ?$JGd0o0g0M0?$HO0?$FL0?$JD0?$AC?$AA?$AA@
	newobj		??0WDDatasException@WDDatas@@$$FQ$AAM@P$AAVString@System@@@Z
	stloc.1				; tmpWDDataException$11555
; Line 302
	ldloc.1				; tmpWDDataException$11555
	ldc.i4		10105		; i32 0x2779
	stfld		?ErrorCode@WDDatasException@WDDatas@@3HA
; Line 303
	ldloc.1				; tmpWDDataException$11555
	ldc.i.2		2		; i32 0x2
	stfld		?ErrorCode2@WDDatasException@WDDatas@@3HA
; Line 304
	ldloc.1				; tmpWDDataException$11555
	throw.u2	
$LN28@Delete:
; Line 306
	leave.s		$LN22@Delete
__catch$?Delete@WDWord@WDDatas@@$$FU$AAMXXZ$2:
	imp.push	
	stloc.s		4		; exp$11557
; Line 308
	ldstr		$StringLiteralTok$??_C@_1CG@PFOLFNFI@0?G0?$PM0?$LP0?l0?$LD0?$PM0?I0nf?x?$IP?$LM0kY1eW0W0?$HO0W0_0?$AC?$AA?$AA@
	ldloc.s		4		; exp$11557
	newobj		??0WDDatasException@WDDatas@@$$FQ$AAM@P$AAVString@System@@P$AAVException@3@@Z
	stloc.0				; tmpWDDataException$11558
; Line 309
	ldloc.0				; tmpWDDataException$11558
	ldc.i4		10105		; i32 0x2779
	stfld		?ErrorCode@WDDatasException@WDDatas@@3HA
; Line 310
	ldloc.0				; tmpWDDataException$11558
	ldc.i.3		3		; i32 0x3
	stfld		?ErrorCode2@WDDatasException@WDDatas@@3HA
; Line 311
	ldloc.0				; tmpWDDataException$11558
	throw.u2	
$LN31@Delete:
	leave.s		$LN22@Delete
$LN22@Delete:
; Line 315
	ldarg.0				; this$
	ldfld		?Word@WDWord@WDDatas@@3P$AAVString@System@@$AA
	ldnull		0		; i32 0x0
	call		??9String@System@@$$FSM_NP$AAV01@0@Z
	brfalse.s	$LN3@Delete
; Line 318
	ldarg.0				; this$
	ldnull		0		; i32 0x0
	stfld		?Word@WDWord@WDDatas@@3P$AAVString@System@@$AA
$LN3@Delete:
; Line 320
	ldarg.0				; this$
	ldfld		?Read1@WDWord@WDDatas@@3P$AAVString@System@@$AA
	ldnull		0		; i32 0x0
	call		??9String@System@@$$FSM_NP$AAV01@0@Z
	brfalse.s	$LN2@Delete
; Line 323
	ldarg.0				; this$
	ldnull		0		; i32 0x0
	stfld		?Read1@WDWord@WDDatas@@3P$AAVString@System@@$AA
$LN2@Delete:
; Line 325
	ldarg.0				; this$
	ldfld		?Read2@WDWord@WDDatas@@3P$AAVString@System@@$AA
	ldnull		0		; i32 0x0
	call		??9String@System@@$$FSM_NP$AAV01@0@Z
	brfalse.s	$LN1@Delete
; Line 328
	ldarg.0				; this$
	ldnull		0		; i32 0x0
	stfld		?Read2@WDWord@WDDatas@@3P$AAVString@System@@$AA
$LN1@Delete:
; Line 331
	ldarg.0				; this$
	ldc.i.0		0		; u8 0x0
	stfld		?ReadPattern@WDWord@WDDatas@@3EA
; Line 332
	ldarg.0				; this$
	ldc.i.0		0		; u8 0x0
	stfld		?BaseFlg@WDWord@WDDatas@@3_NA
; Line 333
	ldarg.0				; this$
	ldc.i.0		0		; u8 0x0
	stfld		?Practical@WDWord@WDDatas@@3EA
; Line 334
	ldarg.0				; this$
	ldc.i.0		0		; u8 0x0
	stfld		?Gramatical@WDWord@WDDatas@@3EA
; Line 335
	ldarg.0				; this$
	ldc.i.0		0		; u8 0x0
	stfld		?Plurality@WDWord@WDDatas@@3EA
; Line 336
	ldarg.0				; this$
	ldc.i.0		0		; u8 0x0
	stfld		?Sex@WDWord@WDDatas@@3EA
; Line 337
	ldarg.0				; this$
	ldc.i.0		0		; i32 0x0
	stfld		?Type@WDWord@WDDatas@@3HA
$LN18@Delete:
; Line 339
	ret		
 .end ?Delete@WDWord@WDDatas@@$$FU$AAMXXZ		; WDDatas::WDWord::Delete
;	.proc.end.void
	.bss
.local	$T12415,0
.local	$StringLiteralTok$??_C@_1CE@JDMCCNFK@0?G0?$PM0?$LP?$IK?9?$FL?$JK0g0?$KI0?i0?$PM0Lvzu?$BP0W0?$HO0W0_0?$AC?$AA?$AA@,4
.local	$StringLiteralTok$??_C@_1CM@DECDIIJL@0?G0?$PM0?$LP0?l0?$LD0?$PM0?I0LSX?$IK?$JO0?G0?$PM0?$LP0g0o0B0?$IK0?$HO0?$FL0?$JD0?$AC?$AA?$AA@,4
; Function compile flags: /Ogtp
	.text
	.comdat	noduplicate, ??0WDWord@WDDatas@@$$FQ$AAM@P$AAVDataRecord@FJIsam@@@Z
.global	??0WDWord@WDDatas@@$$FQ$AAM@P$AAVDataRecord@FJIsam@@@Z ; WDDatas::WDWord::WDWord
??0WDWord@WDDatas@@$$FQ$AAM@P$AAVDataRecord@FJIsam@@@Z:	; WDDatas::WDWord::WDWord
;	.proc.def	D:V(P)

; Function Header:
; max stack depth = 4
; function size = 162 bytes
; local varsig tk = 0x1100001C 
; Exception Information:
; 2 handlers, each consisting of filtered handlers

;	.formal.mptr 1,"inRec$" SIG: class (token:0x44C1C5)
;	.formal.mptr 0,"this$" SIG: Optional C Binding Modifier(token:0x44D869).class (token:0x44D86B)
;	.local.mptr 0,"tmpWDDataException$11283" SIG: class (token:0x44C131)
;	.local.mptr 2,"exp$11281" SIG: class (token:0x44C0A5)
;	.local.mptr 1,"tmpWDDataException$10748" SIG: class (token:0x44C131)

;	.proc.beg
; Line 38
	ldarg.0				; this$
	call		??0Object@System@@$$FQ$AAM@XZ
$LN18@WDWord@2:
; Line 40
	ldarg.1				; inRec$
	brtrue.s	$LN3@WDWord@2
; Line 43
	ldarg.0				; this$
	ldc.i.0		0		; u8 0x0
	stfld		?ReadPattern@WDWord@WDDatas@@3EA
; Line 44
	ldarg.0				; this$
	ldc.i.0		0		; u8 0x0
	stfld		?BaseFlg@WDWord@WDDatas@@3_NA
; Line 45
	ldarg.0				; this$
	ldc.i.0		0		; u8 0x0
	stfld		?Practical@WDWord@WDDatas@@3EA
; Line 46
	ldarg.0				; this$
	ldc.i.0		0		; u8 0x0
	stfld		?Gramatical@WDWord@WDDatas@@3EA
; Line 47
	ldarg.0				; this$
	ldc.i.0		0		; u8 0x0
	stfld		?Plurality@WDWord@WDDatas@@3EA
; Line 48
	ldarg.0				; this$
	ldc.i.0		0		; u8 0x0
	stfld		?Sex@WDWord@WDDatas@@3EA
; Line 49
	ldarg.0				; this$
	ldc.i.0		0		; i32 0x0
	stfld		?Type@WDWord@WDDatas@@3HA
; Line 50
	br.s		$LN6@WDWord@2
$LN3@WDWord@2:
; Line 54
	ldarg.1				; inRec$
	call		?getDataLength@DataRecord@FJIsam@@$$FQ$AAMHXZ
	ldc.i4		400		; i32 0x190
	bne.un.s	$LN22@WDWord@2
	leave.s		$LN2@WDWord@2
$LN22@WDWord@2:
; Line 57
	ldstr		$StringLiteralTok$??_C@_1CM@DECDIIJL@0?G0?$PM0?$LP0?l0?$LD0?$PM0?I0LSX?$IK?$JO0?G0?$PM0?$LP0g0o0B0?$IK0?$HO0?$FL0?$JD0?$AC?$AA?$AA@
	newobj		??0WDDatasException@WDDatas@@$$FQ$AAM@P$AAVString@System@@@Z
	stloc.1				; tmpWDDataException$10748
; Line 58
	ldloc.1				; tmpWDDataException$10748
	ldc.i4		10101		; i32 0x2775
	stfld		?ErrorCode@WDDatasException@WDDatas@@3HA
; Line 59
	ldloc.1				; tmpWDDataException$10748
	ldc.i.1		1		; i32 0x1
	stfld		?ErrorCode2@WDDatasException@WDDatas@@3HA
; Line 60
	ldloc.1				; tmpWDDataException$10748
	throw.u2	
$LN2@WDWord@2:
; File c:\users\amotoo\documents\myproject\worddicbt\wddatas\wddatas.h
	nop		
$LN19@WDWord@2:
; File c:\users\amotoo\documents\myproject\worddicbt\wddatas\wdword.cpp
; Line 66
	ldarg.0				; this$
	ldarg.1				; inRec$
	callvirt	?setRecord@WDWord@WDDatas@@$$FU$AAMXP$AAVDataRecord@FJIsam@@@Z
	leave.s		$LN6@WDWord@2
__catch$??0WDWord@WDDatas@@$$FQ$AAM@P$AAVDataRecord@FJIsam@@@Z$0:
; Line 67
	imp.push	
	stloc.2				; exp$11281
; Line 69
	ldstr		$StringLiteralTok$??_C@_1CE@JDMCCNFK@0?G0?$PM0?$LP?$IK?9?$FL?$JK0g0?$KI0?i0?$PM0Lvzu?$BP0W0?$HO0W0_0?$AC?$AA?$AA@
	ldloc.2				; exp$11281
	newobj		??0WDDatasException@WDDatas@@$$FQ$AAM@P$AAVString@System@@P$AAVException@3@@Z
	stloc.0				; tmpWDDataException$11283
; Line 70
	ldloc.0				; tmpWDDataException$11283
	ldc.i4		10101		; i32 0x2775
	stfld		?ErrorCode@WDDatasException@WDDatas@@3HA
; Line 71
	ldloc.0				; tmpWDDataException$11283
	ldc.i.2		2		; i32 0x2
	stfld		?ErrorCode2@WDDatasException@WDDatas@@3HA
; Line 72
	ldloc.0				; tmpWDDataException$11283
	throw.u2	
$LN12@WDWord@2:
	leave.s		$LN6@WDWord@2
$LN6@WDWord@2:
$LN5@WDWord@2:
$LN17@WDWord@2:
; Line 74
	leave.s		$LN20@WDWord@2
$LN21@WDWord@2:
	ldarg.0				; this$
	ldc.i.1		1		; u8 0x1
	call		?<Dispose>@WDRec@WDDatas@@$$FM$AAMX_N@Z
	endfinally	
$LN20@WDWord@2:
; Line 54
	ret		
 .end ??0WDWord@WDDatas@@$$FQ$AAM@P$AAVDataRecord@FJIsam@@@Z ; WDDatas::WDWord::WDWord
;	.proc.end.void
