; Listing generated by Microsoft (R) Optimizing Compiler Version 16.00.30319.01 

; Generated by VC++ for Common Language Runtime
.file "C:\Users\aMotoo\Documents\MyProject\WordDicBT\WordDic\stdafx.cpp"
.global	__@@_PchSym_@00@UfhvihUznlgllUwlxfnvmghUnbkilqvxgUdliwwrxygUdliwwrxUivovzhvUhgwzucOlyq@
.local	__@@_PchSym_@00@UfhvihUznlgllUwlxfnvmghUnbkilqvxgUdliwwrxygUdliwwrxUivovzhvUhgwzucOlyq@,4
.global	?components@WDConfig@WordDic@@3P$AAVContainer@ComponentModel@System@@$AA ; WordDic::WDConfig::components
	.bss
.local	$T33315,0
.local	?components@WDConfig@WordDic@@3P$AAVContainer@ComponentModel@System@@$AA,4 ; WordDic::WDConfig::components
; Function compile flags: /Ogtp
	.text
	.comdat	any, ??1WDConfig@WordDic@@$$FA$AAM@XZ
.global	??1WDConfig@WordDic@@$$FA$AAM@XZ		; WordDic::WDConfig::~WDConfig
??1WDConfig@WordDic@@$$FA$AAM@XZ:			; WordDic::WDConfig::~WDConfig
;	.proc.def	D:V()

; Function Header:
; max stack depth = 1
; function size = 17 bytes
; local varsig tk = 0x11000001 
; Exception Information:
; 0 handlers, each consisting of filtered handlers

;	.formal.mptr 0,"this$" SIG: Optional C Binding Modifier(token:0x2F4C069).class (token:0x2F4C06C)
;	.local.u4 0,"$T33314" SIG: class (token:0x2F38C65)

;	.proc.beg
; File c:\users\amotoo\documents\myproject\worddicbt\worddic\wdconfig.h
; Line 47
	ldarg.0				; this$
	ldfld		?components@WDConfig@WordDic@@3P$AAVContainer@ComponentModel@System@@$AA
	stloc.0				; $T33314
	ldloc.0				; $T33314
	brfalse.s	$LN4@WDConfig
; Line 49
	ldloc.0				; $T33314
	callvirt	?<Dispose>@IDisposable@System@@$$FU$AAMXXZ
$LN4@WDConfig:
; Line 51
	ret		
 .end ??1WDConfig@WordDic@@$$FA$AAM@XZ			; WordDic::WDConfig::~WDConfig
;	.proc.end.void
.global	?tabPageDic@WDConfig@WordDic@@3P$AAVTabPage@Forms@Windows@System@@$AA ; WordDic::WDConfig::tabPageDic
.global	?comboBoxWebSearch@WDConfig@WordDic@@3P$AAVComboBox@Forms@Windows@System@@$AA ; WordDic::WDConfig::comboBoxWebSearch
.global	?labelWebSearch@WDConfig@WordDic@@3P$AAVLabel@Forms@Windows@System@@$AA ; WordDic::WDConfig::labelWebSearch
.global	?tabPageSearch@WDConfig@WordDic@@3P$AAVTabPage@Forms@Windows@System@@$AA ; WordDic::WDConfig::tabPageSearch
.global	?comboBoxScreenLang@WDConfig@WordDic@@3P$AAVComboBox@Forms@Windows@System@@$AA ; WordDic::WDConfig::comboBoxScreenLang
.global	?labelScreenLang@WDConfig@WordDic@@3P$AAVLabel@Forms@Windows@System@@$AA ; WordDic::WDConfig::labelScreenLang
.global	?groupScreenLang@WDConfig@WordDic@@3P$AAVGroupBox@Forms@Windows@System@@$AA ; WordDic::WDConfig::groupScreenLang
.global	?tabPageBase@WDConfig@WordDic@@3P$AAVTabPage@Forms@Windows@System@@$AA ; WordDic::WDConfig::tabPageBase
.global	?tabControlBase@WDConfig@WordDic@@3P$AAVTabControl@Forms@Windows@System@@$AA ; WordDic::WDConfig::tabControlBase
.global	?buttonOK@WDConfig@WordDic@@3P$AAVButton@Forms@Windows@System@@$AA ; WordDic::WDConfig::buttonOK
.global	?buttonCancel@WDConfig@WordDic@@3P$AAVButton@Forms@Windows@System@@$AA ; WordDic::WDConfig::buttonCancel
.global	?buttonApply@WDConfig@WordDic@@3P$AAVButton@Forms@Windows@System@@$AA ; WordDic::WDConfig::buttonApply
.global	?panelBottuns@WDConfig@WordDic@@3P$AAVPanel@Forms@Windows@System@@$AA ; WordDic::WDConfig::panelBottuns
	.bss
.local	$T33317,0
.local	$StringLiteralTok$??_C@_19PMMDIJGA@?$IK?9?$FL?$JKu?$DL?$JHb?$AA?$AA@,4
.local	$StringLiteralTok$??_C@_1BC@CABFIBFH@?$AAW?$AAD?$AAC?$AAo?$AAn?$AAf?$AAi?$AAg?$AA?$AA@,4
.local	$TypeTok$1133D2B8$,4
.local	$StringLiteralTok$??_C@_1BG@GPPJDCEN@?$AA$?$AAt?$AAh?$AAi?$AAs?$AA?4?$AAI?$AAc?$AAo?$AAn?$AA?$AA@,4
.local	$StringLiteralTok$??_C@_15FFGPIHPG@?$IP?$JOf?x?$AA?$AA@,4
.local	$StringLiteralTok$??_C@_1BG@FBBNGIDC@?$AAt?$AAa?$AAb?$AAP?$AAa?$AAg?$AAe?$AAD?$AAi?$AAc?$AA?$AA@,4
.local	$StringLiteralTok$??_C@_1CE@IDLBBKNL@?$AAc?$AAo?$AAm?$AAb?$AAo?$AAB?$AAo?$AAx?$AAW?$AAe?$AAb?$AAS?$AAe?$AAa?$AAr?$AAc?$AAh?$AA?$AA@,4
.local	$StringLiteralTok$??_C@_1M@OEGMPBDB@0?$KI0?s0?$KL0?k0?$LP?$AA?$AA@,4
.local	$StringLiteralTok$??_C@_1EG@FNICKEPM@?$IIhy?3N?90nSX?$IK?$JO0?$AB0?$HO0_0o?$JAxb?$JON?90n?$IK?$AA?$IEI0?$JCi?$BM?$HN?$CC0Y0?$IL?$AAW?$AAe?$AAb0?$LF0?$KE0?H0?$JC?$JAxb?$JO0W0?$HO@,4
.local	$StringLiteralTok$??_C@_1BO@JOKOKBID@?$AAl?$AAa?$AAb?$AAe?$AAl?$AAW?$AAe?$AAb?$AAS?$AAe?$AAa?$AAr?$AAc?$AAh?$AA?$AA@,4
.local	$StringLiteralTok$??_C@_1M@NPONKJIL@?$AAW?$AAe?$AAbi?$BM?$HN?$CC?$AA?$AA@,4
.local	$StringLiteralTok$??_C@_1BM@LDPKGOAK@?$AAt?$AAa?$AAb?$AAP?$AAa?$AAg?$AAe?$AAS?$AAe?$AAa?$AAr?$AAc?$AAh?$AA?$AA@,4
.local	$StringLiteralTok$??_C@_1CG@PNCFBOPF@?$AAc?$AAo?$AAm?$AAb?$AAo?$AAB?$AAo?$AAx?$AAS?$AAc?$AAr?$AAe?$AAe?$AAn?$AAL?$AAa?$AAn?$AAg?$AA?$AA@,4
.local	$StringLiteralTok$??_C@_17GCCCAOAA@e?eg?0?$IK?$JO?$AA?$AA@,4
.local	$TypeTok$113F8BC4$,4
.local	$StringLiteralTok$??_C@_1DE@MPHJNILL@u?$DL?$JHb0n0?a0?K0?e0?$PM0?$IE0?$NM0?$LP0?s0k?$IIhy?30Y0?$IL?$IK?$AA?$IK?$JO0?$JCc?$AH?$FL?$JK0W0?$HO0Y0?$AC?$AA?$AA@,4
.local	$StringLiteralTok$??_C@_1CA@NDPELOLC@?$AAl?$AAa?$AAb?$AAe?$AAl?$AAS?$AAc?$AAr?$AAe?$AAe?$AAn?$AAL?$AAa?$AAn?$AAg?$AA?$AA@,4
.local	$StringLiteralTok$??_C@_1BA@FINDBIKE@u?$DL?$JHb0n?$IIhy?3?$IK?$AA?$IK?$JO?$AA?$AA@,4
.local	$StringLiteralTok$??_C@_1CA@KJENPMGG@?$AAg?$AAr?$AAo?$AAu?$AAp?$AAS?$AAc?$AAr?$AAe?$AAe?$AAn?$AAL?$AAa?$AAn?$AAg?$AA?$AA@,4
.local	$StringLiteralTok$??_C@_15NHHLLKNL@W?zg?0?$AA?$AA@,4
.local	$StringLiteralTok$??_C@_1BI@HPMMICFO@?$AAt?$AAa?$AAb?$AAP?$AAa?$AAg?$AAe?$AAB?$AAa?$AAs?$AAe?$AA?$AA@,4
.local	$StringLiteralTok$??_C@_1BO@DPJPPLAC@?$AAt?$AAa?$AAb?$AAC?$AAo?$AAn?$AAt?$AAr?$AAo?$AAl?$AAB?$AAa?$AAs?$AAe?$AA?$AA@,4
.local	$StringLiteralTok$??_C@_15PMCGDJNJ@?$AAO?$AAK?$AA?$AA@,4
.local	$StringLiteralTok$??_C@_1BC@FMNNPBEK@?$AAb?$AAu?$AAt?$AAt?$AAo?$AAn?$AAO?$AAK?$AA?$AA@,4
.local	$StringLiteralTok$??_C@_1M@JFEDHPLI@0?$KN0?c0?s0?$LL0?k?$AA?$AA@,4
.local	$StringLiteralTok$??_C@_1BK@EJGHCFAO@?$AAb?$AAu?$AAt?$AAt?$AAo?$AAn?$AAC?$AAa?$AAn?$AAc?$AAe?$AAl?$AA?$AA@,4
.local	$StringLiteralTok$??_C@_15IHHMAKLE@?$JAiu?$CI?$AA?$AA@,4
.local	$StringLiteralTok$??_C@_1BI@NGHMPNAB@?$AAb?$AAu?$AAt?$AAt?$AAo?$AAn?$AAA?$AAp?$AAp?$AAl?$AAy?$AA?$AA@,4
.local	$StringLiteralTok$??_C@_1BK@JKADHJJA@?$AAp?$AAa?$AAn?$AAe?$AAl?$AAB?$AAo?$AAt?$AAt?$AAu?$AAn?$AAs?$AA?$AA@,4
.local	?tabPageDic@WDConfig@WordDic@@3P$AAVTabPage@Forms@Windows@System@@$AA,4 ; WordDic::WDConfig::tabPageDic
.local	?comboBoxWebSearch@WDConfig@WordDic@@3P$AAVComboBox@Forms@Windows@System@@$AA,4 ; WordDic::WDConfig::comboBoxWebSearch
.local	?labelWebSearch@WDConfig@WordDic@@3P$AAVLabel@Forms@Windows@System@@$AA,4 ; WordDic::WDConfig::labelWebSearch
.local	?tabPageSearch@WDConfig@WordDic@@3P$AAVTabPage@Forms@Windows@System@@$AA,4 ; WordDic::WDConfig::tabPageSearch
.local	?comboBoxScreenLang@WDConfig@WordDic@@3P$AAVComboBox@Forms@Windows@System@@$AA,4 ; WordDic::WDConfig::comboBoxScreenLang
.local	?labelScreenLang@WDConfig@WordDic@@3P$AAVLabel@Forms@Windows@System@@$AA,4 ; WordDic::WDConfig::labelScreenLang
.local	?groupScreenLang@WDConfig@WordDic@@3P$AAVGroupBox@Forms@Windows@System@@$AA,4 ; WordDic::WDConfig::groupScreenLang
.local	?tabPageBase@WDConfig@WordDic@@3P$AAVTabPage@Forms@Windows@System@@$AA,4 ; WordDic::WDConfig::tabPageBase
.local	?tabControlBase@WDConfig@WordDic@@3P$AAVTabControl@Forms@Windows@System@@$AA,4 ; WordDic::WDConfig::tabControlBase
.local	?buttonOK@WDConfig@WordDic@@3P$AAVButton@Forms@Windows@System@@$AA,4 ; WordDic::WDConfig::buttonOK
.local	?buttonCancel@WDConfig@WordDic@@3P$AAVButton@Forms@Windows@System@@$AA,4 ; WordDic::WDConfig::buttonCancel
.local	?buttonApply@WDConfig@WordDic@@3P$AAVButton@Forms@Windows@System@@$AA,4 ; WordDic::WDConfig::buttonApply
.local	?panelBottuns@WDConfig@WordDic@@3P$AAVPanel@Forms@Windows@System@@$AA,4 ; WordDic::WDConfig::panelBottuns
.local	$TypeTok$114C7ED0$,4
; Function compile flags: /Ogtp
	.text
	.comdat	any, ?InitializeComponent@WDConfig@WordDic@@$$FA$AAMXXZ
.global	?InitializeComponent@WDConfig@WordDic@@$$FA$AAMXXZ ; WordDic::WDConfig::InitializeComponent
?InitializeComponent@WDConfig@WordDic@@$$FA$AAMXXZ:	; WordDic::WDConfig::InitializeComponent
;	.proc.def	D:V()

; Function Header:
; max stack depth = 3
; function size = 2374 bytes
; local varsig tk = 0x11000002 
; Exception Information:
; 0 handlers, each consisting of filtered handlers

;	.formal.mptr 0,"this$" SIG: Optional C Binding Modifier(token:0x2F4C069).class (token:0x2F4C06C)
;	.local.mb8   2,"$S30$" SIG: valueType (token:0x2F3CDC1)
;	.local.mb8   3,"$S29$" SIG: valueType (token:0x2F4C09D)
;	.local.mb8   4,"$S28$" SIG: valueType (token:0x2F3CDC1)
;	.local.mb20  5,"$T25936" SIG: valueType (token:0x2F4BB89)
;	.local.mb8   6,"$S27$" SIG: valueType (token:0x2F4CE99)
;	.local.mb8   7,"$S26$" SIG: valueType (token:0x2F3CDC1)
;	.local.mb8   8,"$S25$" SIG: valueType (token:0x2F4CE99)
;	.local.mptr 0,"$S24$" SIG: szarray (token:0x2F4C095)
;	.local.mb20  9,"$T25927" SIG: valueType (token:0x2F3FFED)
;	.local.mb8   10,"$S23$" SIG: valueType (token:0x2F3CDC1)
;	.local.mb8   11,"$S22$" SIG: valueType (token:0x2F4CE99)
;	.local.mb8   12,"$S21$" SIG: valueType (token:0x2F3CDC1)
;	.local.mb20  13,"$T25920" SIG: valueType (token:0x2F4BB89)
;	.local.mb8   14,"$S20$" SIG: valueType (token:0x2F4CE99)
;	.local.mb8   15,"$S19$" SIG: valueType (token:0x2F3CDC1)
;	.local.mb8   16,"$S18$" SIG: valueType (token:0x2F4CE99)
;	.local.mptr 1,"$S17$" SIG: szarray (token:0x2F4C095)
;	.local.mb20  17,"$T25185" SIG: valueType (token:0x2F3FFED)
;	.local.mb8   18,"$S16$" SIG: valueType (token:0x2F3CDC1)
;	.local.mb8   19,"$S15$" SIG: valueType (token:0x2F4CE99)
;	.local.mb8   20,"$S14$" SIG: valueType (token:0x2F3CDC1)
;	.local.mb8   21,"$S13$" SIG: valueType (token:0x2F4CE99)
;	.local.mb8   22,"$S12$" SIG: valueType (token:0x2F3CDC1)
;	.local.mb20  23,"$T25038" SIG: valueType (token:0x2F4BB89)
;	.local.mb8   24,"$S11$" SIG: valueType (token:0x2F4CE99)
;	.local.mb8   25,"$S10$" SIG: valueType (token:0x2F3CDC1)
;	.local.mb8   26,"$S9$" SIG: valueType (token:0x2F4CE99)
;	.local.mb8   27,"$S8$" SIG: valueType (token:0x2F3CDC1)
;	.local.mb8   28,"$S7$" SIG: valueType (token:0x2F4CE99)
;	.local.mb8   29,"$S6$" SIG: valueType (token:0x2F3CDC1)
;	.local.mb8   30,"$S5$" SIG: valueType (token:0x2F4CE99)
;	.local.mb8   31,"$S4$" SIG: valueType (token:0x2F3CDC1)
;	.local.mb8   32,"$S3$" SIG: valueType (token:0x2F4CE99)
;	.local.mb8   33,"$S2$" SIG: valueType (token:0x2F3CDC1)
;	.local.mb8   34,"$S1$" SIG: valueType (token:0x2F4CE99)
;	.local.mptr 35,"resources$" SIG: class (token:0x2F3F825)

;	.proc.beg
; Line 106
	ldtoken		$TypeTok$114C7ED0$
	call		?GetTypeFromHandle@Type@System@@$$FSMP$AAV12@VRuntimeTypeHandle@2@@Z
	newobj		??0ComponentResourceManager@ComponentModel@System@@$$FQ$AAM@P$AAVType@2@@Z
	stloc.s		35		; resources$
; Line 107
	ldarg.0				; this$
	newobj		??0Panel@Forms@Windows@System@@$$FQ$AAM@XZ
	stfld		?panelBottuns@WDConfig@WordDic@@3P$AAVPanel@Forms@Windows@System@@$AA
; Line 108
	ldarg.0				; this$
	newobj		??0Button@Forms@Windows@System@@$$FQ$AAM@XZ
	stfld		?buttonApply@WDConfig@WordDic@@3P$AAVButton@Forms@Windows@System@@$AA
; Line 109
	ldarg.0				; this$
	newobj		??0Button@Forms@Windows@System@@$$FQ$AAM@XZ
	stfld		?buttonCancel@WDConfig@WordDic@@3P$AAVButton@Forms@Windows@System@@$AA
; Line 110
	ldarg.0				; this$
	newobj		??0Button@Forms@Windows@System@@$$FQ$AAM@XZ
	stfld		?buttonOK@WDConfig@WordDic@@3P$AAVButton@Forms@Windows@System@@$AA
; Line 111
	ldarg.0				; this$
	newobj		??0TabControl@Forms@Windows@System@@$$FQ$AAM@XZ
	stfld		?tabControlBase@WDConfig@WordDic@@3P$AAVTabControl@Forms@Windows@System@@$AA
; Line 112
	ldarg.0				; this$
	newobj		??0TabPage@Forms@Windows@System@@$$FQ$AAM@XZ
	stfld		?tabPageBase@WDConfig@WordDic@@3P$AAVTabPage@Forms@Windows@System@@$AA
; Line 113
	ldarg.0				; this$
	newobj		??0GroupBox@Forms@Windows@System@@$$FQ$AAM@XZ
	stfld		?groupScreenLang@WDConfig@WordDic@@3P$AAVGroupBox@Forms@Windows@System@@$AA
; Line 114
	ldarg.0				; this$
	newobj		??0Label@Forms@Windows@System@@$$FQ$AAM@XZ
	stfld		?labelScreenLang@WDConfig@WordDic@@3P$AAVLabel@Forms@Windows@System@@$AA
; Line 115
	ldarg.0				; this$
	newobj		??0ComboBox@Forms@Windows@System@@$$FQ$AAM@XZ
	stfld		?comboBoxScreenLang@WDConfig@WordDic@@3P$AAVComboBox@Forms@Windows@System@@$AA
; Line 116
	ldarg.0				; this$
	newobj		??0TabPage@Forms@Windows@System@@$$FQ$AAM@XZ
	stfld		?tabPageSearch@WDConfig@WordDic@@3P$AAVTabPage@Forms@Windows@System@@$AA
; Line 117
	ldarg.0				; this$
	newobj		??0Label@Forms@Windows@System@@$$FQ$AAM@XZ
	stfld		?labelWebSearch@WDConfig@WordDic@@3P$AAVLabel@Forms@Windows@System@@$AA
; Line 118
	ldarg.0				; this$
	newobj		??0ComboBox@Forms@Windows@System@@$$FQ$AAM@XZ
	stfld		?comboBoxWebSearch@WDConfig@WordDic@@3P$AAVComboBox@Forms@Windows@System@@$AA
; Line 119
	ldarg.0				; this$
	newobj		??0TabPage@Forms@Windows@System@@$$FQ$AAM@XZ
	stfld		?tabPageDic@WDConfig@WordDic@@3P$AAVTabPage@Forms@Windows@System@@$AA
; Line 120
	ldarg.0				; this$
	ldfld		?panelBottuns@WDConfig@WordDic@@3P$AAVPanel@Forms@Windows@System@@$AA
	call		?SuspendLayout@Control@Forms@Windows@System@@$$FQ$AAMXXZ
; Line 121
	ldarg.0				; this$
	ldfld		?tabControlBase@WDConfig@WordDic@@3P$AAVTabControl@Forms@Windows@System@@$AA
	call		?SuspendLayout@Control@Forms@Windows@System@@$$FQ$AAMXXZ
; Line 122
	ldarg.0				; this$
	ldfld		?tabPageBase@WDConfig@WordDic@@3P$AAVTabPage@Forms@Windows@System@@$AA
	call		?SuspendLayout@Control@Forms@Windows@System@@$$FQ$AAMXXZ
; Line 123
	ldarg.0				; this$
	ldfld		?groupScreenLang@WDConfig@WordDic@@3P$AAVGroupBox@Forms@Windows@System@@$AA
	call		?SuspendLayout@Control@Forms@Windows@System@@$$FQ$AAMXXZ
; Line 124
	ldarg.0				; this$
	ldfld		?tabPageSearch@WDConfig@WordDic@@3P$AAVTabPage@Forms@Windows@System@@$AA
	call		?SuspendLayout@Control@Forms@Windows@System@@$$FQ$AAMXXZ
; Line 125
	ldarg.0				; this$
	call		?SuspendLayout@Control@Forms@Windows@System@@$$FQ$AAMXXZ
; Line 129
	ldarg.0				; this$
	ldfld		?panelBottuns@WDConfig@WordDic@@3P$AAVPanel@Forms@Windows@System@@$AA
	call		?get@Controls@Control@Forms@Windows@System@@$$FQ$AAMP$AAVControlCollection@2345@XZ
	ldarg.0				; this$
	ldfld		?buttonApply@WDConfig@WordDic@@3P$AAVButton@Forms@Windows@System@@$AA
	callvirt	?Add@ControlCollection@Control@Forms@Windows@System@@$$FU$AAMXP$AAV2345@@Z
; Line 130
	ldarg.0				; this$
	ldfld		?panelBottuns@WDConfig@WordDic@@3P$AAVPanel@Forms@Windows@System@@$AA
	call		?get@Controls@Control@Forms@Windows@System@@$$FQ$AAMP$AAVControlCollection@2345@XZ
	ldarg.0				; this$
	ldfld		?buttonCancel@WDConfig@WordDic@@3P$AAVButton@Forms@Windows@System@@$AA
	callvirt	?Add@ControlCollection@Control@Forms@Windows@System@@$$FU$AAMXP$AAV2345@@Z
; Line 131
	ldarg.0				; this$
	ldfld		?panelBottuns@WDConfig@WordDic@@3P$AAVPanel@Forms@Windows@System@@$AA
	call		?get@Controls@Control@Forms@Windows@System@@$$FQ$AAMP$AAVControlCollection@2345@XZ
	ldarg.0				; this$
	ldfld		?buttonOK@WDConfig@WordDic@@3P$AAVButton@Forms@Windows@System@@$AA
	callvirt	?Add@ControlCollection@Control@Forms@Windows@System@@$$FU$AAMXP$AAV2345@@Z
; Line 132
	ldarg.0				; this$
	ldfld		?panelBottuns@WDConfig@WordDic@@3P$AAVPanel@Forms@Windows@System@@$AA
	ldc.i.2		2		; i32 0x2
	callvirt	?set@Dock@Control@Forms@Windows@System@@$$FU$AAMXW4DockStyle@345@@Z
; Line 133
	ldloca.s	34		; $S1$
	ldc.i.0		0		; i32 0x0
	ldc.i4		243		; i32 0xf3
	call		??0Point@Drawing@System@@$$FQ$CAM@HH@Z
	ldarg.0				; this$
	ldfld		?panelBottuns@WDConfig@WordDic@@3P$AAVPanel@Forms@Windows@System@@$AA
	ldloc.s		34		; $S1$
	call		?set@Location@Control@Forms@Windows@System@@$$FQ$AAMXVPoint@Drawing@5@@Z
; Line 134
	ldarg.0				; this$
	ldfld		?panelBottuns@WDConfig@WordDic@@3P$AAVPanel@Forms@Windows@System@@$AA
	ldstr		$StringLiteralTok$??_C@_1BK@JKADHJJA@?$AAp?$AAa?$AAn?$AAe?$AAl?$AAB?$AAo?$AAt?$AAt?$AAu?$AAn?$AAs?$AA?$AA@
	call		?set@Name@Control@Forms@Windows@System@@$$FQ$AAMXP$AAVString@5@@Z
; Line 135
	ldloca.s	33		; $S2$
	ldc.i4		480		; i32 0x1e0
	ldc.i4.s	29		; i32 0x1d
	call		??0Size@Drawing@System@@$$FQ$CAM@HH@Z
	ldarg.0				; this$
	ldfld		?panelBottuns@WDConfig@WordDic@@3P$AAVPanel@Forms@Windows@System@@$AA
	ldloc.s		33		; $S2$
	call		?set@Size@Control@Forms@Windows@System@@$$FQ$AAMXV1Drawing@5@@Z
; Line 136
	ldarg.0				; this$
	ldfld		?panelBottuns@WDConfig@WordDic@@3P$AAVPanel@Forms@Windows@System@@$AA
	ldc.i.2		2		; i32 0x2
	call		?set@TabIndex@Control@Forms@Windows@System@@$$FQ$AAMXH@Z
; Line 140
	ldarg.0				; this$
	ldfld		?buttonApply@WDConfig@WordDic@@3P$AAVButton@Forms@Windows@System@@$AA
	ldc.i.3		3		; i32 0x3
	call		?set@FlatStyle@ButtonBase@Forms@Windows@System@@$$FQ$AAMXW41345@@Z
; Line 141
	ldloca.s	32		; $S3$
	ldc.i4		393		; i32 0x189
	ldc.i.4		4		; i32 0x4
	call		??0Point@Drawing@System@@$$FQ$CAM@HH@Z
	ldarg.0				; this$
	ldfld		?buttonApply@WDConfig@WordDic@@3P$AAVButton@Forms@Windows@System@@$AA
	ldloc.s		32		; $S3$
	call		?set@Location@Control@Forms@Windows@System@@$$FQ$AAMXVPoint@Drawing@5@@Z
; Line 142
	ldarg.0				; this$
	ldfld		?buttonApply@WDConfig@WordDic@@3P$AAVButton@Forms@Windows@System@@$AA
	ldstr		$StringLiteralTok$??_C@_1BI@NGHMPNAB@?$AAb?$AAu?$AAt?$AAt?$AAo?$AAn?$AAA?$AAp?$AAp?$AAl?$AAy?$AA?$AA@
	call		?set@Name@Control@Forms@Windows@System@@$$FQ$AAMXP$AAVString@5@@Z
; Line 143
	ldloca.s	31		; $S4$
	ldc.i4.s	75		; i32 0x4b
	ldc.i4.s	23		; i32 0x17
	call		??0Size@Drawing@System@@$$FQ$CAM@HH@Z
	ldarg.0				; this$
	ldfld		?buttonApply@WDConfig@WordDic@@3P$AAVButton@Forms@Windows@System@@$AA
	ldloc.s		31		; $S4$
	call		?set@Size@Control@Forms@Windows@System@@$$FQ$AAMXV1Drawing@5@@Z
; Line 144
	ldarg.0				; this$
	ldfld		?buttonApply@WDConfig@WordDic@@3P$AAVButton@Forms@Windows@System@@$AA
	ldc.i.2		2		; i32 0x2
	call		?set@TabIndex@Control@Forms@Windows@System@@$$FQ$AAMXH@Z
; Line 145
	ldarg.0				; this$
	ldfld		?buttonApply@WDConfig@WordDic@@3P$AAVButton@Forms@Windows@System@@$AA
	ldstr		$StringLiteralTok$??_C@_15IHHMAKLE@?$JAiu?$CI?$AA?$AA@
	callvirt	?set@Text@ButtonBase@Forms@Windows@System@@$$FU$AAMXP$AAVString@5@@Z
; Line 146
	ldarg.0				; this$
	ldfld		?buttonApply@WDConfig@WordDic@@3P$AAVButton@Forms@Windows@System@@$AA
	ldc.i.1		1		; u8 0x1
	call		?set@UseVisualStyleBackColor@ButtonBase@Forms@Windows@System@@$$FQ$AAMX_N@Z
; Line 150
	ldarg.0				; this$
	ldfld		?buttonCancel@WDConfig@WordDic@@3P$AAVButton@Forms@Windows@System@@$AA
	ldc.i.2		2		; i32 0x2
	callvirt	?set@DialogResult@Button@Forms@Windows@System@@$$FU$AAMXW41345@@Z
; Line 151
	ldarg.0				; this$
	ldfld		?buttonCancel@WDConfig@WordDic@@3P$AAVButton@Forms@Windows@System@@$AA
	ldc.i.3		3		; i32 0x3
	call		?set@FlatStyle@ButtonBase@Forms@Windows@System@@$$FQ$AAMXW41345@@Z
; Line 152
	ldloca.s	30		; $S5$
	ldc.i4		312		; i32 0x138
	ldc.i.4		4		; i32 0x4
	call		??0Point@Drawing@System@@$$FQ$CAM@HH@Z
	ldarg.0				; this$
	ldfld		?buttonCancel@WDConfig@WordDic@@3P$AAVButton@Forms@Windows@System@@$AA
	ldloc.s		30		; $S5$
	call		?set@Location@Control@Forms@Windows@System@@$$FQ$AAMXVPoint@Drawing@5@@Z
; Line 153
	ldarg.0				; this$
	ldfld		?buttonCancel@WDConfig@WordDic@@3P$AAVButton@Forms@Windows@System@@$AA
	ldstr		$StringLiteralTok$??_C@_1BK@EJGHCFAO@?$AAb?$AAu?$AAt?$AAt?$AAo?$AAn?$AAC?$AAa?$AAn?$AAc?$AAe?$AAl?$AA?$AA@
	call		?set@Name@Control@Forms@Windows@System@@$$FQ$AAMXP$AAVString@5@@Z
; Line 154
	ldloca.s	29		; $S6$
	ldc.i4.s	75		; i32 0x4b
	ldc.i4.s	23		; i32 0x17
	call		??0Size@Drawing@System@@$$FQ$CAM@HH@Z
	ldarg.0				; this$
	ldfld		?buttonCancel@WDConfig@WordDic@@3P$AAVButton@Forms@Windows@System@@$AA
	ldloc.s		29		; $S6$
	call		?set@Size@Control@Forms@Windows@System@@$$FQ$AAMXV1Drawing@5@@Z
; Line 155
	ldarg.0				; this$
	ldfld		?buttonCancel@WDConfig@WordDic@@3P$AAVButton@Forms@Windows@System@@$AA
	ldc.i.1		1		; i32 0x1
	call		?set@TabIndex@Control@Forms@Windows@System@@$$FQ$AAMXH@Z
; Line 156
	ldarg.0				; this$
	ldfld		?buttonCancel@WDConfig@WordDic@@3P$AAVButton@Forms@Windows@System@@$AA
	ldstr		$StringLiteralTok$??_C@_1M@JFEDHPLI@0?$KN0?c0?s0?$LL0?k?$AA?$AA@
	callvirt	?set@Text@ButtonBase@Forms@Windows@System@@$$FU$AAMXP$AAVString@5@@Z
; Line 157
	ldarg.0				; this$
	ldfld		?buttonCancel@WDConfig@WordDic@@3P$AAVButton@Forms@Windows@System@@$AA
	ldc.i.1		1		; u8 0x1
	call		?set@UseVisualStyleBackColor@ButtonBase@Forms@Windows@System@@$$FQ$AAMX_N@Z
; Line 161
	ldarg.0				; this$
	ldfld		?buttonOK@WDConfig@WordDic@@3P$AAVButton@Forms@Windows@System@@$AA
	ldc.i.1		1		; i32 0x1
	callvirt	?set@DialogResult@Button@Forms@Windows@System@@$$FU$AAMXW41345@@Z
; Line 162
	ldarg.0				; this$
	ldfld		?buttonOK@WDConfig@WordDic@@3P$AAVButton@Forms@Windows@System@@$AA
	ldc.i.3		3		; i32 0x3
	call		?set@FlatStyle@ButtonBase@Forms@Windows@System@@$$FQ$AAMXW41345@@Z
; Line 163
	ldloca.s	28		; $S7$
	ldc.i4		231		; i32 0xe7
	ldc.i.4		4		; i32 0x4
	call		??0Point@Drawing@System@@$$FQ$CAM@HH@Z
	ldarg.0				; this$
	ldfld		?buttonOK@WDConfig@WordDic@@3P$AAVButton@Forms@Windows@System@@$AA
	ldloc.s		28		; $S7$
	call		?set@Location@Control@Forms@Windows@System@@$$FQ$AAMXVPoint@Drawing@5@@Z
; Line 164
	ldarg.0				; this$
	ldfld		?buttonOK@WDConfig@WordDic@@3P$AAVButton@Forms@Windows@System@@$AA
	ldstr		$StringLiteralTok$??_C@_1BC@FMNNPBEK@?$AAb?$AAu?$AAt?$AAt?$AAo?$AAn?$AAO?$AAK?$AA?$AA@
	call		?set@Name@Control@Forms@Windows@System@@$$FQ$AAMXP$AAVString@5@@Z
; Line 165
	ldloca.s	27		; $S8$
	ldc.i4.s	75		; i32 0x4b
	ldc.i4.s	23		; i32 0x17
	call		??0Size@Drawing@System@@$$FQ$CAM@HH@Z
	ldarg.0				; this$
	ldfld		?buttonOK@WDConfig@WordDic@@3P$AAVButton@Forms@Windows@System@@$AA
	ldloc.s		27		; $S8$
	call		?set@Size@Control@Forms@Windows@System@@$$FQ$AAMXV1Drawing@5@@Z
; Line 166
	ldarg.0				; this$
	ldfld		?buttonOK@WDConfig@WordDic@@3P$AAVButton@Forms@Windows@System@@$AA
	ldc.i.0		0		; i32 0x0
	call		?set@TabIndex@Control@Forms@Windows@System@@$$FQ$AAMXH@Z
; Line 167
	ldarg.0				; this$
	ldfld		?buttonOK@WDConfig@WordDic@@3P$AAVButton@Forms@Windows@System@@$AA
	ldstr		$StringLiteralTok$??_C@_15PMCGDJNJ@?$AAO?$AAK?$AA?$AA@
	callvirt	?set@Text@ButtonBase@Forms@Windows@System@@$$FU$AAMXP$AAVString@5@@Z
; Line 168
	ldarg.0				; this$
	ldfld		?buttonOK@WDConfig@WordDic@@3P$AAVButton@Forms@Windows@System@@$AA
	ldc.i.1		1		; u8 0x1
	call		?set@UseVisualStyleBackColor@ButtonBase@Forms@Windows@System@@$$FQ$AAMX_N@Z
; Line 172
	ldarg.0				; this$
	ldfld		?tabControlBase@WDConfig@WordDic@@3P$AAVTabControl@Forms@Windows@System@@$AA
	call		?get@Controls@Control@Forms@Windows@System@@$$FQ$AAMP$AAVControlCollection@2345@XZ
	ldarg.0				; this$
	ldfld		?tabPageBase@WDConfig@WordDic@@3P$AAVTabPage@Forms@Windows@System@@$AA
	callvirt	?Add@ControlCollection@Control@Forms@Windows@System@@$$FU$AAMXP$AAV2345@@Z
; Line 173
	ldarg.0				; this$
	ldfld		?tabControlBase@WDConfig@WordDic@@3P$AAVTabControl@Forms@Windows@System@@$AA
	call		?get@Controls@Control@Forms@Windows@System@@$$FQ$AAMP$AAVControlCollection@2345@XZ
	ldarg.0				; this$
	ldfld		?tabPageSearch@WDConfig@WordDic@@3P$AAVTabPage@Forms@Windows@System@@$AA
	callvirt	?Add@ControlCollection@Control@Forms@Windows@System@@$$FU$AAMXP$AAV2345@@Z
; Line 174
	ldarg.0				; this$
	ldfld		?tabControlBase@WDConfig@WordDic@@3P$AAVTabControl@Forms@Windows@System@@$AA
	call		?get@Controls@Control@Forms@Windows@System@@$$FQ$AAMP$AAVControlCollection@2345@XZ
	ldarg.0				; this$
	ldfld		?tabPageDic@WDConfig@WordDic@@3P$AAVTabPage@Forms@Windows@System@@$AA
	callvirt	?Add@ControlCollection@Control@Forms@Windows@System@@$$FU$AAMXP$AAV2345@@Z
; Line 175
	ldarg.0				; this$
	ldfld		?tabControlBase@WDConfig@WordDic@@3P$AAVTabControl@Forms@Windows@System@@$AA
	ldc.i.5		5		; i32 0x5
	callvirt	?set@Dock@Control@Forms@Windows@System@@$$FU$AAMXW4DockStyle@345@@Z
; Line 176
	ldarg.0				; this$
	ldfld		?tabControlBase@WDConfig@WordDic@@3P$AAVTabControl@Forms@Windows@System@@$AA
	ldc.i.1		1		; u8 0x1
	call		?set@HotTrack@TabControl@Forms@Windows@System@@$$FQ$AAMX_N@Z
; Line 177
	ldloca.s	26		; $S9$
	ldc.i.0		0		; i32 0x0
	ldc.i.0		0		; i32 0x0
	call		??0Point@Drawing@System@@$$FQ$CAM@HH@Z
	ldarg.0				; this$
	ldfld		?tabControlBase@WDConfig@WordDic@@3P$AAVTabControl@Forms@Windows@System@@$AA
	ldloc.s		26		; $S9$
	call		?set@Location@Control@Forms@Windows@System@@$$FQ$AAMXVPoint@Drawing@5@@Z
; Line 178
	ldarg.0				; this$
	ldfld		?tabControlBase@WDConfig@WordDic@@3P$AAVTabControl@Forms@Windows@System@@$AA
	ldstr		$StringLiteralTok$??_C@_1BO@DPJPPLAC@?$AAt?$AAa?$AAb?$AAC?$AAo?$AAn?$AAt?$AAr?$AAo?$AAl?$AAB?$AAa?$AAs?$AAe?$AA?$AA@
	call		?set@Name@Control@Forms@Windows@System@@$$FQ$AAMXP$AAVString@5@@Z
; Line 179
	ldarg.0				; this$
	ldfld		?tabControlBase@WDConfig@WordDic@@3P$AAVTabControl@Forms@Windows@System@@$AA
	ldc.i.0		0		; i32 0x0
	call		?set@SelectedIndex@TabControl@Forms@Windows@System@@$$FQ$AAMXH@Z
; Line 180
	ldloca.s	25		; $S10$
	ldc.i4		480		; i32 0x1e0
	ldc.i4		243		; i32 0xf3
	call		??0Size@Drawing@System@@$$FQ$CAM@HH@Z
	ldarg.0				; this$
	ldfld		?tabControlBase@WDConfig@WordDic@@3P$AAVTabControl@Forms@Windows@System@@$AA
	ldloc.s		25		; $S10$
	call		?set@Size@Control@Forms@Windows@System@@$$FQ$AAMXV1Drawing@5@@Z
; Line 181
	ldarg.0				; this$
	ldfld		?tabControlBase@WDConfig@WordDic@@3P$AAVTabControl@Forms@Windows@System@@$AA
	ldc.i.3		3		; i32 0x3
	call		?set@TabIndex@Control@Forms@Windows@System@@$$FQ$AAMXH@Z
; Line 185
	ldarg.0				; this$
	ldfld		?tabPageBase@WDConfig@WordDic@@3P$AAVTabPage@Forms@Windows@System@@$AA
	ldc.i.1		1		; i32 0x1
	call		?set@BorderStyle@Panel@Forms@Windows@System@@$$FQ$AAMXW41345@@Z
; Line 186
	ldarg.0				; this$
	ldfld		?tabPageBase@WDConfig@WordDic@@3P$AAVTabPage@Forms@Windows@System@@$AA
	call		?get@Controls@Control@Forms@Windows@System@@$$FQ$AAMP$AAVControlCollection@2345@XZ
	ldarg.0				; this$
	ldfld		?groupScreenLang@WDConfig@WordDic@@3P$AAVGroupBox@Forms@Windows@System@@$AA
	callvirt	?Add@ControlCollection@Control@Forms@Windows@System@@$$FU$AAMXP$AAV2345@@Z
; Line 187
	ldloca.s	24		; $S11$
	ldc.i.4		4		; i32 0x4
	ldc.i4.s	22		; i32 0x16
	call		??0Point@Drawing@System@@$$FQ$CAM@HH@Z
	ldarg.0				; this$
	ldfld		?tabPageBase@WDConfig@WordDic@@3P$AAVTabPage@Forms@Windows@System@@$AA
	ldloc.s		24		; $S11$
	call		?set@Location@TabPage@Forms@Windows@System@@$$FQ$AAMXVPoint@Drawing@5@@Z
; Line 188
	ldarg.0				; this$
	ldfld		?tabPageBase@WDConfig@WordDic@@3P$AAVTabPage@Forms@Windows@System@@$AA
	ldstr		$StringLiteralTok$??_C@_1BI@HPMMICFO@?$AAt?$AAa?$AAb?$AAP?$AAa?$AAg?$AAe?$AAB?$AAa?$AAs?$AAe?$AA?$AA@
	call		?set@Name@Control@Forms@Windows@System@@$$FQ$AAMXP$AAVString@5@@Z
; Line 189
	ldloca.s	23		; $T25038
	ldc.i.3		3		; i32 0x3
	call		??0Padding@Forms@Windows@System@@$$FQ$CAM@H@Z
	ldarg.0				; this$
	ldfld		?tabPageBase@WDConfig@WordDic@@3P$AAVTabPage@Forms@Windows@System@@$AA
	ldloc.s		23		; $T25038
	call		?set@Padding@Control@Forms@Windows@System@@$$FQ$AAMXV1345@@Z
; Line 190
	ldloca.s	22		; $S12$
	ldc.i4		472		; i32 0x1d8
	ldc.i4		217		; i32 0xd9
	call		??0Size@Drawing@System@@$$FQ$CAM@HH@Z
	ldarg.0				; this$
	ldfld		?tabPageBase@WDConfig@WordDic@@3P$AAVTabPage@Forms@Windows@System@@$AA
	ldloc.s		22		; $S12$
	call		?set@Size@Control@Forms@Windows@System@@$$FQ$AAMXV1Drawing@5@@Z
; Line 191
	ldarg.0				; this$
	ldfld		?tabPageBase@WDConfig@WordDic@@3P$AAVTabPage@Forms@Windows@System@@$AA
	ldc.i.0		0		; i32 0x0
	call		?set@TabIndex@TabPage@Forms@Windows@System@@$$FQ$AAMXH@Z
; Line 192
	ldarg.0				; this$
	ldfld		?tabPageBase@WDConfig@WordDic@@3P$AAVTabPage@Forms@Windows@System@@$AA
	ldstr		$StringLiteralTok$??_C@_15NHHLLKNL@W?zg?0?$AA?$AA@
	callvirt	?set@Text@TabPage@Forms@Windows@System@@$$FU$AAMXP$AAVString@5@@Z
; Line 193
	ldarg.0				; this$
	ldfld		?tabPageBase@WDConfig@WordDic@@3P$AAVTabPage@Forms@Windows@System@@$AA
	ldc.i.1		1		; u8 0x1
	call		?set@UseVisualStyleBackColor@TabPage@Forms@Windows@System@@$$FQ$AAMX_N@Z
; Line 197
	ldarg.0				; this$
	ldfld		?groupScreenLang@WDConfig@WordDic@@3P$AAVGroupBox@Forms@Windows@System@@$AA
	call		?get@Controls@Control@Forms@Windows@System@@$$FQ$AAMP$AAVControlCollection@2345@XZ
	ldarg.0				; this$
	ldfld		?labelScreenLang@WDConfig@WordDic@@3P$AAVLabel@Forms@Windows@System@@$AA
	callvirt	?Add@ControlCollection@Control@Forms@Windows@System@@$$FU$AAMXP$AAV2345@@Z
; Line 198
	ldarg.0				; this$
	ldfld		?groupScreenLang@WDConfig@WordDic@@3P$AAVGroupBox@Forms@Windows@System@@$AA
	call		?get@Controls@Control@Forms@Windows@System@@$$FQ$AAMP$AAVControlCollection@2345@XZ
	ldarg.0				; this$
	ldfld		?comboBoxScreenLang@WDConfig@WordDic@@3P$AAVComboBox@Forms@Windows@System@@$AA
	callvirt	?Add@ControlCollection@Control@Forms@Windows@System@@$$FU$AAMXP$AAV2345@@Z
; Line 199
	ldloca.s	21		; $S13$
	ldc.i.7		7		; i32 0x7
	ldc.i4.s	14		; i32 0xe
	call		??0Point@Drawing@System@@$$FQ$CAM@HH@Z
	ldarg.0				; this$
	ldfld		?groupScreenLang@WDConfig@WordDic@@3P$AAVGroupBox@Forms@Windows@System@@$AA
	ldloc.s		21		; $S13$
	call		?set@Location@Control@Forms@Windows@System@@$$FQ$AAMXVPoint@Drawing@5@@Z
; Line 200
	ldarg.0				; this$
	ldfld		?groupScreenLang@WDConfig@WordDic@@3P$AAVGroupBox@Forms@Windows@System@@$AA
	ldstr		$StringLiteralTok$??_C@_1CA@KJENPMGG@?$AAg?$AAr?$AAo?$AAu?$AAp?$AAS?$AAc?$AAr?$AAe?$AAe?$AAn?$AAL?$AAa?$AAn?$AAg?$AA?$AA@
	call		?set@Name@Control@Forms@Windows@System@@$$FQ$AAMXP$AAVString@5@@Z
; Line 201
	ldloca.s	20		; $S14$
	ldc.i4		450		; i32 0x1c2
	ldc.i4.s	78		; i32 0x4e
	call		??0Size@Drawing@System@@$$FQ$CAM@HH@Z
	ldarg.0				; this$
	ldfld		?groupScreenLang@WDConfig@WordDic@@3P$AAVGroupBox@Forms@Windows@System@@$AA
	ldloc.s		20		; $S14$
	call		?set@Size@Control@Forms@Windows@System@@$$FQ$AAMXV1Drawing@5@@Z
; Line 202
	ldarg.0				; this$
	ldfld		?groupScreenLang@WDConfig@WordDic@@3P$AAVGroupBox@Forms@Windows@System@@$AA
	ldc.i.0		0		; i32 0x0
	call		?set@TabIndex@Control@Forms@Windows@System@@$$FQ$AAMXH@Z
; Line 203
	ldarg.0				; this$
	ldfld		?groupScreenLang@WDConfig@WordDic@@3P$AAVGroupBox@Forms@Windows@System@@$AA
	ldc.i.0		0		; u8 0x0
	call		?set@TabStop@GroupBox@Forms@Windows@System@@$$FQ$AAMX_N@Z
; Line 204
	ldarg.0				; this$
	ldfld		?groupScreenLang@WDConfig@WordDic@@3P$AAVGroupBox@Forms@Windows@System@@$AA
	ldstr		$StringLiteralTok$??_C@_1BA@FINDBIKE@u?$DL?$JHb0n?$IIhy?3?$IK?$AA?$IK?$JO?$AA?$AA@
	callvirt	?set@Text@GroupBox@Forms@Windows@System@@$$FU$AAMXP$AAVString@5@@Z
; Line 208
	ldarg.0				; this$
	ldfld		?labelScreenLang@WDConfig@WordDic@@3P$AAVLabel@Forms@Windows@System@@$AA
	ldc.i.1		1		; u8 0x1
	callvirt	?set@AutoSize@Label@Forms@Windows@System@@$$FU$AAMX_N@Z
; Line 209
	ldloca.s	19		; $S15$
	ldc.i4.s	15		; i32 0xf
	ldc.i4.s	51		; i32 0x33
	call		??0Point@Drawing@System@@$$FQ$CAM@HH@Z
	ldarg.0				; this$
	ldfld		?labelScreenLang@WDConfig@WordDic@@3P$AAVLabel@Forms@Windows@System@@$AA
	ldloc.s		19		; $S15$
	call		?set@Location@Control@Forms@Windows@System@@$$FQ$AAMXVPoint@Drawing@5@@Z
; Line 210
	ldarg.0				; this$
	ldfld		?labelScreenLang@WDConfig@WordDic@@3P$AAVLabel@Forms@Windows@System@@$AA
	ldstr		$StringLiteralTok$??_C@_1CA@NDPELOLC@?$AAl?$AAa?$AAb?$AAe?$AAl?$AAS?$AAc?$AAr?$AAe?$AAe?$AAn?$AAL?$AAa?$AAn?$AAg?$AA?$AA@
	call		?set@Name@Control@Forms@Windows@System@@$$FQ$AAMXP$AAVString@5@@Z
; Line 211
	ldloca.s	18		; $S16$
	ldc.i4		256		; i32 0x100
	ldc.i4.s	12		; i32 0xc
	call		??0Size@Drawing@System@@$$FQ$CAM@HH@Z
	ldarg.0				; this$
	ldfld		?labelScreenLang@WDConfig@WordDic@@3P$AAVLabel@Forms@Windows@System@@$AA
	ldloc.s		18		; $S16$
	call		?set@Size@Control@Forms@Windows@System@@$$FQ$AAMXV1Drawing@5@@Z
; Line 212
	ldarg.0				; this$
	ldfld		?labelScreenLang@WDConfig@WordDic@@3P$AAVLabel@Forms@Windows@System@@$AA
	ldc.i.1		1		; i32 0x1
	call		?set@TabIndex@Control@Forms@Windows@System@@$$FQ$AAMXH@Z
; Line 213
	ldarg.0				; this$
	ldfld		?labelScreenLang@WDConfig@WordDic@@3P$AAVLabel@Forms@Windows@System@@$AA
	ldstr		$StringLiteralTok$??_C@_1DE@MPHJNILL@u?$DL?$JHb0n0?a0?K0?e0?$PM0?$IE0?$NM0?$LP0?s0k?$IIhy?30Y0?$IL?$IK?$AA?$IK?$JO0?$JCc?$AH?$FL?$JK0W0?$HO0Y0?$AC?$AA?$AA@
	callvirt	?set@Text@Label@Forms@Windows@System@@$$FU$AAMXP$AAVString@5@@Z
; Line 217
	call		?get@Window@SystemColors@Drawing@System@@$$FSM?AVColor@34@XZ
	stloc.s		17		; $T25185
	ldarg.0				; this$
	ldfld		?comboBoxScreenLang@WDConfig@WordDic@@3P$AAVComboBox@Forms@Windows@System@@$AA
	ldloc.s		17		; $T25185
	callvirt	?set@BackColor@ComboBox@Forms@Windows@System@@$$FU$AAMXVColor@Drawing@5@@Z
; Line 218
	ldarg.0				; this$
	ldfld		?comboBoxScreenLang@WDConfig@WordDic@@3P$AAVComboBox@Forms@Windows@System@@$AA
	ldc.i.2		2		; i32 0x2
	call		?set@DropDownStyle@ComboBox@Forms@Windows@System@@$$FQ$AAMXW4ComboBoxStyle@345@@Z
; Line 219
	ldarg.0				; this$
	ldfld		?comboBoxScreenLang@WDConfig@WordDic@@3P$AAVComboBox@Forms@Windows@System@@$AA
	ldc.i.3		3		; i32 0x3
	call		?set@FlatStyle@ComboBox@Forms@Windows@System@@$$FQ$AAMXW41345@@Z
; Line 220
	ldarg.0				; this$
	ldfld		?comboBoxScreenLang@WDConfig@WordDic@@3P$AAVComboBox@Forms@Windows@System@@$AA
	ldc.i.1		1		; u8 0x1
	call		?set@FormattingEnabled@ListControl@Forms@Windows@System@@$$FQ$AAMX_N@Z
; Line 221
	ldarg.0				; this$
	ldfld		?comboBoxScreenLang@WDConfig@WordDic@@3P$AAVComboBox@Forms@Windows@System@@$AA
	ldc.i.0		0		; u8 0x0
	call		?set@IntegralHeight@ComboBox@Forms@Windows@System@@$$FQ$AAMX_N@Z
; Line 222
	ldc.i.1		1		; i32 0x1
	newarr		$TypeTok$113F8BC4$
	stloc.1				; $S17$
	ldloc.1				; $S17$
	ldc.i.0		0		; i32 0x0
	ldstr		$StringLiteralTok$??_C@_17GCCCAOAA@e?eg?0?$IK?$JO?$AA?$AA@
	stelem.ref	
	ldarg.0				; this$
	ldfld		?comboBoxScreenLang@WDConfig@WordDic@@3P$AAVComboBox@Forms@Windows@System@@$AA
	call		?get@Items@ComboBox@Forms@Windows@System@@$$FQ$AAMP$AAVObjectCollection@2345@XZ
	ldloc.1				; $S17$
	call		?AddRange@ObjectCollection@ComboBox@Forms@Windows@System@@$$FQ$AAMXP$01AP$AAVObject@5@@Z
; Line 223
	ldloca.s	16		; $S18$
	ldc.i4.s	14		; i32 0xe
	ldc.i4.s	19		; i32 0x13
	call		??0Point@Drawing@System@@$$FQ$CAM@HH@Z
	ldarg.0				; this$
	ldfld		?comboBoxScreenLang@WDConfig@WordDic@@3P$AAVComboBox@Forms@Windows@System@@$AA
	ldloc.s		16		; $S18$
	call		?set@Location@Control@Forms@Windows@System@@$$FQ$AAMXVPoint@Drawing@5@@Z
; Line 224
	ldarg.0				; this$
	ldfld		?comboBoxScreenLang@WDConfig@WordDic@@3P$AAVComboBox@Forms@Windows@System@@$AA
	ldstr		$StringLiteralTok$??_C@_1CG@PNCFBOPF@?$AAc?$AAo?$AAm?$AAb?$AAo?$AAB?$AAo?$AAx?$AAS?$AAc?$AAr?$AAe?$AAe?$AAn?$AAL?$AAa?$AAn?$AAg?$AA?$AA@
	call		?set@Name@Control@Forms@Windows@System@@$$FQ$AAMXP$AAVString@5@@Z
; Line 225
	ldloca.s	15		; $S19$
	ldc.i4		425		; i32 0x1a9
	ldc.i4.s	20		; i32 0x14
	call		??0Size@Drawing@System@@$$FQ$CAM@HH@Z
	ldarg.0				; this$
	ldfld		?comboBoxScreenLang@WDConfig@WordDic@@3P$AAVComboBox@Forms@Windows@System@@$AA
	ldloc.s		15		; $S19$
	call		?set@Size@Control@Forms@Windows@System@@$$FQ$AAMXV1Drawing@5@@Z
; Line 226
	ldarg.0				; this$
	ldfld		?comboBoxScreenLang@WDConfig@WordDic@@3P$AAVComboBox@Forms@Windows@System@@$AA
	ldc.i.0		0		; i32 0x0
	call		?set@TabIndex@Control@Forms@Windows@System@@$$FQ$AAMXH@Z
; Line 230
	ldarg.0				; this$
	ldfld		?tabPageSearch@WDConfig@WordDic@@3P$AAVTabPage@Forms@Windows@System@@$AA
	call		?get@Controls@Control@Forms@Windows@System@@$$FQ$AAMP$AAVControlCollection@2345@XZ
	ldarg.0				; this$
	ldfld		?labelWebSearch@WDConfig@WordDic@@3P$AAVLabel@Forms@Windows@System@@$AA
	callvirt	?Add@ControlCollection@Control@Forms@Windows@System@@$$FU$AAMXP$AAV2345@@Z
; Line 231
	ldarg.0				; this$
	ldfld		?tabPageSearch@WDConfig@WordDic@@3P$AAVTabPage@Forms@Windows@System@@$AA
	call		?get@Controls@Control@Forms@Windows@System@@$$FQ$AAMP$AAVControlCollection@2345@XZ
	ldarg.0				; this$
	ldfld		?comboBoxWebSearch@WDConfig@WordDic@@3P$AAVComboBox@Forms@Windows@System@@$AA
	callvirt	?Add@ControlCollection@Control@Forms@Windows@System@@$$FU$AAMXP$AAV2345@@Z
; Line 232
	ldloca.s	14		; $S20$
	ldc.i.4		4		; i32 0x4
	ldc.i4.s	22		; i32 0x16
	call		??0Point@Drawing@System@@$$FQ$CAM@HH@Z
	ldarg.0				; this$
	ldfld		?tabPageSearch@WDConfig@WordDic@@3P$AAVTabPage@Forms@Windows@System@@$AA
	ldloc.s		14		; $S20$
	call		?set@Location@TabPage@Forms@Windows@System@@$$FQ$AAMXVPoint@Drawing@5@@Z
; Line 233
	ldarg.0				; this$
	ldfld		?tabPageSearch@WDConfig@WordDic@@3P$AAVTabPage@Forms@Windows@System@@$AA
	ldstr		$StringLiteralTok$??_C@_1BM@LDPKGOAK@?$AAt?$AAa?$AAb?$AAP?$AAa?$AAg?$AAe?$AAS?$AAe?$AAa?$AAr?$AAc?$AAh?$AA?$AA@
	call		?set@Name@Control@Forms@Windows@System@@$$FQ$AAMXP$AAVString@5@@Z
; Line 234
	ldloca.s	13		; $T25920
	ldc.i.3		3		; i32 0x3
	call		??0Padding@Forms@Windows@System@@$$FQ$CAM@H@Z
	ldarg.0				; this$
	ldfld		?tabPageSearch@WDConfig@WordDic@@3P$AAVTabPage@Forms@Windows@System@@$AA
	ldloc.s		13		; $T25920
	call		?set@Padding@Control@Forms@Windows@System@@$$FQ$AAMXV1345@@Z
; Line 235
	ldloca.s	12		; $S21$
	ldc.i4		472		; i32 0x1d8
	ldc.i4		217		; i32 0xd9
	call		??0Size@Drawing@System@@$$FQ$CAM@HH@Z
	ldarg.0				; this$
	ldfld		?tabPageSearch@WDConfig@WordDic@@3P$AAVTabPage@Forms@Windows@System@@$AA
	ldloc.s		12		; $S21$
	call		?set@Size@Control@Forms@Windows@System@@$$FQ$AAMXV1Drawing@5@@Z
; Line 236
	ldarg.0				; this$
	ldfld		?tabPageSearch@WDConfig@WordDic@@3P$AAVTabPage@Forms@Windows@System@@$AA
	ldc.i.2		2		; i32 0x2
	call		?set@TabIndex@TabPage@Forms@Windows@System@@$$FQ$AAMXH@Z
; Line 237
	ldarg.0				; this$
	ldfld		?tabPageSearch@WDConfig@WordDic@@3P$AAVTabPage@Forms@Windows@System@@$AA
	ldstr		$StringLiteralTok$??_C@_1M@NPONKJIL@?$AAW?$AAe?$AAbi?$BM?$HN?$CC?$AA?$AA@
	callvirt	?set@Text@TabPage@Forms@Windows@System@@$$FU$AAMXP$AAVString@5@@Z
; Line 238
	ldarg.0				; this$
	ldfld		?tabPageSearch@WDConfig@WordDic@@3P$AAVTabPage@Forms@Windows@System@@$AA
	ldc.i.1		1		; u8 0x1
	call		?set@UseVisualStyleBackColor@TabPage@Forms@Windows@System@@$$FQ$AAMX_N@Z
; Line 242
	ldarg.0				; this$
	ldfld		?labelWebSearch@WDConfig@WordDic@@3P$AAVLabel@Forms@Windows@System@@$AA
	ldc.i.1		1		; u8 0x1
	callvirt	?set@AutoSize@Label@Forms@Windows@System@@$$FU$AAMX_N@Z
; Line 243
	ldloca.s	11		; $S22$
	ldc.i4.s	38		; i32 0x26
	ldc.i4.s	79		; i32 0x4f
	call		??0Point@Drawing@System@@$$FQ$CAM@HH@Z
	ldarg.0				; this$
	ldfld		?labelWebSearch@WDConfig@WordDic@@3P$AAVLabel@Forms@Windows@System@@$AA
	ldloc.s		11		; $S22$
	call		?set@Location@Control@Forms@Windows@System@@$$FQ$AAMXVPoint@Drawing@5@@Z
; Line 244
	ldarg.0				; this$
	ldfld		?labelWebSearch@WDConfig@WordDic@@3P$AAVLabel@Forms@Windows@System@@$AA
	ldstr		$StringLiteralTok$??_C@_1BO@JOKOKBID@?$AAl?$AAa?$AAb?$AAe?$AAl?$AAW?$AAe?$AAb?$AAS?$AAe?$AAa?$AAr?$AAc?$AAh?$AA?$AA@
	call		?set@Name@Control@Forms@Windows@System@@$$FQ$AAMXP$AAVString@5@@Z
; Line 245
	ldloca.s	10		; $S23$
	ldc.i4		350		; i32 0x15e
	ldc.i4.s	12		; i32 0xc
	call		??0Size@Drawing@System@@$$FQ$CAM@HH@Z
	ldarg.0				; this$
	ldfld		?labelWebSearch@WDConfig@WordDic@@3P$AAVLabel@Forms@Windows@System@@$AA
	ldloc.s		10		; $S23$
	call		?set@Size@Control@Forms@Windows@System@@$$FQ$AAMXV1Drawing@5@@Z
; Line 246
	ldarg.0				; this$
	ldfld		?labelWebSearch@WDConfig@WordDic@@3P$AAVLabel@Forms@Windows@System@@$AA
	ldc.i.1		1		; i32 0x1
	call		?set@TabIndex@Control@Forms@Windows@System@@$$FQ$AAMXH@Z
; Line 247
	ldarg.0				; this$
	ldfld		?labelWebSearch@WDConfig@WordDic@@3P$AAVLabel@Forms@Windows@System@@$AA
	ldstr		$StringLiteralTok$??_C@_1EG@FNICKEPM@?$IIhy?3N?90nSX?$IK?$JO0?$AB0?$HO0_0o?$JAxb?$JON?90n?$IK?$AA?$IEI0?$JCi?$BM?$HN?$CC0Y0?$IL?$AAW?$AAe?$AAb0?$LF0?$KE0?H0?$JC?$JAxb?$JO0W0?$HO@
	callvirt	?set@Text@Label@Forms@Windows@System@@$$FU$AAMXP$AAVString@5@@Z
; Line 251
	call		?get@Window@SystemColors@Drawing@System@@$$FSM?AVColor@34@XZ
	stloc.s		9		; $T25927
	ldarg.0				; this$
	ldfld		?comboBoxWebSearch@WDConfig@WordDic@@3P$AAVComboBox@Forms@Windows@System@@$AA
	ldloc.s		9		; $T25927
	callvirt	?set@BackColor@ComboBox@Forms@Windows@System@@$$FU$AAMXVColor@Drawing@5@@Z
; Line 252
	ldarg.0				; this$
	ldfld		?comboBoxWebSearch@WDConfig@WordDic@@3P$AAVComboBox@Forms@Windows@System@@$AA
	ldc.i.2		2		; i32 0x2
	call		?set@DropDownStyle@ComboBox@Forms@Windows@System@@$$FQ$AAMXW4ComboBoxStyle@345@@Z
; Line 253
	ldarg.0				; this$
	ldfld		?comboBoxWebSearch@WDConfig@WordDic@@3P$AAVComboBox@Forms@Windows@System@@$AA
	ldc.i.3		3		; i32 0x3
	call		?set@FlatStyle@ComboBox@Forms@Windows@System@@$$FQ$AAMXW41345@@Z
; Line 254
	ldarg.0				; this$
	ldfld		?comboBoxWebSearch@WDConfig@WordDic@@3P$AAVComboBox@Forms@Windows@System@@$AA
	ldc.i.1		1		; u8 0x1
	call		?set@FormattingEnabled@ListControl@Forms@Windows@System@@$$FQ$AAMX_N@Z
; Line 255
	ldarg.0				; this$
	ldfld		?comboBoxWebSearch@WDConfig@WordDic@@3P$AAVComboBox@Forms@Windows@System@@$AA
	ldc.i.0		0		; u8 0x0
	call		?set@IntegralHeight@ComboBox@Forms@Windows@System@@$$FQ$AAMX_N@Z
; Line 256
	ldc.i.1		1		; i32 0x1
	newarr		$TypeTok$113F8BC4$
	stloc.0				; $S24$
	ldloc.0				; $S24$
	ldc.i.0		0		; i32 0x0
	ldstr		$StringLiteralTok$??_C@_1M@OEGMPBDB@0?$KI0?s0?$KL0?k0?$LP?$AA?$AA@
	stelem.ref	
	ldarg.0				; this$
	ldfld		?comboBoxWebSearch@WDConfig@WordDic@@3P$AAVComboBox@Forms@Windows@System@@$AA
	call		?get@Items@ComboBox@Forms@Windows@System@@$$FQ$AAMP$AAVObjectCollection@2345@XZ
	ldloc.0				; $S24$
	call		?AddRange@ObjectCollection@ComboBox@Forms@Windows@System@@$$FQ$AAMXP$01AP$AAVObject@5@@Z
; Line 257
	ldloca.s	8		; $S25$
	ldc.i4.s	26		; i32 0x1a
	ldc.i4.s	46		; i32 0x2e
	call		??0Point@Drawing@System@@$$FQ$CAM@HH@Z
	ldarg.0				; this$
	ldfld		?comboBoxWebSearch@WDConfig@WordDic@@3P$AAVComboBox@Forms@Windows@System@@$AA
	ldloc.s		8		; $S25$
	call		?set@Location@Control@Forms@Windows@System@@$$FQ$AAMXVPoint@Drawing@5@@Z
; Line 258
	ldarg.0				; this$
	ldfld		?comboBoxWebSearch@WDConfig@WordDic@@3P$AAVComboBox@Forms@Windows@System@@$AA
	ldstr		$StringLiteralTok$??_C@_1CE@IDLBBKNL@?$AAc?$AAo?$AAm?$AAb?$AAo?$AAB?$AAo?$AAx?$AAW?$AAe?$AAb?$AAS?$AAe?$AAa?$AAr?$AAc?$AAh?$AA?$AA@
	call		?set@Name@Control@Forms@Windows@System@@$$FQ$AAMXP$AAVString@5@@Z
; Line 259
	ldloca.s	7		; $S26$
	ldc.i4		417		; i32 0x1a1
	ldc.i4.s	20		; i32 0x14
	call		??0Size@Drawing@System@@$$FQ$CAM@HH@Z
	ldarg.0				; this$
	ldfld		?comboBoxWebSearch@WDConfig@WordDic@@3P$AAVComboBox@Forms@Windows@System@@$AA
	ldloc.s		7		; $S26$
	call		?set@Size@Control@Forms@Windows@System@@$$FQ$AAMXV1Drawing@5@@Z
; Line 260
	ldarg.0				; this$
	ldfld		?comboBoxWebSearch@WDConfig@WordDic@@3P$AAVComboBox@Forms@Windows@System@@$AA
	ldc.i.0		0		; i32 0x0
	call		?set@TabIndex@Control@Forms@Windows@System@@$$FQ$AAMXH@Z
; Line 264
	ldloca.s	6		; $S27$
	ldc.i.4		4		; i32 0x4
	ldc.i4.s	22		; i32 0x16
	call		??0Point@Drawing@System@@$$FQ$CAM@HH@Z
	ldarg.0				; this$
	ldfld		?tabPageDic@WDConfig@WordDic@@3P$AAVTabPage@Forms@Windows@System@@$AA
	ldloc.s		6		; $S27$
	call		?set@Location@TabPage@Forms@Windows@System@@$$FQ$AAMXVPoint@Drawing@5@@Z
; Line 265
	ldarg.0				; this$
	ldfld		?tabPageDic@WDConfig@WordDic@@3P$AAVTabPage@Forms@Windows@System@@$AA
	ldstr		$StringLiteralTok$??_C@_1BG@FBBNGIDC@?$AAt?$AAa?$AAb?$AAP?$AAa?$AAg?$AAe?$AAD?$AAi?$AAc?$AA?$AA@
	call		?set@Name@Control@Forms@Windows@System@@$$FQ$AAMXP$AAVString@5@@Z
; Line 266
	ldloca.s	5		; $T25936
	ldc.i.3		3		; i32 0x3
	call		??0Padding@Forms@Windows@System@@$$FQ$CAM@H@Z
	ldarg.0				; this$
	ldfld		?tabPageDic@WDConfig@WordDic@@3P$AAVTabPage@Forms@Windows@System@@$AA
	ldloc.s		5		; $T25936
	call		?set@Padding@Control@Forms@Windows@System@@$$FQ$AAMXV1345@@Z
; Line 267
	ldloca.s	4		; $S28$
	ldc.i4		472		; i32 0x1d8
	ldc.i4		217		; i32 0xd9
	call		??0Size@Drawing@System@@$$FQ$CAM@HH@Z
	ldarg.0				; this$
	ldfld		?tabPageDic@WDConfig@WordDic@@3P$AAVTabPage@Forms@Windows@System@@$AA
	ldloc.s		4		; $S28$
	call		?set@Size@Control@Forms@Windows@System@@$$FQ$AAMXV1Drawing@5@@Z
; Line 268
	ldarg.0				; this$
	ldfld		?tabPageDic@WDConfig@WordDic@@3P$AAVTabPage@Forms@Windows@System@@$AA
	ldc.i.1		1		; i32 0x1
	call		?set@TabIndex@TabPage@Forms@Windows@System@@$$FQ$AAMXH@Z
; Line 269
	ldarg.0				; this$
	ldfld		?tabPageDic@WDConfig@WordDic@@3P$AAVTabPage@Forms@Windows@System@@$AA
	ldstr		$StringLiteralTok$??_C@_15FFGPIHPG@?$IP?$JOf?x?$AA?$AA@
	callvirt	?set@Text@TabPage@Forms@Windows@System@@$$FU$AAMXP$AAVString@5@@Z
; Line 273
	ldloca.s	3		; $S29$
	ldc.r4		6.000000
	ldc.r4		12.000000
	call		??0SizeF@Drawing@System@@$$FQ$CAM@MM@Z
	ldarg.0				; this$
	ldloc.3				; $S29$
	call		?set@AutoScaleDimensions@ContainerControl@Forms@Windows@System@@$$FQ$AAMXVSizeF@Drawing@5@@Z
; Line 274
	ldarg.0				; this$
	ldc.i.1		1		; i32 0x1
	call		?set@AutoScaleMode@ContainerControl@Forms@Windows@System@@$$FQ$AAMXW41345@@Z
; Line 275
	ldloca.s	2		; $S30$
	ldc.i4		480		; i32 0x1e0
	ldc.i4		272		; i32 0x110
	call		??0Size@Drawing@System@@$$FQ$CAM@HH@Z
	ldarg.0				; this$
	ldloc.2				; $S30$
	call		?set@ClientSize@Form@Forms@Windows@System@@$$FQ$AAMXVSize@Drawing@5@@Z
; Line 276
	ldarg.0				; this$
	call		?get@Controls@Control@Forms@Windows@System@@$$FQ$AAMP$AAVControlCollection@2345@XZ
	ldarg.0				; this$
	ldfld		?tabControlBase@WDConfig@WordDic@@3P$AAVTabControl@Forms@Windows@System@@$AA
	callvirt	?Add@ControlCollection@Control@Forms@Windows@System@@$$FU$AAMXP$AAV2345@@Z
; Line 277
	ldarg.0				; this$
	call		?get@Controls@Control@Forms@Windows@System@@$$FQ$AAMP$AAVControlCollection@2345@XZ
	ldarg.0				; this$
	ldfld		?panelBottuns@WDConfig@WordDic@@3P$AAVPanel@Forms@Windows@System@@$AA
	callvirt	?Add@ControlCollection@Control@Forms@Windows@System@@$$FU$AAMXP$AAV2345@@Z
; Line 278
	ldarg.0				; this$
	ldc.i.1		1		; i32 0x1
	call		?set@FormBorderStyle@Form@Forms@Windows@System@@$$FQ$AAMXW41345@@Z
; Line 279
	ldarg.0				; this$
	ldloc.s		35		; resources$
	ldstr		$StringLiteralTok$??_C@_1BG@GPPJDCEN@?$AA$?$AAt?$AAh?$AAi?$AAs?$AA?4?$AAI?$AAc?$AAo?$AAn?$AA?$AA@
	callvirt	?GetObject@ResourceManager@Resources@System@@$$FU$AAMP$AAVObject@3@P$AAVString@3@@Z
	castClass	$TypeTok$1133D2B8$
	call		?set@Icon@Form@Forms@Windows@System@@$$FQ$AAMXP$AAV1Drawing@5@@Z
; Line 280
	ldarg.0				; this$
	ldstr		$StringLiteralTok$??_C@_1BC@CABFIBFH@?$AAW?$AAD?$AAC?$AAo?$AAn?$AAf?$AAi?$AAg?$AA?$AA@
	call		?set@Name@Control@Forms@Windows@System@@$$FQ$AAMXP$AAVString@5@@Z
; Line 281
	ldarg.0				; this$
	ldc.i.4		4		; i32 0x4
	call		?set@StartPosition@Form@Forms@Windows@System@@$$FQ$AAMXW4FormStartPosition@345@@Z
; Line 282
	ldarg.0				; this$
	ldstr		$StringLiteralTok$??_C@_19PMMDIJGA@?$IK?9?$FL?$JKu?$DL?$JHb?$AA?$AA@
	callvirt	?set@Text@Form@Forms@Windows@System@@$$FU$AAMXP$AAVString@5@@Z
; Line 283
	ldarg.0				; this$
	dup		
	ldftn		?WDConfig_Shown@WDConfig@WordDic@@$$FA$AAMXP$AAVObject@System@@P$AAVEventArgs@4@@Z
	newobj		??0EventHandler@System@@$$FQ$AAM@P$AAVObject@1@VIntPtr@1@@Z
	call		?add@Shown@Form@Forms@Windows@System@@$$FQ$AAMXP$AAVEventHandler@5@@Z
; Line 284
	ldarg.0				; this$
	ldfld		?panelBottuns@WDConfig@WordDic@@3P$AAVPanel@Forms@Windows@System@@$AA
	ldc.i.0		0		; u8 0x0
	call		?ResumeLayout@Control@Forms@Windows@System@@$$FQ$AAMX_N@Z
; Line 285
	ldarg.0				; this$
	ldfld		?tabControlBase@WDConfig@WordDic@@3P$AAVTabControl@Forms@Windows@System@@$AA
	ldc.i.0		0		; u8 0x0
	call		?ResumeLayout@Control@Forms@Windows@System@@$$FQ$AAMX_N@Z
; Line 286
	ldarg.0				; this$
	ldfld		?tabPageBase@WDConfig@WordDic@@3P$AAVTabPage@Forms@Windows@System@@$AA
	ldc.i.0		0		; u8 0x0
	call		?ResumeLayout@Control@Forms@Windows@System@@$$FQ$AAMX_N@Z
; Line 287
	ldarg.0				; this$
	ldfld		?groupScreenLang@WDConfig@WordDic@@3P$AAVGroupBox@Forms@Windows@System@@$AA
	ldc.i.0		0		; u8 0x0
	call		?ResumeLayout@Control@Forms@Windows@System@@$$FQ$AAMX_N@Z
; Line 288
	ldarg.0				; this$
	ldfld		?groupScreenLang@WDConfig@WordDic@@3P$AAVGroupBox@Forms@Windows@System@@$AA
	call		?PerformLayout@Control@Forms@Windows@System@@$$FQ$AAMXXZ
; Line 289
	ldarg.0				; this$
	ldfld		?tabPageSearch@WDConfig@WordDic@@3P$AAVTabPage@Forms@Windows@System@@$AA
	ldc.i.0		0		; u8 0x0
	call		?ResumeLayout@Control@Forms@Windows@System@@$$FQ$AAMX_N@Z
; Line 290
	ldarg.0				; this$
	ldfld		?tabPageSearch@WDConfig@WordDic@@3P$AAVTabPage@Forms@Windows@System@@$AA
	call		?PerformLayout@Control@Forms@Windows@System@@$$FQ$AAMXXZ
; Line 291
	ldarg.0				; this$
	ldc.i.0		0		; u8 0x0
	call		?ResumeLayout@Control@Forms@Windows@System@@$$FQ$AAMX_N@Z
; Line 293
	ret		
 .end ?InitializeComponent@WDConfig@WordDic@@$$FA$AAMXXZ ; WordDic::WDConfig::InitializeComponent
;	.proc.end.void
; Function compile flags: /Ogtp
	.text
	.comdat	any, ?<Dispose>@WDConfig@WordDic@@$$FM$AAMX_N@Z
.global	?<Dispose>@WDConfig@WordDic@@$$FM$AAMX_N@Z	; WordDic::WDConfig::<Dispose>
?<Dispose>@WDConfig@WordDic@@$$FM$AAMX_N@Z:		; WordDic::WDConfig::<Dispose>
;	.proc.def	D:V(I)

; Function Header:
; max stack depth = 2
; function size = 27 bytes
; local varsig tk = 0x0 
; Exception Information:
; 1 handlers, each consisting of filtered handlers

;	.formal.mptr 0,"this$" SIG: Optional C Binding Modifier(token:0x2F4C069).class (token:0x2F4C06C)
;	.formal.u1 1,"disposing$" SIG: bool

;	.proc.beg
	ldarg.1				; disposing$
	brfalse.s	$LN3@
$LN13@:
	ldarg.0				; this$
	call		??1WDConfig@WordDic@@$$FA$AAM@XZ
$LN2@:
	leave.s		$LN12@
$LN7@:
	ldarg.0				; this$
	ldc.i.1		1		; u8 0x1
	call		?<Dispose>@Form@Forms@Windows@System@@$$FM$AAMX_N@Z
$LN9@:
	endfinally	
$LN3@:
	ldarg.0				; this$
	ldc.i.0		0		; u8 0x0
	call		?<Dispose>@Form@Forms@Windows@System@@$$FM$AAMX_N@Z
$LN12@:
	ret		
 .end ?<Dispose>@WDConfig@WordDic@@$$FM$AAMX_N@Z	; WordDic::WDConfig::<Dispose>
;	.proc.end.void
.global	?components@WDVerDialog@WordDic@@3P$AAUIContainer@ComponentModel@System@@$AA ; WordDic::WDVerDialog::components
	.bss
.local	$T33331,0
.local	?components@WDVerDialog@WordDic@@3P$AAUIContainer@ComponentModel@System@@$AA,4 ; WordDic::WDVerDialog::components
; Function compile flags: /Ogtp
	.text
	.comdat	any, ??1WDVerDialog@WordDic@@$$FA$AAM@XZ
.global	??1WDVerDialog@WordDic@@$$FA$AAM@XZ		; WordDic::WDVerDialog::~WDVerDialog
??1WDVerDialog@WordDic@@$$FA$AAM@XZ:			; WordDic::WDVerDialog::~WDVerDialog
;	.proc.def	D:V()

; Function Header:
; max stack depth = 1
; function size = 17 bytes
; local varsig tk = 0x11000003 
; Exception Information:
; 0 handlers, each consisting of filtered handlers

;	.formal.mptr 0,"this$" SIG: Optional C Binding Modifier(token:0x2F49ADD).class (token:0x2F49AE0)
;	.local.u4 0,"$T33330" SIG: class (token:0x2F416A9)

;	.proc.beg
; File c:\users\amotoo\documents\myproject\worddicbt\worddic\wdverdialog.h
; Line 45
	ldarg.0				; this$
	ldfld		?components@WDVerDialog@WordDic@@3P$AAUIContainer@ComponentModel@System@@$AA
	stloc.0				; $T33330
	ldloc.0				; $T33330
	brfalse.s	$LN4@WDVerDialo
; Line 47
	ldloc.0				; $T33330
	callvirt	?<Dispose>@IDisposable@System@@$$FU$AAMXXZ
$LN4@WDVerDialo:
; Line 49
	ret		
 .end ??1WDVerDialog@WordDic@@$$FA$AAM@XZ		; WordDic::WDVerDialog::~WDVerDialog
;	.proc.end.void
.global	?labelCopyRight@WDVerDialog@WordDic@@3P$AAVLabel@Forms@Windows@System@@$AA ; WordDic::WDVerDialog::labelCopyRight
.global	?labelVersion@WDVerDialog@WordDic@@3P$AAVLabel@Forms@Windows@System@@$AA ; WordDic::WDVerDialog::labelVersion
.global	?labelWordDic@WDVerDialog@WordDic@@3P$AAVLabel@Forms@Windows@System@@$AA ; WordDic::WDVerDialog::labelWordDic
.global	?pictureBoxIcon@WDVerDialog@WordDic@@3P$AAVPictureBox@Forms@Windows@System@@$AA ; WordDic::WDVerDialog::pictureBoxIcon
.global	?buttonOK@WDVerDialog@WordDic@@3P$AAVButton@Forms@Windows@System@@$AA ; WordDic::WDVerDialog::buttonOK
	.bss
.local	$T33333,0
.local	$StringLiteralTok$??_C@_1BO@KAJFOHLM@0S0h0p0n?$IP?$JOQx0?$AA0?P0?$PM0?$LI0?g0?s?$GA?EX1?$AA?$AA@,4
.local	$StringLiteralTok$??_C@_1BI@KDEIBIDA@?$AAW?$AAD?$AAV?$AAe?$AAr?$AAD?$AAi?$AAa?$AAl?$AAo?$AAg?$AA?$AA@,4
.local	$StringLiteralTok$??_C@_1DM@IPJEHKGP@?$AAC?$AAo?$AAp?$AAy?$AAR?$AAi?$AAg?$AAh?$AAt?$AA?$CI?$AAc?$AA?$CJ0?$AA?$AA2?$AA0?$AA0?$AA7?$AA?9?$AA2?$AA0?$AA1?$AA00?$AA?$IF?dN?$JF0?$AAQC?$JG?D0?$AA?$AA?$AA@,4
.local	$StringLiteralTok$??_C@_1BO@GLOBCFBK@?$AAl?$AAa?$AAb?$AAe?$AAl?$AAC?$AAo?$AAp?$AAy?$AAR?$AAi?$AAg?$AAh?$AAt?$AA?$AA@,4
.local	$StringLiteralTok$??_C@_1BK@HAKFPKDN@?$AAV?$AAe?$AAr?$AA?4?$AA?5?$AA1?$AA?4?$AA0?$AA?4?$AA3?$AA?4?$AA0?$AA?$AA@,4
.local	$StringLiteralTok$??_C@_1BK@FPFECBC@?$AAl?$AAa?$AAb?$AAe?$AAl?$AAV?$AAe?$AAr?$AAs?$AAi?$AAo?$AAn?$AA?$AA@,4
.local	$StringLiteralTok$??_C@_1O@BGDGBKKO@0S0h0p0n?$IP?$JOQx?$AA?$AA@,4
.local	$StringLiteralTok$??_C@_1BK@PKJINPMO@?$AAl?$AAa?$AAb?$AAe?$AAl?$AAW?$AAo?$AAr?$AAd?$AAD?$AAi?$AAc?$AA?$AA@,4
.local	$StringLiteralTok$??_C@_1BO@LPDIHMJA@?$AAp?$AAi?$AAc?$AAt?$AAu?$AAr?$AAe?$AAB?$AAo?$AAx?$AAI?$AAc?$AAo?$AAn?$AA?$AA@,4
.local	$StringLiteralTok$??_C@_1DI@GMDJKOMP@?$AAp?$AAi?$AAc?$AAt?$AAu?$AAr?$AAe?$AAB?$AAo?$AAx?$AAI?$AAc?$AAo?$AAn?$AA?4?$AAI?$AAn?$AAi?$AAt?$AAi?$AAa?$AAl?$AAI?$AAm?$AAa?$AAg?$AAe?$AA?$AA@,4
.local	$TypeTok$1133D0F0$,4
.local	$StringLiteralTok$??_C@_1DO@BFJKMPGH@?$AAp?$AAi?$AAc?$AAt?$AAu?$AAr?$AAe?$AAB?$AAo?$AAx?$AAI?$AAc?$AAo?$AAn?$AA?4?$AAB?$AAa?$AAc?$AAk?$AAg?$AAr?$AAo?$AAu?$AAn?$AAd?$AAI?$AAm?$AAa?$AAg?$AAe?$AA?$AA@,4
.local	?labelCopyRight@WDVerDialog@WordDic@@3P$AAVLabel@Forms@Windows@System@@$AA,4 ; WordDic::WDVerDialog::labelCopyRight
.local	?labelVersion@WDVerDialog@WordDic@@3P$AAVLabel@Forms@Windows@System@@$AA,4 ; WordDic::WDVerDialog::labelVersion
.local	?labelWordDic@WDVerDialog@WordDic@@3P$AAVLabel@Forms@Windows@System@@$AA,4 ; WordDic::WDVerDialog::labelWordDic
.local	?pictureBoxIcon@WDVerDialog@WordDic@@3P$AAVPictureBox@Forms@Windows@System@@$AA,4 ; WordDic::WDVerDialog::pictureBoxIcon
.local	?buttonOK@WDVerDialog@WordDic@@3P$AAVButton@Forms@Windows@System@@$AA,4 ; WordDic::WDVerDialog::buttonOK
.local	$TypeTok$115FEF00$,4
; Function compile flags: /Ogtp
	.text
	.comdat	any, ?InitializeComponent@WDVerDialog@WordDic@@$$FA$AAMXXZ
.global	?InitializeComponent@WDVerDialog@WordDic@@$$FA$AAMXXZ ; WordDic::WDVerDialog::InitializeComponent
?InitializeComponent@WDVerDialog@WordDic@@$$FA$AAMXXZ:	; WordDic::WDVerDialog::InitializeComponent
;	.proc.def	D:V()

; Function Header:
; max stack depth = 3
; function size = 966 bytes
; local varsig tk = 0x11000004 
; Exception Information:
; 0 handlers, each consisting of filtered handlers

;	.formal.mptr 0,"this$" SIG: Optional C Binding Modifier(token:0x2F49ADD).class (token:0x2F49AE0)
;	.local.mb8   1,"$S42$" SIG: valueType (token:0x2F3CDC1)
;	.local.mb8   2,"$S41$" SIG: valueType (token:0x2F4C09D)
;	.local.mb8   3,"$S40$" SIG: valueType (token:0x2F3CDC1)
;	.local.mb8   4,"$S39$" SIG: valueType (token:0x2F4CE99)
;	.local.mb8   5,"$S38$" SIG: valueType (token:0x2F3CDC1)
;	.local.mb8   6,"$S37$" SIG: valueType (token:0x2F4CE99)
;	.local.mb8   7,"$S36$" SIG: valueType (token:0x2F3CDC1)
;	.local.mb8   8,"$S35$" SIG: valueType (token:0x2F4CE99)
;	.local.mb8   9,"$S34$" SIG: valueType (token:0x2F3CDC1)
;	.local.mb8   10,"$S33$" SIG: valueType (token:0x2F4CE99)
;	.local.mb8   11,"$S32$" SIG: valueType (token:0x2F3CDC1)
;	.local.mb8   12,"$S31$" SIG: valueType (token:0x2F4CE99)
;	.local.mptr 0,"resources$" SIG: class (token:0x2F3F825)

;	.proc.beg
; Line 76
	ldtoken		$TypeTok$115FEF00$
	call		?GetTypeFromHandle@Type@System@@$$FSMP$AAV12@VRuntimeTypeHandle@2@@Z
	newobj		??0ComponentResourceManager@ComponentModel@System@@$$FQ$AAM@P$AAVType@2@@Z
	stloc.0				; resources$
; Line 77
	ldarg.0				; this$
	newobj		??0Button@Forms@Windows@System@@$$FQ$AAM@XZ
	stfld		?buttonOK@WDVerDialog@WordDic@@3P$AAVButton@Forms@Windows@System@@$AA
; Line 78
	ldarg.0				; this$
	newobj		??0PictureBox@Forms@Windows@System@@$$FQ$AAM@XZ
	stfld		?pictureBoxIcon@WDVerDialog@WordDic@@3P$AAVPictureBox@Forms@Windows@System@@$AA
; Line 79
	ldarg.0				; this$
	newobj		??0Label@Forms@Windows@System@@$$FQ$AAM@XZ
	stfld		?labelWordDic@WDVerDialog@WordDic@@3P$AAVLabel@Forms@Windows@System@@$AA
; Line 80
	ldarg.0				; this$
	newobj		??0Label@Forms@Windows@System@@$$FQ$AAM@XZ
	stfld		?labelVersion@WDVerDialog@WordDic@@3P$AAVLabel@Forms@Windows@System@@$AA
; Line 81
	ldarg.0				; this$
	newobj		??0Label@Forms@Windows@System@@$$FQ$AAM@XZ
	stfld		?labelCopyRight@WDVerDialog@WordDic@@3P$AAVLabel@Forms@Windows@System@@$AA
; Line 82
	ldarg.0				; this$
	ldfld		?pictureBoxIcon@WDVerDialog@WordDic@@3P$AAVPictureBox@Forms@Windows@System@@$AA
	callvirt	?BeginInit@ISupportInitialize@ComponentModel@System@@$$FU$AAMXXZ
; Line 83
	ldarg.0				; this$
	call		?SuspendLayout@Control@Forms@Windows@System@@$$FQ$AAMXXZ
; Line 87
	ldloca.s	12		; $S31$
	ldc.i4.s	117		; i32 0x75
	ldc.i4.s	121		; i32 0x79
	call		??0Point@Drawing@System@@$$FQ$CAM@HH@Z
	ldarg.0				; this$
	ldfld		?buttonOK@WDVerDialog@WordDic@@3P$AAVButton@Forms@Windows@System@@$AA
	ldloc.s		12		; $S31$
	call		?set@Location@Control@Forms@Windows@System@@$$FQ$AAMXVPoint@Drawing@5@@Z
; Line 88
	ldarg.0				; this$
	ldfld		?buttonOK@WDVerDialog@WordDic@@3P$AAVButton@Forms@Windows@System@@$AA
	ldstr		$StringLiteralTok$??_C@_1BC@FMNNPBEK@?$AAb?$AAu?$AAt?$AAt?$AAo?$AAn?$AAO?$AAK?$AA?$AA@
	call		?set@Name@Control@Forms@Windows@System@@$$FQ$AAMXP$AAVString@5@@Z
; Line 89
	ldloca.s	11		; $S32$
	ldc.i4.s	75		; i32 0x4b
	ldc.i4.s	23		; i32 0x17
	call		??0Size@Drawing@System@@$$FQ$CAM@HH@Z
	ldarg.0				; this$
	ldfld		?buttonOK@WDVerDialog@WordDic@@3P$AAVButton@Forms@Windows@System@@$AA
	ldloc.s		11		; $S32$
	call		?set@Size@Control@Forms@Windows@System@@$$FQ$AAMXV1Drawing@5@@Z
; Line 90
	ldarg.0				; this$
	ldfld		?buttonOK@WDVerDialog@WordDic@@3P$AAVButton@Forms@Windows@System@@$AA
	ldc.i.0		0		; i32 0x0
	call		?set@TabIndex@Control@Forms@Windows@System@@$$FQ$AAMXH@Z
; Line 91
	ldarg.0				; this$
	ldfld		?buttonOK@WDVerDialog@WordDic@@3P$AAVButton@Forms@Windows@System@@$AA
	ldstr		$StringLiteralTok$??_C@_15PMCGDJNJ@?$AAO?$AAK?$AA?$AA@
	callvirt	?set@Text@ButtonBase@Forms@Windows@System@@$$FU$AAMXP$AAVString@5@@Z
; Line 92
	ldarg.0				; this$
	ldfld		?buttonOK@WDVerDialog@WordDic@@3P$AAVButton@Forms@Windows@System@@$AA
	ldc.i.1		1		; u8 0x1
	call		?set@UseVisualStyleBackColor@ButtonBase@Forms@Windows@System@@$$FQ$AAMX_N@Z
; Line 93
	ldarg.0				; this$
	ldfld		?buttonOK@WDVerDialog@WordDic@@3P$AAVButton@Forms@Windows@System@@$AA
	ldarg.0				; this$
	ldftn		?buttonOK_Click@WDVerDialog@WordDic@@$$FA$AAMXP$AAVObject@System@@P$AAVEventArgs@4@@Z
	newobj		??0EventHandler@System@@$$FQ$AAM@P$AAVObject@1@VIntPtr@1@@Z
	call		?add@Click@Control@Forms@Windows@System@@$$FQ$AAMXP$AAVEventHandler@5@@Z
; Line 97
	ldarg.0				; this$
	ldfld		?pictureBoxIcon@WDVerDialog@WordDic@@3P$AAVPictureBox@Forms@Windows@System@@$AA
	ldloc.0				; resources$
	ldstr		$StringLiteralTok$??_C@_1DO@BFJKMPGH@?$AAp?$AAi?$AAc?$AAt?$AAu?$AAr?$AAe?$AAB?$AAo?$AAx?$AAI?$AAc?$AAo?$AAn?$AA?4?$AAB?$AAa?$AAc?$AAk?$AAg?$AAr?$AAo?$AAu?$AAn?$AAd?$AAI?$AAm?$AAa?$AAg?$AAe?$AA?$AA@
	callvirt	?GetObject@ResourceManager@Resources@System@@$$FU$AAMP$AAVObject@3@P$AAVString@3@@Z
	castClass	$TypeTok$1133D0F0$
	callvirt	?set@BackgroundImage@Control@Forms@Windows@System@@$$FU$AAMXP$AAVImage@Drawing@5@@Z
; Line 98
	ldarg.0				; this$
	ldfld		?pictureBoxIcon@WDVerDialog@WordDic@@3P$AAVPictureBox@Forms@Windows@System@@$AA
	ldc.i.4		4		; i32 0x4
	callvirt	?set@BackgroundImageLayout@Control@Forms@Windows@System@@$$FU$AAMXW4ImageLayout@345@@Z
; Line 99
	ldarg.0				; this$
	ldfld		?pictureBoxIcon@WDVerDialog@WordDic@@3P$AAVPictureBox@Forms@Windows@System@@$AA
	ldloc.0				; resources$
	ldstr		$StringLiteralTok$??_C@_1DI@GMDJKOMP@?$AAp?$AAi?$AAc?$AAt?$AAu?$AAr?$AAe?$AAB?$AAo?$AAx?$AAI?$AAc?$AAo?$AAn?$AA?4?$AAI?$AAn?$AAi?$AAt?$AAi?$AAa?$AAl?$AAI?$AAm?$AAa?$AAg?$AAe?$AA?$AA@
	callvirt	?GetObject@ResourceManager@Resources@System@@$$FU$AAMP$AAVObject@3@P$AAVString@3@@Z
	castClass	$TypeTok$1133D0F0$
	call		?set@InitialImage@PictureBox@Forms@Windows@System@@$$FQ$AAMXP$AAVImage@Drawing@5@@Z
; Line 100
	ldloca.s	10		; $S33$
	ldc.i4.s	12		; i32 0xc
	ldc.i4.s	25		; i32 0x19
	call		??0Point@Drawing@System@@$$FQ$CAM@HH@Z
	ldarg.0				; this$
	ldfld		?pictureBoxIcon@WDVerDialog@WordDic@@3P$AAVPictureBox@Forms@Windows@System@@$AA
	ldloc.s		10		; $S33$
	call		?set@Location@Control@Forms@Windows@System@@$$FQ$AAMXVPoint@Drawing@5@@Z
; Line 101
	ldarg.0				; this$
	ldfld		?pictureBoxIcon@WDVerDialog@WordDic@@3P$AAVPictureBox@Forms@Windows@System@@$AA
	ldstr		$StringLiteralTok$??_C@_1BO@LPDIHMJA@?$AAp?$AAi?$AAc?$AAt?$AAu?$AAr?$AAe?$AAB?$AAo?$AAx?$AAI?$AAc?$AAo?$AAn?$AA?$AA@
	call		?set@Name@Control@Forms@Windows@System@@$$FQ$AAMXP$AAVString@5@@Z
; Line 102
	ldloca.s	9		; $S34$
	ldc.i4.s	64		; i32 0x40
	ldc.i4.s	59		; i32 0x3b
	call		??0Size@Drawing@System@@$$FQ$CAM@HH@Z
	ldarg.0				; this$
	ldfld		?pictureBoxIcon@WDVerDialog@WordDic@@3P$AAVPictureBox@Forms@Windows@System@@$AA
	ldloc.s		9		; $S34$
	call		?set@Size@Control@Forms@Windows@System@@$$FQ$AAMXV1Drawing@5@@Z
; Line 103
	ldarg.0				; this$
	ldfld		?pictureBoxIcon@WDVerDialog@WordDic@@3P$AAVPictureBox@Forms@Windows@System@@$AA
	ldc.i.2		2		; i32 0x2
	call		?set@SizeMode@PictureBox@Forms@Windows@System@@$$FQ$AAMXW4PictureBoxSizeMode@345@@Z
; Line 104
	ldarg.0				; this$
	ldfld		?pictureBoxIcon@WDVerDialog@WordDic@@3P$AAVPictureBox@Forms@Windows@System@@$AA
	ldc.i.1		1		; i32 0x1
	call		?set@TabIndex@PictureBox@Forms@Windows@System@@$$FQ$AAMXH@Z
; Line 105
	ldarg.0				; this$
	ldfld		?pictureBoxIcon@WDVerDialog@WordDic@@3P$AAVPictureBox@Forms@Windows@System@@$AA
	ldc.i.0		0		; u8 0x0
	call		?set@TabStop@PictureBox@Forms@Windows@System@@$$FQ$AAMX_N@Z
; Line 109
	ldarg.0				; this$
	ldfld		?labelWordDic@WDVerDialog@WordDic@@3P$AAVLabel@Forms@Windows@System@@$AA
	ldc.i.1		1		; u8 0x1
	callvirt	?set@AutoSize@Label@Forms@Windows@System@@$$FU$AAMX_N@Z
; Line 110
	ldloca.s	8		; $S35$
	ldc.i4.s	82		; i32 0x52
	ldc.i4.s	25		; i32 0x19
	call		??0Point@Drawing@System@@$$FQ$CAM@HH@Z
	ldarg.0				; this$
	ldfld		?labelWordDic@WDVerDialog@WordDic@@3P$AAVLabel@Forms@Windows@System@@$AA
	ldloc.s		8		; $S35$
	call		?set@Location@Control@Forms@Windows@System@@$$FQ$AAMXVPoint@Drawing@5@@Z
; Line 111
	ldarg.0				; this$
	ldfld		?labelWordDic@WDVerDialog@WordDic@@3P$AAVLabel@Forms@Windows@System@@$AA
	ldstr		$StringLiteralTok$??_C@_1BK@PKJINPMO@?$AAl?$AAa?$AAb?$AAe?$AAl?$AAW?$AAo?$AAr?$AAd?$AAD?$AAi?$AAc?$AA?$AA@
	call		?set@Name@Control@Forms@Windows@System@@$$FQ$AAMXP$AAVString@5@@Z
; Line 112
	ldloca.s	7		; $S36$
	ldc.i4.s	65		; i32 0x41
	ldc.i4.s	12		; i32 0xc
	call		??0Size@Drawing@System@@$$FQ$CAM@HH@Z
	ldarg.0				; this$
	ldfld		?labelWordDic@WDVerDialog@WordDic@@3P$AAVLabel@Forms@Windows@System@@$AA
	ldloc.s		7		; $S36$
	call		?set@Size@Control@Forms@Windows@System@@$$FQ$AAMXV1Drawing@5@@Z
; Line 113
	ldarg.0				; this$
	ldfld		?labelWordDic@WDVerDialog@WordDic@@3P$AAVLabel@Forms@Windows@System@@$AA
	ldc.i.2		2		; i32 0x2
	call		?set@TabIndex@Control@Forms@Windows@System@@$$FQ$AAMXH@Z
; Line 114
	ldarg.0				; this$
	ldfld		?labelWordDic@WDVerDialog@WordDic@@3P$AAVLabel@Forms@Windows@System@@$AA
	ldstr		$StringLiteralTok$??_C@_1O@BGDGBKKO@0S0h0p0n?$IP?$JOQx?$AA?$AA@
	callvirt	?set@Text@Label@Forms@Windows@System@@$$FU$AAMXP$AAVString@5@@Z
; Line 118
	ldarg.0				; this$
	ldfld		?labelVersion@WDVerDialog@WordDic@@3P$AAVLabel@Forms@Windows@System@@$AA
	ldc.i.1		1		; u8 0x1
	callvirt	?set@AutoSize@Label@Forms@Windows@System@@$$FU$AAMX_N@Z
; Line 119
	ldloca.s	6		; $S37$
	ldc.i4.s	82		; i32 0x52
	ldc.i4.s	47		; i32 0x2f
	call		??0Point@Drawing@System@@$$FQ$CAM@HH@Z
	ldarg.0				; this$
	ldfld		?labelVersion@WDVerDialog@WordDic@@3P$AAVLabel@Forms@Windows@System@@$AA
	ldloc.s		6		; $S37$
	call		?set@Location@Control@Forms@Windows@System@@$$FQ$AAMXVPoint@Drawing@5@@Z
; Line 120
	ldarg.0				; this$
	ldfld		?labelVersion@WDVerDialog@WordDic@@3P$AAVLabel@Forms@Windows@System@@$AA
	ldstr		$StringLiteralTok$??_C@_1BK@FPFECBC@?$AAl?$AAa?$AAb?$AAe?$AAl?$AAV?$AAe?$AAr?$AAs?$AAi?$AAo?$AAn?$AA?$AA@
	call		?set@Name@Control@Forms@Windows@System@@$$FQ$AAMXP$AAVString@5@@Z
; Line 121
	ldloca.s	5		; $S38$
	ldc.i4.s	59		; i32 0x3b
	ldc.i4.s	12		; i32 0xc
	call		??0Size@Drawing@System@@$$FQ$CAM@HH@Z
	ldarg.0				; this$
	ldfld		?labelVersion@WDVerDialog@WordDic@@3P$AAVLabel@Forms@Windows@System@@$AA
	ldloc.s		5		; $S38$
	call		?set@Size@Control@Forms@Windows@System@@$$FQ$AAMXV1Drawing@5@@Z
; Line 122
	ldarg.0				; this$
	ldfld		?labelVersion@WDVerDialog@WordDic@@3P$AAVLabel@Forms@Windows@System@@$AA
	ldc.i.3		3		; i32 0x3
	call		?set@TabIndex@Control@Forms@Windows@System@@$$FQ$AAMXH@Z
; Line 123
	ldarg.0				; this$
	ldfld		?labelVersion@WDVerDialog@WordDic@@3P$AAVLabel@Forms@Windows@System@@$AA
	ldstr		$StringLiteralTok$??_C@_1BK@HAKFPKDN@?$AAV?$AAe?$AAr?$AA?4?$AA?5?$AA1?$AA?4?$AA0?$AA?4?$AA3?$AA?4?$AA0?$AA?$AA@
	callvirt	?set@Text@Label@Forms@Windows@System@@$$FU$AAMXP$AAVString@5@@Z
; Line 127
	ldarg.0				; this$
	ldfld		?labelCopyRight@WDVerDialog@WordDic@@3P$AAVLabel@Forms@Windows@System@@$AA
	ldc.i.1		1		; u8 0x1
	callvirt	?set@AutoSize@Label@Forms@Windows@System@@$$FU$AAMX_N@Z
; Line 128
	ldloca.s	4		; $S39$
	ldc.i4.s	82		; i32 0x52
	ldc.i4.s	63		; i32 0x3f
	call		??0Point@Drawing@System@@$$FQ$CAM@HH@Z
	ldarg.0				; this$
	ldfld		?labelCopyRight@WDVerDialog@WordDic@@3P$AAVLabel@Forms@Windows@System@@$AA
	ldloc.s		4		; $S39$
	call		?set@Location@Control@Forms@Windows@System@@$$FQ$AAMXVPoint@Drawing@5@@Z
; Line 129
	ldarg.0				; this$
	ldfld		?labelCopyRight@WDVerDialog@WordDic@@3P$AAVLabel@Forms@Windows@System@@$AA
	ldstr		$StringLiteralTok$??_C@_1BO@GLOBCFBK@?$AAl?$AAa?$AAb?$AAe?$AAl?$AAC?$AAo?$AAp?$AAy?$AAR?$AAi?$AAg?$AAh?$AAt?$AA?$AA@
	call		?set@Name@Control@Forms@Windows@System@@$$FQ$AAMXP$AAVString@5@@Z
; Line 130
	ldloca.s	3		; $S40$
	ldc.i4		206		; i32 0xce
	ldc.i4.s	12		; i32 0xc
	call		??0Size@Drawing@System@@$$FQ$CAM@HH@Z
	ldarg.0				; this$
	ldfld		?labelCopyRight@WDVerDialog@WordDic@@3P$AAVLabel@Forms@Windows@System@@$AA
	ldloc.3				; $S40$
	call		?set@Size@Control@Forms@Windows@System@@$$FQ$AAMXV1Drawing@5@@Z
; Line 131
	ldarg.0				; this$
	ldfld		?labelCopyRight@WDVerDialog@WordDic@@3P$AAVLabel@Forms@Windows@System@@$AA
	ldc.i.4		4		; i32 0x4
	call		?set@TabIndex@Control@Forms@Windows@System@@$$FQ$AAMXH@Z
; Line 132
	ldarg.0				; this$
	ldfld		?labelCopyRight@WDVerDialog@WordDic@@3P$AAVLabel@Forms@Windows@System@@$AA
	ldstr		$StringLiteralTok$??_C@_1DM@IPJEHKGP@?$AAC?$AAo?$AAp?$AAy?$AAR?$AAi?$AAg?$AAh?$AAt?$AA?$CI?$AAc?$AA?$CJ0?$AA?$AA2?$AA0?$AA0?$AA7?$AA?9?$AA2?$AA0?$AA1?$AA00?$AA?$IF?dN?$JF0?$AAQC?$JG?D0?$AA?$AA?$AA@
	callvirt	?set@Text@Label@Forms@Windows@System@@$$FU$AAMXP$AAVString@5@@Z
; Line 136
	ldarg.0				; this$
	dup		
	ldfld		?buttonOK@WDVerDialog@WordDic@@3P$AAVButton@Forms@Windows@System@@$AA
	call		?set@AcceptButton@Form@Forms@Windows@System@@$$FQ$AAMXP$AAUIButtonControl@345@@Z
; Line 137
	ldarg.0				; this$
	ldc.i4.s	18		; i32 0x12
	call		?set@AccessibleRole@Control@Forms@Windows@System@@$$FQ$AAMXW41345@@Z
; Line 138
	ldloca.s	2		; $S41$
	ldc.r4		6.000000
	ldc.r4		12.000000
	call		??0SizeF@Drawing@System@@$$FQ$CAM@MM@Z
	ldarg.0				; this$
	ldloc.2				; $S41$
	call		?set@AutoScaleDimensions@ContainerControl@Forms@Windows@System@@$$FQ$AAMXVSizeF@Drawing@5@@Z
; Line 139
	ldarg.0				; this$
	ldc.i.1		1		; i32 0x1
	call		?set@AutoScaleMode@ContainerControl@Forms@Windows@System@@$$FQ$AAMXW41345@@Z
; Line 140
	ldloca.s	1		; $S42$
	ldc.i4		304		; i32 0x130
	ldc.i4		156		; i32 0x9c
	call		??0Size@Drawing@System@@$$FQ$CAM@HH@Z
	ldarg.0				; this$
	ldloc.1				; $S42$
	call		?set@ClientSize@Form@Forms@Windows@System@@$$FQ$AAMXVSize@Drawing@5@@Z
; Line 141
	ldarg.0				; this$
	call		?get@Controls@Control@Forms@Windows@System@@$$FQ$AAMP$AAVControlCollection@2345@XZ
	ldarg.0				; this$
	ldfld		?labelCopyRight@WDVerDialog@WordDic@@3P$AAVLabel@Forms@Windows@System@@$AA
	callvirt	?Add@ControlCollection@Control@Forms@Windows@System@@$$FU$AAMXP$AAV2345@@Z
; Line 142
	ldarg.0				; this$
	call		?get@Controls@Control@Forms@Windows@System@@$$FQ$AAMP$AAVControlCollection@2345@XZ
	ldarg.0				; this$
	ldfld		?labelVersion@WDVerDialog@WordDic@@3P$AAVLabel@Forms@Windows@System@@$AA
	callvirt	?Add@ControlCollection@Control@Forms@Windows@System@@$$FU$AAMXP$AAV2345@@Z
; Line 143
	ldarg.0				; this$
	call		?get@Controls@Control@Forms@Windows@System@@$$FQ$AAMP$AAVControlCollection@2345@XZ
	ldarg.0				; this$
	ldfld		?labelWordDic@WDVerDialog@WordDic@@3P$AAVLabel@Forms@Windows@System@@$AA
	callvirt	?Add@ControlCollection@Control@Forms@Windows@System@@$$FU$AAMXP$AAV2345@@Z
; Line 144
	ldarg.0				; this$
	call		?get@Controls@Control@Forms@Windows@System@@$$FQ$AAMP$AAVControlCollection@2345@XZ
	ldarg.0				; this$
	ldfld		?pictureBoxIcon@WDVerDialog@WordDic@@3P$AAVPictureBox@Forms@Windows@System@@$AA
	callvirt	?Add@ControlCollection@Control@Forms@Windows@System@@$$FU$AAMXP$AAV2345@@Z
; Line 145
	ldarg.0				; this$
	call		?get@Controls@Control@Forms@Windows@System@@$$FQ$AAMP$AAVControlCollection@2345@XZ
	ldarg.0				; this$
	ldfld		?buttonOK@WDVerDialog@WordDic@@3P$AAVButton@Forms@Windows@System@@$AA
	callvirt	?Add@ControlCollection@Control@Forms@Windows@System@@$$FU$AAMXP$AAV2345@@Z
; Line 146
	ldarg.0				; this$
	ldc.i.3		3		; i32 0x3
	call		?set@FormBorderStyle@Form@Forms@Windows@System@@$$FQ$AAMXW41345@@Z
; Line 147
	ldarg.0				; this$
	ldloc.0				; resources$
	ldstr		$StringLiteralTok$??_C@_1BG@GPPJDCEN@?$AA$?$AAt?$AAh?$AAi?$AAs?$AA?4?$AAI?$AAc?$AAo?$AAn?$AA?$AA@
	callvirt	?GetObject@ResourceManager@Resources@System@@$$FU$AAMP$AAVObject@3@P$AAVString@3@@Z
	castClass	$TypeTok$1133D2B8$
	call		?set@Icon@Form@Forms@Windows@System@@$$FQ$AAMXP$AAV1Drawing@5@@Z
; Line 148
	ldarg.0				; this$
	ldc.i.0		0		; u8 0x0
	call		?set@MaximizeBox@Form@Forms@Windows@System@@$$FQ$AAMX_N@Z
; Line 149
	ldarg.0				; this$
	ldc.i.0		0		; u8 0x0
	call		?set@MinimizeBox@Form@Forms@Windows@System@@$$FQ$AAMX_N@Z
; Line 150
	ldarg.0				; this$
	ldstr		$StringLiteralTok$??_C@_1BI@KDEIBIDA@?$AAW?$AAD?$AAV?$AAe?$AAr?$AAD?$AAi?$AAa?$AAl?$AAo?$AAg?$AA?$AA@
	call		?set@Name@Control@Forms@Windows@System@@$$FQ$AAMXP$AAVString@5@@Z
; Line 151
	ldarg.0				; this$
	ldc.i.1		1		; u8 0x1
	callvirt	?set@RightToLeftLayout@Form@Forms@Windows@System@@$$FU$AAMX_N@Z
; Line 152
	ldarg.0				; this$
	ldc.i.0		0		; u8 0x0
	call		?set@ShowInTaskbar@Form@Forms@Windows@System@@$$FQ$AAMX_N@Z
; Line 153
	ldarg.0				; this$
	ldc.i.2		2		; i32 0x2
	call		?set@SizeGripStyle@Form@Forms@Windows@System@@$$FQ$AAMXW41345@@Z
; Line 154
	ldarg.0				; this$
	ldstr		$StringLiteralTok$??_C@_1BO@KAJFOHLM@0S0h0p0n?$IP?$JOQx0?$AA0?P0?$PM0?$LI0?g0?s?$GA?EX1?$AA?$AA@
	callvirt	?set@Text@Form@Forms@Windows@System@@$$FU$AAMXP$AAVString@5@@Z
; Line 155
	ldarg.0				; this$
	ldfld		?pictureBoxIcon@WDVerDialog@WordDic@@3P$AAVPictureBox@Forms@Windows@System@@$AA
	callvirt	?EndInit@ISupportInitialize@ComponentModel@System@@$$FU$AAMXXZ
; Line 156
	ldarg.0				; this$
	ldc.i.0		0		; u8 0x0
	call		?ResumeLayout@Control@Forms@Windows@System@@$$FQ$AAMX_N@Z
; Line 157
	ldarg.0				; this$
	call		?PerformLayout@Control@Forms@Windows@System@@$$FQ$AAMXXZ
; Line 159
	ret		
 .end ?InitializeComponent@WDVerDialog@WordDic@@$$FA$AAMXXZ ; WordDic::WDVerDialog::InitializeComponent
;	.proc.end.void
; Function compile flags: /Ogtp
	.text
	.comdat	any, ?<Dispose>@WDVerDialog@WordDic@@$$FM$AAMX_N@Z
.global	?<Dispose>@WDVerDialog@WordDic@@$$FM$AAMX_N@Z	; WordDic::WDVerDialog::<Dispose>
?<Dispose>@WDVerDialog@WordDic@@$$FM$AAMX_N@Z:		; WordDic::WDVerDialog::<Dispose>
;	.proc.def	D:V(I)

; Function Header:
; max stack depth = 2
; function size = 27 bytes
; local varsig tk = 0x0 
; Exception Information:
; 1 handlers, each consisting of filtered handlers

;	.formal.mptr 0,"this$" SIG: Optional C Binding Modifier(token:0x2F49ADD).class (token:0x2F49AE0)
;	.formal.u1 1,"disposing$" SIG: bool

;	.proc.beg
	ldarg.1				; disposing$
	brfalse.s	$LN3@
$LN13@:
	ldarg.0				; this$
	call		??1WDVerDialog@WordDic@@$$FA$AAM@XZ
$LN2@:
	leave.s		$LN12@
$LN7@:
	ldarg.0				; this$
	ldc.i.1		1		; u8 0x1
	call		?<Dispose>@Form@Forms@Windows@System@@$$FM$AAMX_N@Z
$LN9@:
	endfinally	
$LN3@:
	ldarg.0				; this$
	ldc.i.0		0		; u8 0x0
	call		?<Dispose>@Form@Forms@Windows@System@@$$FM$AAMX_N@Z
$LN12@:
	ret		
 .end ?<Dispose>@WDVerDialog@WordDic@@$$FM$AAMX_N@Z	; WordDic::WDVerDialog::<Dispose>
;	.proc.end.void
; Function compile flags: /Ogtp
	.text
	.comdat	any, ??0WordDicCfg@WordDic@@$$FQ$AAM@XZ
.global	??0WordDicCfg@WordDic@@$$FQ$AAM@XZ		; WordDic::WordDicCfg::WordDicCfg
??0WordDicCfg@WordDic@@$$FQ$AAM@XZ:			; WordDic::WordDicCfg::WordDicCfg
;	.proc.def	D:V()

; Function Header:
; max stack depth = 1
; function size = 7 bytes
; local varsig tk = 0x0 
; Exception Information:
; 0 handlers, each consisting of filtered handlers

;	.formal.mptr 0,"this$" SIG: Optional C Binding Modifier(token:0x2F37F7D).class (token:0x2F37F80)

;	.proc.beg
	ldarg.0				; this$
	call		??0Object@System@@$$FQ$AAM@XZ
	ret		
 .end ??0WordDicCfg@WordDic@@$$FQ$AAM@XZ		; WordDic::WordDicCfg::WordDicCfg
;	.proc.end.void
; Function compile flags: /Ogtp
	.text
	.comdat	any, ??0WDWordComparer@WordDic@@$$FQ$AAM@XZ
.global	??0WDWordComparer@WordDic@@$$FQ$AAM@XZ		; WordDic::WDWordComparer::WDWordComparer
??0WDWordComparer@WordDic@@$$FQ$AAM@XZ:			; WordDic::WDWordComparer::WDWordComparer
;	.proc.def	D:V()

; Function Header:
; max stack depth = 1
; function size = 7 bytes
; local varsig tk = 0x0 
; Exception Information:
; 0 handlers, each consisting of filtered handlers

;	.formal.mptr 0,"this$" SIG: Optional C Binding Modifier(token:0x2F3D019).class (token:0x2F3D01C)

;	.proc.beg
	ldarg.0				; this$
	call		??0Object@System@@$$FQ$AAM@XZ
	ret		
 .end ??0WDWordComparer@WordDic@@$$FQ$AAM@XZ		; WordDic::WDWordComparer::WDWordComparer
;	.proc.end.void
; Function compile flags: /Ogtp
	.text
	.comdat	any, ??0WDMeanComparer@WordDic@@$$FQ$AAM@XZ
.global	??0WDMeanComparer@WordDic@@$$FQ$AAM@XZ		; WordDic::WDMeanComparer::WDMeanComparer
??0WDMeanComparer@WordDic@@$$FQ$AAM@XZ:			; WordDic::WDMeanComparer::WDMeanComparer
;	.proc.def	D:V()

; Function Header:
; max stack depth = 1
; function size = 7 bytes
; local varsig tk = 0x0 
; Exception Information:
; 0 handlers, each consisting of filtered handlers

;	.formal.mptr 0,"this$" SIG: Optional C Binding Modifier(token:0x2F3F66D).class (token:0x2F3F670)

;	.proc.beg
	ldarg.0				; this$
	call		??0Object@System@@$$FQ$AAM@XZ
	ret		
 .end ??0WDMeanComparer@WordDic@@$$FQ$AAM@XZ		; WordDic::WDMeanComparer::WDMeanComparer
;	.proc.end.void
; Function compile flags: /Ogtp
	.text
	.comdat	any, ??0WDTransComparer@WordDic@@$$FQ$AAM@XZ
.global	??0WDTransComparer@WordDic@@$$FQ$AAM@XZ		; WordDic::WDTransComparer::WDTransComparer
??0WDTransComparer@WordDic@@$$FQ$AAM@XZ:		; WordDic::WDTransComparer::WDTransComparer
;	.proc.def	D:V()

; Function Header:
; max stack depth = 1
; function size = 7 bytes
; local varsig tk = 0x0 
; Exception Information:
; 0 handlers, each consisting of filtered handlers

;	.formal.mptr 0,"this$" SIG: Optional C Binding Modifier(token:0x2F40031).class (token:0x2F40034)

;	.proc.beg
	ldarg.0				; this$
	call		??0Object@System@@$$FQ$AAM@XZ
	ret		
 .end ??0WDTransComparer@WordDic@@$$FQ$AAM@XZ		; WordDic::WDTransComparer::WDTransComparer
;	.proc.end.void
; Function compile flags: /Ogtp
	.text
	.comdat	any, ??0WDRelationComparer@WordDic@@$$FQ$AAM@XZ
.global	??0WDRelationComparer@WordDic@@$$FQ$AAM@XZ	; WordDic::WDRelationComparer::WDRelationComparer
??0WDRelationComparer@WordDic@@$$FQ$AAM@XZ:		; WordDic::WDRelationComparer::WDRelationComparer
;	.proc.def	D:V()

; Function Header:
; max stack depth = 1
; function size = 7 bytes
; local varsig tk = 0x0 
; Exception Information:
; 0 handlers, each consisting of filtered handlers

;	.formal.mptr 0,"this$" SIG: Optional C Binding Modifier(token:0x2F494C5).class (token:0x2F494C8)

;	.proc.beg
	ldarg.0				; this$
	call		??0Object@System@@$$FQ$AAM@XZ
	ret		
 .end ??0WDRelationComparer@WordDic@@$$FQ$AAM@XZ	; WordDic::WDRelationComparer::WDRelationComparer
;	.proc.end.void
; Function compile flags: /Ogtp
	.text
	.comdat	any, ?<Dispose>@WDWordGrp@WordDic@@$$FM$AAMX_N@Z
.global	?<Dispose>@WDWordGrp@WordDic@@$$FM$AAMX_N@Z	; WordDic::WDWordGrp::<Dispose>
?<Dispose>@WDWordGrp@WordDic@@$$FM$AAMX_N@Z:		; WordDic::WDWordGrp::<Dispose>
;	.proc.def	D:V(I)

; Function Header:
; max stack depth = 1
; function size = 18 bytes
; local varsig tk = 0x0 
; Exception Information:
; 0 handlers, each consisting of filtered handlers

;	.formal.mptr 0,"this$" SIG: Optional C Binding Modifier(token:0x2F37FAD).class (token:0x2F37FB0)
;	.formal.u1 1,"disposing$" SIG: bool

;	.proc.beg
	ldarg.1				; disposing$
	brfalse.s	$LN2@
	ldarg.0				; this$
	call		??1WDWordGrp@WordDic@@$$FA$AAM@XZ
	br.s		$LN1@
$LN2@:
	ldarg.0				; this$
	call		?<Finalize>@Object@System@@$$FM$AAMXXZ
$LN1@:
	ret		
 .end ?<Dispose>@WDWordGrp@WordDic@@$$FM$AAMX_N@Z	; WordDic::WDWordGrp::<Dispose>
;	.proc.end.void
.global	?WDRelationComp@WDWordGrp@WordDic@@0P$AAVWDRelationComparer@2@$AA ; WordDic::WDWordGrp::WDRelationComp
.global	?WDTransComp@WDWordGrp@WordDic@@0P$AAVWDTransComparer@2@$AA ; WordDic::WDWordGrp::WDTransComp
.global	?WDMeanComp@WDWordGrp@WordDic@@0P$AAVWDMeanComparer@2@$AA ; WordDic::WDWordGrp::WDMeanComp
.global	?WDWordComp@WDWordGrp@WordDic@@0P$AAVWDWordComparer@2@$AA ; WordDic::WDWordGrp::WDWordComp
	.bss
.local	?WDRelationComp@WDWordGrp@WordDic@@0P$AAVWDRelationComparer@2@$AA,4 ; WordDic::WDWordGrp::WDRelationComp
.local	?WDTransComp@WDWordGrp@WordDic@@0P$AAVWDTransComparer@2@$AA,4 ; WordDic::WDWordGrp::WDTransComp
.local	?WDMeanComp@WDWordGrp@WordDic@@0P$AAVWDMeanComparer@2@$AA,4 ; WordDic::WDWordGrp::WDMeanComp
.local	?WDWordComp@WDWordGrp@WordDic@@0P$AAVWDWordComparer@2@$AA,4 ; WordDic::WDWordGrp::WDWordComp
; Function compile flags: /Ogtp
	.text
	.comdat	any, ?.cctor@WDWordGrp@WordDic@@$$FSMXXZ
.global	?.cctor@WDWordGrp@WordDic@@$$FSMXXZ		; ?.cctor@WDWordGrp@WordDic@@$$FSMXXZ
?.cctor@WDWordGrp@WordDic@@$$FSMXXZ:			; ?.cctor@WDWordGrp@WordDic@@$$FSMXXZ
;	.proc.def	D:V()

; Function Header:
; max stack depth = 1
; function size = 25 bytes
; local varsig tk = 0x0 
; Exception Information:
; 0 handlers, each consisting of filtered handlers


;	.proc.beg
	ldnull		0		; i32 0x0
	stsfld		?WDWordComp@WDWordGrp@WordDic@@0P$AAVWDWordComparer@2@$AA
	ldnull		0		; i32 0x0
	stsfld		?WDMeanComp@WDWordGrp@WordDic@@0P$AAVWDMeanComparer@2@$AA
	ldnull		0		; i32 0x0
	stsfld		?WDTransComp@WDWordGrp@WordDic@@0P$AAVWDTransComparer@2@$AA
	ldnull		0		; i32 0x0
	stsfld		?WDRelationComp@WDWordGrp@WordDic@@0P$AAVWDRelationComparer@2@$AA
	ret		
 .end ?.cctor@WDWordGrp@WordDic@@$$FSMXXZ		; ?.cctor@WDWordGrp@WordDic@@$$FSMXXZ
;	.proc.end.void
; Function compile flags: /Ogtp
	.text
	.comdat	any, ??0WDWordSchListComparer@WordDic@@$$FQ$AAM@XZ
.global	??0WDWordSchListComparer@WordDic@@$$FQ$AAM@XZ	; WordDic::WDWordSchListComparer::WDWordSchListComparer
??0WDWordSchListComparer@WordDic@@$$FQ$AAM@XZ:		; WordDic::WDWordSchListComparer::WDWordSchListComparer
;	.proc.def	D:V()

; Function Header:
; max stack depth = 1
; function size = 7 bytes
; local varsig tk = 0x0 
; Exception Information:
; 0 handlers, each consisting of filtered handlers

;	.formal.mptr 0,"this$" SIG: Optional C Binding Modifier(token:0x2F491BD).class (token:0x2F491C0)

;	.proc.beg
	ldarg.0				; this$
	call		??0Object@System@@$$FQ$AAM@XZ
	ret		
 .end ??0WDWordSchListComparer@WordDic@@$$FQ$AAM@XZ	; WordDic::WDWordSchListComparer::WDWordSchListComparer
;	.proc.end.void
.global	?schGrp@WDWordSchListComparer@WordDic@@2HA	; WordDic::WDWordSchListComparer::schGrp
.global	?schWord@WDWordSchListComparer@WordDic@@2HA	; WordDic::WDWordSchListComparer::schWord
	.bss
.local	?schGrp@WDWordSchListComparer@WordDic@@2HA,4	; WordDic::WDWordSchListComparer::schGrp
.local	?schWord@WDWordSchListComparer@WordDic@@2HA,4	; WordDic::WDWordSchListComparer::schWord
; Function compile flags: /Ogtp
	.text
	.comdat	any, ?.cctor@WDWordSchListComparer@WordDic@@$$FSMXXZ
.global	?.cctor@WDWordSchListComparer@WordDic@@$$FSMXXZ	; ?.cctor@WDWordSchListComparer@WordDic@@$$FSMXXZ
?.cctor@WDWordSchListComparer@WordDic@@$$FSMXXZ:	; ?.cctor@WDWordSchListComparer@WordDic@@$$FSMXXZ
;	.proc.def	D:V()

; Function Header:
; max stack depth = 1
; function size = 13 bytes
; local varsig tk = 0x0 
; Exception Information:
; 0 handlers, each consisting of filtered handlers


;	.proc.beg
	ldc.i.0		0		; i32 0x0
	stsfld		?schWord@WDWordSchListComparer@WordDic@@2HA
	ldc.i.1		1		; i32 0x1
	stsfld		?schGrp@WDWordSchListComparer@WordDic@@2HA
	ret		
 .end ?.cctor@WDWordSchListComparer@WordDic@@$$FSMXXZ	; ?.cctor@WDWordSchListComparer@WordDic@@$$FSMXXZ
;	.proc.end.void
.global	?ToolStripMenuItemHelpVer@Form1@WordDic@@3P$AAVToolStripMenuItem@Forms@Windows@System@@$AA ; WordDic::Form1::ToolStripMenuItemHelpVer
.global	?ToolStripMenuItemHelpMan@Form1@WordDic@@3P$AAVToolStripMenuItem@Forms@Windows@System@@$AA ; WordDic::Form1::ToolStripMenuItemHelpMan
.global	?contextMenuHelp@Form1@WordDic@@3P$AAVContextMenuStrip@Forms@Windows@System@@$AA ; WordDic::Form1::contextMenuHelp
.global	?toolStripStatusLabelSchWordCnt@Form1@WordDic@@3P$AAVToolStripStatusLabel@Forms@Windows@System@@$AA ; WordDic::Form1::toolStripStatusLabelSchWordCnt
.global	?statusStripMain@Form1@WordDic@@3P$AAVStatusStrip@Forms@Windows@System@@$AA ; WordDic::Form1::statusStripMain
.global	?ToolStripMenuItemWebEncycro2@Form1@WordDic@@3P$AAVToolStripMenuItem@Forms@Windows@System@@$AA ; WordDic::Form1::ToolStripMenuItemWebEncycro2
.global	?ToolStripMenuItemWebEncyclopedia@Form1@WordDic@@3P$AAVToolStripMenuItem@Forms@Windows@System@@$AA ; WordDic::Form1::ToolStripMenuItemWebEncyclopedia
.global	?ToolStripMenuItemWebSchSite2@Form1@WordDic@@3P$AAVToolStripMenuItem@Forms@Windows@System@@$AA ; WordDic::Form1::ToolStripMenuItemWebSchSite2
.global	?ToolStripMenuItemWebSchSite1@Form1@WordDic@@3P$AAVToolStripMenuItem@Forms@Windows@System@@$AA ; WordDic::Form1::ToolStripMenuItemWebSchSite1
.global	?toolStripMenuItemWebSearch@Form1@WordDic@@3P$AAVToolStripMenuItem@Forms@Windows@System@@$AA ; WordDic::Form1::toolStripMenuItemWebSearch
.global	?toolStripMenuItemBookCopy@Form1@WordDic@@3P$AAVToolStripMenuItem@Forms@Windows@System@@$AA ; WordDic::Form1::toolStripMenuItemBookCopy
.global	?contextMenuStripBook@Form1@WordDic@@3P$AAVContextMenuStrip@Forms@Windows@System@@$AA ; WordDic::Form1::contextMenuStripBook
.global	?webBrowserBook@Form1@WordDic@@3P$AAVWebBrowser@Forms@Windows@System@@$AA ; WordDic::Form1::webBrowserBook
.global	?buttonWordListClear@Form1@WordDic@@3P$AAVButton@Forms@Windows@System@@$AA ; WordDic::Form1::buttonWordListClear
.global	?flowLayoutPanelWordListBtns2@Form1@WordDic@@3P$AAVFlowLayoutPanel@Forms@Windows@System@@$AA ; WordDic::Form1::flowLayoutPanelWordListBtns2
.global	?listBoxWordList@Form1@WordDic@@3P$AAVListBox@Forms@Windows@System@@$AA ; WordDic::Form1::listBoxWordList
.global	?radioButtonGroupB@Form1@WordDic@@3P$AAVRadioButton@Forms@Windows@System@@$AA ; WordDic::Form1::radioButtonGroupB
.global	?radioButtonGroupA@Form1@WordDic@@3P$AAVRadioButton@Forms@Windows@System@@$AA ; WordDic::Form1::radioButtonGroupA
.global	?flowLayoutPanelGroupLang@Form1@WordDic@@3P$AAVFlowLayoutPanel@Forms@Windows@System@@$AA ; WordDic::Form1::flowLayoutPanelGroupLang
.global	?treeViewGroupTree@Form1@WordDic@@3P$AAVTreeView@Forms@Windows@System@@$AA ; WordDic::Form1::treeViewGroupTree
.global	?tabPageSchGroup@Form1@WordDic@@3P$AAVTabPage@Forms@Windows@System@@$AA ; WordDic::Form1::tabPageSchGroup
.global	?labelSchWord@Form1@WordDic@@3P$AAVLabel@Forms@Windows@System@@$AA ; WordDic::Form1::labelSchWord
.global	?buttonSchWord@Form1@WordDic@@3P$AAVButton@Forms@Windows@System@@$AA ; WordDic::Form1::buttonSchWord
.global	?textBoxSchWord@Form1@WordDic@@3P$AAVTextBox@Forms@Windows@System@@$AA ; WordDic::Form1::textBoxSchWord
.global	?panelSchWord@Form1@WordDic@@3P$AAVPanel@Forms@Windows@System@@$AA ; WordDic::Form1::panelSchWord
.global	?radioButtonWordB@Form1@WordDic@@3P$AAVRadioButton@Forms@Windows@System@@$AA ; WordDic::Form1::radioButtonWordB
.global	?radioButtonWordA@Form1@WordDic@@3P$AAVRadioButton@Forms@Windows@System@@$AA ; WordDic::Form1::radioButtonWordA
.global	?flowLayoutPanelSchWordSel@Form1@WordDic@@3P$AAVFlowLayoutPanel@Forms@Windows@System@@$AA ; WordDic::Form1::flowLayoutPanelSchWordSel
.global	?tabPageSchWord@Form1@WordDic@@3P$AAVTabPage@Forms@Windows@System@@$AA ; WordDic::Form1::tabPageSchWord
.global	?tabCtrlSearch@Form1@WordDic@@3P$AAVTabControl@Forms@Windows@System@@$AA ; WordDic::Form1::tabCtrlSearch
.global	?splitContainerSch@Form1@WordDic@@3P$AAVSplitContainer@Forms@Windows@System@@$AA ; WordDic::Form1::splitContainerSch
.global	?splitContainer1@Form1@WordDic@@3P$AAVSplitContainer@Forms@Windows@System@@$AA ; WordDic::Form1::splitContainer1
.global	?HelpLToolStripButton@Form1@WordDic@@3P$AAVToolStripButton@Forms@Windows@System@@$AA ; WordDic::Form1::HelpLToolStripButton
.global	?toolStripButtonConfig@Form1@WordDic@@3P$AAVToolStripButton@Forms@Windows@System@@$AA ; WordDic::Form1::toolStripButtonConfig
.global	?toolStripSeparator2@Form1@WordDic@@3P$AAVToolStripSeparator@Forms@Windows@System@@$AA ; WordDic::Form1::toolStripSeparator2
.global	?CopyCToolStripButton@Form1@WordDic@@3P$AAVToolStripButton@Forms@Windows@System@@$AA ; WordDic::Form1::CopyCToolStripButton
.global	?toolStripSeparator1@Form1@WordDic@@3P$AAVToolStripSeparator@Forms@Windows@System@@$AA ; WordDic::Form1::toolStripSeparator1
.global	?QuittoolStripButton@Form1@WordDic@@3P$AAVToolStripButton@Forms@Windows@System@@$AA ; WordDic::Form1::QuittoolStripButton
.global	?toolStripMain@Form1@WordDic@@3P$AAVToolStrip@Forms@Windows@System@@$AA ; WordDic::Form1::toolStripMain
.global	?components@Form1@WordDic@@3P$AAUIContainer@ComponentModel@System@@$AA ; WordDic::Form1::components
	.bss
.local	$T33353,0
.local	$StringLiteralTok$??_C@_1M@GJBAGBNA@?$AAF?$AAo?$AAr?$AAm?$AA1?$AA?$AA@,4
.local	$StringLiteralTok$??_C@_1M@DFMABGBL@?$AA$?$AAt?$AAh?$AAi?$AAs?$AA?$AA@,4
.local	$StringLiteralTok$??_C@_1DC@LMODGPJO@?$AAT?$AAo?$AAo?$AAl?$AAS?$AAt?$AAr?$AAi?$AAp?$AAM?$AAe?$AAn?$AAu?$AAI?$AAt?$AAe?$AAm?$AAH?$AAe?$AAl?$AAp?$AAV?$AAe?$AAr?$AA?$AA@,4
.local	$StringLiteralTok$??_C@_1DC@BMGMOINC@?$AAT?$AAo?$AAo?$AAl?$AAS?$AAt?$AAr?$AAi?$AAp?$AAM?$AAe?$AAn?$AAu?$AAI?$AAt?$AAe?$AAm?$AAH?$AAe?$AAl?$AAp?$AAM?$AAa?$AAn?$AA?$AA@,4
.local	$StringLiteralTok$??_C@_1CA@JPPHDCGP@?$AAc?$AAo?$AAn?$AAt?$AAe?$AAx?$AAt?$AAM?$AAe?$AAn?$AAu?$AAH?$AAe?$AAl?$AAp?$AA?$AA@,4
.local	$StringLiteralTok$??_C@_1DO@EOMNBHGO@?$AAt?$AAo?$AAo?$AAl?$AAS?$AAt?$AAr?$AAi?$AAp?$AAS?$AAt?$AAa?$AAt?$AAu?$AAs?$AAL?$AAa?$AAb?$AAe?$AAl?$AAS?$AAc?$AAh?$AAW?$AAo?$AAr?$AAd?$AAC?$AAn?$AAt?$AA?$AA@,4
.local	$StringLiteralTok$??_C@_1CA@GMOFNBJM@?$AAs?$AAt?$AAa?$AAt?$AAu?$AAs?$AAS?$AAt?$AAr?$AAi?$AAp?$AAM?$AAa?$AAi?$AAn?$AA?$AA@,4
.local	$StringLiteralTok$??_C@_1DK@GMPEDNIF@?$AAT?$AAo?$AAo?$AAl?$AAS?$AAt?$AAr?$AAi?$AAp?$AAM?$AAe?$AAn?$AAu?$AAI?$AAt?$AAe?$AAm?$AAW?$AAe?$AAb?$AAE?$AAn?$AAc?$AAy?$AAc?$AAr?$AAo?$AA2?$AA?$AA@,4
.local	$StringLiteralTok$??_C@_1EC@NFFNMALE@?$AAT?$AAo?$AAo?$AAl?$AAS?$AAt?$AAr?$AAi?$AAp?$AAM?$AAe?$AAn?$AAu?$AAI?$AAt?$AAe?$AAm?$AAW?$AAe?$AAb?$AAE?$AAn?$AAc?$AAy?$AAc?$AAl?$AAo?$AAp?$AAe?$AAd?$AAi?$AAa@,4
.local	$StringLiteralTok$??_C@_1DK@IIIJCNBN@?$AAT?$AAo?$AAo?$AAl?$AAS?$AAt?$AAr?$AAi?$AAp?$AAM?$AAe?$AAn?$AAu?$AAI?$AAt?$AAe?$AAm?$AAW?$AAe?$AAb?$AAS?$AAc?$AAh?$AAS?$AAi?$AAt?$AAe?$AA2?$AA?$AA@,4
.local	$StringLiteralTok$??_C@_1DK@JKDMICPD@?$AAT?$AAo?$AAo?$AAl?$AAS?$AAt?$AAr?$AAi?$AAp?$AAM?$AAe?$AAn?$AAu?$AAI?$AAt?$AAe?$AAm?$AAW?$AAe?$AAb?$AAS?$AAc?$AAh?$AAS?$AAi?$AAt?$AAe?$AA1?$AA?$AA@,4
.local	$StringLiteralTok$??_C@_1DG@IKFFOFPI@?$AAt?$AAo?$AAo?$AAl?$AAS?$AAt?$AAr?$AAi?$AAp?$AAM?$AAe?$AAn?$AAu?$AAI?$AAt?$AAe?$AAm?$AAW?$AAe?$AAb?$AAS?$AAe?$AAa?$AAr?$AAc?$AAh?$AA?$AA@,4
.local	$StringLiteralTok$??_C@_1DE@IKFPNDGH@?$AAt?$AAo?$AAo?$AAl?$AAS?$AAt?$AAr?$AAi?$AAp?$AAM?$AAe?$AAn?$AAu?$AAI?$AAt?$AAe?$AAm?$AAB?$AAo?$AAo?$AAk?$AAC?$AAo?$AAp?$AAy?$AA?$AA@,4
.local	$StringLiteralTok$??_C@_1CK@HDEKFEGB@?$AAc?$AAo?$AAn?$AAt?$AAe?$AAx?$AAt?$AAM?$AAe?$AAn?$AAu?$AAS?$AAt?$AAr?$AAi?$AAp?$AAB?$AAo?$AAo?$AAk?$AA?$AA@,4
.local	$StringLiteralTok$??_C@_1CK@OALIDBIE@?$AAc?$AAo?$AAn?$AAt?$AAe?$AAx?$AAt?$AAM?$AAe?$AAn?$AAu?$AAS?$AAt?$AAr?$AAi?$AAp?$AAN?$AAo?$AAt?$AAe?$AA?$AA@,4
.local	$StringLiteralTok$??_C@_11LOCGONAA@?$AA?$AA@,4
.local	$StringLiteralTok$??_C@_1BO@DACHOAOF@?$AAw?$AAe?$AAb?$AAB?$AAr?$AAo?$AAw?$AAs?$AAe?$AAr?$AAB?$AAo?$AAo?$AAk?$AA?$AA@,4
.local	$StringLiteralTok$??_C@_1CI@FHKHEFNK@?$AAb?$AAu?$AAt?$AAt?$AAo?$AAn?$AAW?$AAo?$AAr?$AAd?$AAL?$AAi?$AAs?$AAt?$AAC?$AAl?$AAe?$AAa?$AAr?$AA?$AA@,4
.local	$StringLiteralTok$??_C@_1DK@NKNJILHH@?$AAf?$AAl?$AAo?$AAw?$AAL?$AAa?$AAy?$AAo?$AAu?$AAt?$AAP?$AAa?$AAn?$AAe?$AAl?$AAW?$AAo?$AAr?$AAd?$AAL?$AAi?$AAs?$AAt?$AAB?$AAt?$AAn?$AAs?$AA2?$AA?$AA@,4
.local	$StringLiteralTok$??_C@_1CA@LMLJFDGN@?$AAl?$AAi?$AAs?$AAt?$AAB?$AAo?$AAx?$AAW?$AAo?$AAr?$AAd?$AAL?$AAi?$AAs?$AAt?$AA?$AA@,4
.local	$StringLiteralTok$??_C@_1CE@HFOFEPHL@?$AAr?$AAa?$AAd?$AAi?$AAo?$AAB?$AAu?$AAt?$AAt?$AAo?$AAn?$AAG?$AAr?$AAo?$AAu?$AAp?$AAB?$AA?$AA@,4
.local	$StringLiteralTok$??_C@_1CE@GHFAOAJF@?$AAr?$AAa?$AAd?$AAi?$AAo?$AAB?$AAu?$AAt?$AAt?$AAo?$AAn?$AAG?$AAr?$AAo?$AAu?$AAp?$AAA?$AA?$AA@,4
.local	$StringLiteralTok$??_C@_1DC@OAFCAKBK@?$AAf?$AAl?$AAo?$AAw?$AAL?$AAa?$AAy?$AAo?$AAu?$AAt?$AAP?$AAa?$AAn?$AAe?$AAl?$AAG?$AAr?$AAo?$AAu?$AAp?$AAL?$AAa?$AAn?$AAg?$AA?$AA@,4
.local	$StringLiteralTok$??_C@_1CE@PHCANOIB@?$AAt?$AAr?$AAe?$AAe?$AAV?$AAi?$AAe?$AAw?$AAG?$AAr?$AAo?$AAu?$AAp?$AAT?$AAr?$AAe?$AAe?$AA?$AA@,4
.local	$StringLiteralTok$??_C@_1CA@BCPLOFNO@?$AAt?$AAa?$AAb?$AAP?$AAa?$AAg?$AAe?$AAS?$AAc?$AAh?$AAG?$AAr?$AAo?$AAu?$AAp?$AA?$AA@,4
.local	$StringLiteralTok$??_C@_1BK@DBGNIKCD@?$AAl?$AAa?$AAb?$AAe?$AAl?$AAS?$AAc?$AAh?$AAW?$AAo?$AAr?$AAd?$AA?$AA@,4
.local	$StringLiteralTok$??_C@_1BM@EALDNCEI@?$AAb?$AAu?$AAt?$AAt?$AAo?$AAn?$AAS?$AAc?$AAh?$AAW?$AAo?$AAr?$AAd?$AA?$AA@,4
.local	$StringLiteralTok$??_C@_1BO@FHFOCJEC@?$AAt?$AAe?$AAx?$AAt?$AAB?$AAo?$AAx?$AAS?$AAc?$AAh?$AAW?$AAo?$AAr?$AAd?$AA?$AA@,4
.local	$StringLiteralTok$??_C@_1BK@BGANPDJ@?$AAp?$AAa?$AAn?$AAe?$AAl?$AAS?$AAc?$AAh?$AAW?$AAo?$AAr?$AAd?$AA?$AA@,4
.local	$StringLiteralTok$??_C@_1CC@OAGIDCBB@?$AAr?$AAa?$AAd?$AAi?$AAo?$AAB?$AAu?$AAt?$AAt?$AAo?$AAn?$AAW?$AAo?$AAr?$AAd?$AAB?$AA?$AA@,4
.local	$StringLiteralTok$??_C@_1CC@PCNNJNPP@?$AAr?$AAa?$AAd?$AAi?$AAo?$AAB?$AAu?$AAt?$AAt?$AAo?$AAn?$AAW?$AAo?$AAr?$AAd?$AAA?$AA?$AA@,4
.local	$StringLiteralTok$??_C@_1DE@FIFJOHBH@?$AAf?$AAl?$AAo?$AAw?$AAL?$AAa?$AAy?$AAo?$AAu?$AAt?$AAP?$AAa?$AAn?$AAe?$AAl?$AAS?$AAc?$AAh?$AAW?$AAo?$AAr?$AAd?$AAS?$AAe?$AAl?$AA?$AA@,4
.local	$StringLiteralTok$??_C@_1BO@NNFMPKHK@?$AAt?$AAa?$AAb?$AAP?$AAa?$AAg?$AAe?$AAS?$AAc?$AAh?$AAW?$AAo?$AAr?$AAd?$AA?$AA@,4
.local	$StringLiteralTok$??_C@_1BM@PPBLMBBA@?$AAt?$AAa?$AAb?$AAC?$AAt?$AAr?$AAl?$AAS?$AAe?$AAa?$AAr?$AAc?$AAh?$AA?$AA@,4
.local	$StringLiteralTok$??_C@_1CE@ODNNGCBL@?$AAs?$AAp?$AAl?$AAi?$AAt?$AAC?$AAo?$AAn?$AAt?$AAa?$AAi?$AAn?$AAe?$AAr?$AAS?$AAc?$AAh?$AA?$AA@,4
.local	$StringLiteralTok$??_C@_1CA@DLBIODHN@?$AAs?$AAp?$AAl?$AAi?$AAt?$AAC?$AAo?$AAn?$AAt?$AAa?$AAi?$AAn?$AAe?$AAr?$AA1?$AA?$AA@,4
.local	$StringLiteralTok$??_C@_1CK@DANCBAFF@?$AAH?$AAe?$AAl?$AAp?$AAL?$AAT?$AAo?$AAo?$AAl?$AAS?$AAt?$AAr?$AAi?$AAp?$AAB?$AAu?$AAt?$AAt?$AAo?$AAn?$AA?$AA@,4
.local	$StringLiteralTok$??_C@_1CM@MKMMMMOJ@?$AAt?$AAo?$AAo?$AAl?$AAS?$AAt?$AAr?$AAi?$AAp?$AAB?$AAu?$AAt?$AAt?$AAo?$AAn?$AAC?$AAo?$AAn?$AAf?$AAi?$AAg?$AA?$AA@,4
.local	$StringLiteralTok$??_C@_1CI@OPLJNAIN@?$AAt?$AAo?$AAo?$AAl?$AAS?$AAt?$AAr?$AAi?$AAp?$AAS?$AAe?$AAp?$AAa?$AAr?$AAa?$AAt?$AAo?$AAr?$AA2?$AA?$AA@,4
.local	$StringLiteralTok$??_C@_1CK@ECKGKFNJ@?$AAC?$AAo?$AAp?$AAy?$AAC?$AAT?$AAo?$AAo?$AAl?$AAS?$AAt?$AAr?$AAi?$AAp?$AAB?$AAu?$AAt?$AAt?$AAo?$AAn?$AA?$AA@,4
.local	$StringLiteralTok$??_C@_1CI@PNAMHPGD@?$AAt?$AAo?$AAo?$AAl?$AAS?$AAt?$AAr?$AAi?$AAp?$AAS?$AAe?$AAp?$AAa?$AAr?$AAa?$AAt?$AAo?$AAr?$AA1?$AA?$AA@,4
.local	$StringLiteralTok$??_C@_1CI@EOALFOLE@?$AAQ?$AAu?$AAi?$AAt?$AAt?$AAo?$AAo?$AAl?$AAS?$AAt?$AAr?$AAi?$AAp?$AAB?$AAu?$AAt?$AAt?$AAo?$AAn?$AA?$AA@,4
.local	$StringLiteralTok$??_C@_1BM@GFJFDJP@?$AAt?$AAo?$AAo?$AAl?$AAS?$AAt?$AAr?$AAi?$AAp?$AAM?$AAa?$AAi?$AAn?$AA?$AA@,4
.local	$TypeTok$11696350$,4
.local	?ToolStripMenuItemHelpVer@Form1@WordDic@@3P$AAVToolStripMenuItem@Forms@Windows@System@@$AA,4 ; WordDic::Form1::ToolStripMenuItemHelpVer
.local	?ToolStripMenuItemHelpMan@Form1@WordDic@@3P$AAVToolStripMenuItem@Forms@Windows@System@@$AA,4 ; WordDic::Form1::ToolStripMenuItemHelpMan
.local	?contextMenuHelp@Form1@WordDic@@3P$AAVContextMenuStrip@Forms@Windows@System@@$AA,4 ; WordDic::Form1::contextMenuHelp
.local	?toolStripStatusLabelSchWordCnt@Form1@WordDic@@3P$AAVToolStripStatusLabel@Forms@Windows@System@@$AA,4 ; WordDic::Form1::toolStripStatusLabelSchWordCnt
.local	?statusStripMain@Form1@WordDic@@3P$AAVStatusStrip@Forms@Windows@System@@$AA,4 ; WordDic::Form1::statusStripMain
.local	?ToolStripMenuItemWebEncycro2@Form1@WordDic@@3P$AAVToolStripMenuItem@Forms@Windows@System@@$AA,4 ; WordDic::Form1::ToolStripMenuItemWebEncycro2
.local	?ToolStripMenuItemWebEncyclopedia@Form1@WordDic@@3P$AAVToolStripMenuItem@Forms@Windows@System@@$AA,4 ; WordDic::Form1::ToolStripMenuItemWebEncyclopedia
.local	?ToolStripMenuItemWebSchSite2@Form1@WordDic@@3P$AAVToolStripMenuItem@Forms@Windows@System@@$AA,4 ; WordDic::Form1::ToolStripMenuItemWebSchSite2
.local	?ToolStripMenuItemWebSchSite1@Form1@WordDic@@3P$AAVToolStripMenuItem@Forms@Windows@System@@$AA,4 ; WordDic::Form1::ToolStripMenuItemWebSchSite1
.local	?toolStripMenuItemWebSearch@Form1@WordDic@@3P$AAVToolStripMenuItem@Forms@Windows@System@@$AA,4 ; WordDic::Form1::toolStripMenuItemWebSearch
.local	?toolStripMenuItemBookCopy@Form1@WordDic@@3P$AAVToolStripMenuItem@Forms@Windows@System@@$AA,4 ; WordDic::Form1::toolStripMenuItemBookCopy
.local	?contextMenuStripBook@Form1@WordDic@@3P$AAVContextMenuStrip@Forms@Windows@System@@$AA,4 ; WordDic::Form1::contextMenuStripBook
.local	?webBrowserBook@Form1@WordDic@@3P$AAVWebBrowser@Forms@Windows@System@@$AA,4 ; WordDic::Form1::webBrowserBook
.local	?buttonWordListClear@Form1@WordDic@@3P$AAVButton@Forms@Windows@System@@$AA,4 ; WordDic::Form1::buttonWordListClear
.local	?flowLayoutPanelWordListBtns2@Form1@WordDic@@3P$AAVFlowLayoutPanel@Forms@Windows@System@@$AA,4 ; WordDic::Form1::flowLayoutPanelWordListBtns2
.local	?listBoxWordList@Form1@WordDic@@3P$AAVListBox@Forms@Windows@System@@$AA,4 ; WordDic::Form1::listBoxWordList
.local	?radioButtonGroupB@Form1@WordDic@@3P$AAVRadioButton@Forms@Windows@System@@$AA,4 ; WordDic::Form1::radioButtonGroupB
.local	?radioButtonGroupA@Form1@WordDic@@3P$AAVRadioButton@Forms@Windows@System@@$AA,4 ; WordDic::Form1::radioButtonGroupA
.local	?flowLayoutPanelGroupLang@Form1@WordDic@@3P$AAVFlowLayoutPanel@Forms@Windows@System@@$AA,4 ; WordDic::Form1::flowLayoutPanelGroupLang
.local	?treeViewGroupTree@Form1@WordDic@@3P$AAVTreeView@Forms@Windows@System@@$AA,4 ; WordDic::Form1::treeViewGroupTree
.local	?tabPageSchGroup@Form1@WordDic@@3P$AAVTabPage@Forms@Windows@System@@$AA,4 ; WordDic::Form1::tabPageSchGroup
.local	?labelSchWord@Form1@WordDic@@3P$AAVLabel@Forms@Windows@System@@$AA,4 ; WordDic::Form1::labelSchWord
.local	?buttonSchWord@Form1@WordDic@@3P$AAVButton@Forms@Windows@System@@$AA,4 ; WordDic::Form1::buttonSchWord
.local	?textBoxSchWord@Form1@WordDic@@3P$AAVTextBox@Forms@Windows@System@@$AA,4 ; WordDic::Form1::textBoxSchWord
.local	?panelSchWord@Form1@WordDic@@3P$AAVPanel@Forms@Windows@System@@$AA,4 ; WordDic::Form1::panelSchWord
.local	?radioButtonWordB@Form1@WordDic@@3P$AAVRadioButton@Forms@Windows@System@@$AA,4 ; WordDic::Form1::radioButtonWordB
.local	?radioButtonWordA@Form1@WordDic@@3P$AAVRadioButton@Forms@Windows@System@@$AA,4 ; WordDic::Form1::radioButtonWordA
.local	?flowLayoutPanelSchWordSel@Form1@WordDic@@3P$AAVFlowLayoutPanel@Forms@Windows@System@@$AA,4 ; WordDic::Form1::flowLayoutPanelSchWordSel
.local	?tabPageSchWord@Form1@WordDic@@3P$AAVTabPage@Forms@Windows@System@@$AA,4 ; WordDic::Form1::tabPageSchWord
.local	?tabCtrlSearch@Form1@WordDic@@3P$AAVTabControl@Forms@Windows@System@@$AA,4 ; WordDic::Form1::tabCtrlSearch
.local	?splitContainerSch@Form1@WordDic@@3P$AAVSplitContainer@Forms@Windows@System@@$AA,4 ; WordDic::Form1::splitContainerSch
.local	?splitContainer1@Form1@WordDic@@3P$AAVSplitContainer@Forms@Windows@System@@$AA,4 ; WordDic::Form1::splitContainer1
.local	?HelpLToolStripButton@Form1@WordDic@@3P$AAVToolStripButton@Forms@Windows@System@@$AA,4 ; WordDic::Form1::HelpLToolStripButton
.local	?toolStripButtonConfig@Form1@WordDic@@3P$AAVToolStripButton@Forms@Windows@System@@$AA,4 ; WordDic::Form1::toolStripButtonConfig
.local	?toolStripSeparator2@Form1@WordDic@@3P$AAVToolStripSeparator@Forms@Windows@System@@$AA,4 ; WordDic::Form1::toolStripSeparator2
.local	?CopyCToolStripButton@Form1@WordDic@@3P$AAVToolStripButton@Forms@Windows@System@@$AA,4 ; WordDic::Form1::CopyCToolStripButton
.local	?toolStripSeparator1@Form1@WordDic@@3P$AAVToolStripSeparator@Forms@Windows@System@@$AA,4 ; WordDic::Form1::toolStripSeparator1
.local	?QuittoolStripButton@Form1@WordDic@@3P$AAVToolStripButton@Forms@Windows@System@@$AA,4 ; WordDic::Form1::QuittoolStripButton
.local	?toolStripMain@Form1@WordDic@@3P$AAVToolStrip@Forms@Windows@System@@$AA,4 ; WordDic::Form1::toolStripMain
.local	$TypeTok$1162F7C0$,4
.local	?components@Form1@WordDic@@3P$AAUIContainer@ComponentModel@System@@$AA,4 ; WordDic::Form1::components
; Function compile flags: /Ogtp
	.text
	.comdat	any, ?InitializeComponent@Form1@WordDic@@$$FA$AAMXXZ
.global	?InitializeComponent@Form1@WordDic@@$$FA$AAMXXZ	; WordDic::Form1::InitializeComponent
?InitializeComponent@Form1@WordDic@@$$FA$AAMXXZ:	; WordDic::Form1::InitializeComponent
;	.proc.def	D:V()

; Function Header:
; max stack depth = 3
; function size = 3788 bytes
; local varsig tk = 0x11000005 
; Exception Information:
; 0 handlers, each consisting of filtered handlers

;	.formal.mptr 0,"this$" SIG: Optional C Binding Modifier(token:0x2F3F9AD).class (token:0x2F3F9B0)
;	.local.mptr 3,"$S49$" SIG: szarray (token:0x2F3FA3D)
;	.local.mptr 5,"$S48$" SIG: szarray (token:0x2F3FA3D)
;	.local.mptr 6,"$S47$" SIG: szarray (token:0x2F3FA3D)
;	.local.mptr 4,"$S46$" SIG: szarray (token:0x2F3FA3D)
;	.local.mptr 2,"$S45$" SIG: szarray (token:0x2F3FA3D)
;	.local.mb8   7,"$S44$" SIG: valueType (token:0x2F3CDC1)
;	.local.mptr 1,"$S43$" SIG: szarray (token:0x2F3FA3D)
;	.local.mptr 0,"resources$" SIG: class (token:0x2F3F825)

;	.proc.beg
; File c:\users\amotoo\documents\myproject\worddicbt\worddic\form1.h
; Line 146
	ldarg.0				; this$
	newobj		??0Container@ComponentModel@System@@$$FQ$AAM@XZ
	stfld		?components@Form1@WordDic@@3P$AAUIContainer@ComponentModel@System@@$AA
; Line 147
	ldtoken		$TypeTok$1162F7C0$
	call		?GetTypeFromHandle@Type@System@@$$FSMP$AAV12@VRuntimeTypeHandle@2@@Z
	newobj		??0ComponentResourceManager@ComponentModel@System@@$$FQ$AAM@P$AAVType@2@@Z
	stloc.0				; resources$
; Line 148
	ldarg.0				; this$
	newobj		??0ToolStrip@Forms@Windows@System@@$$FQ$AAM@XZ
	stfld		?toolStripMain@Form1@WordDic@@3P$AAVToolStrip@Forms@Windows@System@@$AA
; Line 149
	ldarg.0				; this$
	newobj		??0ToolStripButton@Forms@Windows@System@@$$FQ$AAM@XZ
	stfld		?QuittoolStripButton@Form1@WordDic@@3P$AAVToolStripButton@Forms@Windows@System@@$AA
; Line 150
	ldarg.0				; this$
	newobj		??0ToolStripSeparator@Forms@Windows@System@@$$FQ$AAM@XZ
	stfld		?toolStripSeparator1@Form1@WordDic@@3P$AAVToolStripSeparator@Forms@Windows@System@@$AA
; Line 151
	ldarg.0				; this$
	newobj		??0ToolStripButton@Forms@Windows@System@@$$FQ$AAM@XZ
	stfld		?CopyCToolStripButton@Form1@WordDic@@3P$AAVToolStripButton@Forms@Windows@System@@$AA
; Line 152
	ldarg.0				; this$
	newobj		??0ToolStripSeparator@Forms@Windows@System@@$$FQ$AAM@XZ
	stfld		?toolStripSeparator2@Form1@WordDic@@3P$AAVToolStripSeparator@Forms@Windows@System@@$AA
; Line 153
	ldarg.0				; this$
	newobj		??0ToolStripButton@Forms@Windows@System@@$$FQ$AAM@XZ
	stfld		?toolStripButtonConfig@Form1@WordDic@@3P$AAVToolStripButton@Forms@Windows@System@@$AA
; Line 154
	ldarg.0				; this$
	newobj		??0ToolStripButton@Forms@Windows@System@@$$FQ$AAM@XZ
	stfld		?HelpLToolStripButton@Form1@WordDic@@3P$AAVToolStripButton@Forms@Windows@System@@$AA
; Line 155
	ldarg.0				; this$
	newobj		??0SplitContainer@Forms@Windows@System@@$$FQ$AAM@XZ
	stfld		?splitContainer1@Form1@WordDic@@3P$AAVSplitContainer@Forms@Windows@System@@$AA
; Line 156
	ldarg.0				; this$
	newobj		??0SplitContainer@Forms@Windows@System@@$$FQ$AAM@XZ
	stfld		?splitContainerSch@Form1@WordDic@@3P$AAVSplitContainer@Forms@Windows@System@@$AA
; Line 157
	ldarg.0				; this$
	newobj		??0TabControl@Forms@Windows@System@@$$FQ$AAM@XZ
	stfld		?tabCtrlSearch@Form1@WordDic@@3P$AAVTabControl@Forms@Windows@System@@$AA
; Line 158
	ldarg.0				; this$
	newobj		??0TabPage@Forms@Windows@System@@$$FQ$AAM@XZ
	stfld		?tabPageSchWord@Form1@WordDic@@3P$AAVTabPage@Forms@Windows@System@@$AA
; Line 159
	ldarg.0				; this$
	newobj		??0FlowLayoutPanel@Forms@Windows@System@@$$FQ$AAM@XZ
	stfld		?flowLayoutPanelSchWordSel@Form1@WordDic@@3P$AAVFlowLayoutPanel@Forms@Windows@System@@$AA
; Line 160
	ldarg.0				; this$
	newobj		??0RadioButton@Forms@Windows@System@@$$FQ$AAM@XZ
	stfld		?radioButtonWordA@Form1@WordDic@@3P$AAVRadioButton@Forms@Windows@System@@$AA
; Line 161
	ldarg.0				; this$
	newobj		??0RadioButton@Forms@Windows@System@@$$FQ$AAM@XZ
	stfld		?radioButtonWordB@Form1@WordDic@@3P$AAVRadioButton@Forms@Windows@System@@$AA
; Line 162
	ldarg.0				; this$
	newobj		??0Panel@Forms@Windows@System@@$$FQ$AAM@XZ
	stfld		?panelSchWord@Form1@WordDic@@3P$AAVPanel@Forms@Windows@System@@$AA
; Line 163
	ldarg.0				; this$
	newobj		??0TextBox@Forms@Windows@System@@$$FQ$AAM@XZ
	stfld		?textBoxSchWord@Form1@WordDic@@3P$AAVTextBox@Forms@Windows@System@@$AA
; Line 164
	ldarg.0				; this$
	newobj		??0Button@Forms@Windows@System@@$$FQ$AAM@XZ
	stfld		?buttonSchWord@Form1@WordDic@@3P$AAVButton@Forms@Windows@System@@$AA
; Line 165
	ldarg.0				; this$
	newobj		??0Label@Forms@Windows@System@@$$FQ$AAM@XZ
	stfld		?labelSchWord@Form1@WordDic@@3P$AAVLabel@Forms@Windows@System@@$AA
; Line 166
	ldarg.0				; this$
	newobj		??0TabPage@Forms@Windows@System@@$$FQ$AAM@XZ
	stfld		?tabPageSchGroup@Form1@WordDic@@3P$AAVTabPage@Forms@Windows@System@@$AA
; Line 167
	ldarg.0				; this$
	newobj		??0TreeView@Forms@Windows@System@@$$FQ$AAM@XZ
	stfld		?treeViewGroupTree@Form1@WordDic@@3P$AAVTreeView@Forms@Windows@System@@$AA
; Line 168
	ldarg.0				; this$
	newobj		??0FlowLayoutPanel@Forms@Windows@System@@$$FQ$AAM@XZ
	stfld		?flowLayoutPanelGroupLang@Form1@WordDic@@3P$AAVFlowLayoutPanel@Forms@Windows@System@@$AA
; Line 169
	ldarg.0				; this$
	newobj		??0RadioButton@Forms@Windows@System@@$$FQ$AAM@XZ
	stfld		?radioButtonGroupA@Form1@WordDic@@3P$AAVRadioButton@Forms@Windows@System@@$AA
; Line 170
	ldarg.0				; this$
	newobj		??0RadioButton@Forms@Windows@System@@$$FQ$AAM@XZ
	stfld		?radioButtonGroupB@Form1@WordDic@@3P$AAVRadioButton@Forms@Windows@System@@$AA
; Line 171
	ldarg.0				; this$
	newobj		??0ListBox@Forms@Windows@System@@$$FQ$AAM@XZ
	stfld		?listBoxWordList@Form1@WordDic@@3P$AAVListBox@Forms@Windows@System@@$AA
; Line 172
	ldarg.0				; this$
	newobj		??0FlowLayoutPanel@Forms@Windows@System@@$$FQ$AAM@XZ
	stfld		?flowLayoutPanelWordListBtns2@Form1@WordDic@@3P$AAVFlowLayoutPanel@Forms@Windows@System@@$AA
; Line 173
	ldarg.0				; this$
	newobj		??0Button@Forms@Windows@System@@$$FQ$AAM@XZ
	stfld		?buttonWordListClear@Form1@WordDic@@3P$AAVButton@Forms@Windows@System@@$AA
; Line 174
	ldarg.0				; this$
	newobj		??0WebBrowser@Forms@Windows@System@@$$FQ$AAM@XZ
	stfld		?webBrowserBook@Form1@WordDic@@3P$AAVWebBrowser@Forms@Windows@System@@$AA
; Line 175
	ldarg.0				; this$
	dup		
	ldfld		?components@Form1@WordDic@@3P$AAUIContainer@ComponentModel@System@@$AA
	newobj		??0ContextMenuStrip@Forms@Windows@System@@$$FQ$AAM@P$AAUIContainer@ComponentModel@3@@Z
	stfld		?contextMenuStripBook@Form1@WordDic@@3P$AAVContextMenuStrip@Forms@Windows@System@@$AA
; Line 176
	ldarg.0				; this$
	newobj		??0ToolStripMenuItem@Forms@Windows@System@@$$FQ$AAM@XZ
	stfld		?toolStripMenuItemBookCopy@Form1@WordDic@@3P$AAVToolStripMenuItem@Forms@Windows@System@@$AA
; Line 177
	ldarg.0				; this$
	newobj		??0ToolStripMenuItem@Forms@Windows@System@@$$FQ$AAM@XZ
	stfld		?toolStripMenuItemWebSearch@Form1@WordDic@@3P$AAVToolStripMenuItem@Forms@Windows@System@@$AA
; Line 178
	ldarg.0				; this$
	newobj		??0ToolStripMenuItem@Forms@Windows@System@@$$FQ$AAM@XZ
	stfld		?ToolStripMenuItemWebSchSite1@Form1@WordDic@@3P$AAVToolStripMenuItem@Forms@Windows@System@@$AA
; Line 179
	ldarg.0				; this$
	newobj		??0ToolStripMenuItem@Forms@Windows@System@@$$FQ$AAM@XZ
	stfld		?ToolStripMenuItemWebSchSite2@Form1@WordDic@@3P$AAVToolStripMenuItem@Forms@Windows@System@@$AA
; Line 180
	ldarg.0				; this$
	newobj		??0ToolStripMenuItem@Forms@Windows@System@@$$FQ$AAM@XZ
	stfld		?ToolStripMenuItemWebEncyclopedia@Form1@WordDic@@3P$AAVToolStripMenuItem@Forms@Windows@System@@$AA
; Line 181
	ldarg.0				; this$
	newobj		??0ToolStripMenuItem@Forms@Windows@System@@$$FQ$AAM@XZ
	stfld		?ToolStripMenuItemWebEncycro2@Form1@WordDic@@3P$AAVToolStripMenuItem@Forms@Windows@System@@$AA
; Line 182
	ldarg.0				; this$
	newobj		??0StatusStrip@Forms@Windows@System@@$$FQ$AAM@XZ
	stfld		?statusStripMain@Form1@WordDic@@3P$AAVStatusStrip@Forms@Windows@System@@$AA
; Line 183
	ldarg.0				; this$
	newobj		??0ToolStripStatusLabel@Forms@Windows@System@@$$FQ$AAM@XZ
	stfld		?toolStripStatusLabelSchWordCnt@Form1@WordDic@@3P$AAVToolStripStatusLabel@Forms@Windows@System@@$AA
; Line 184
	ldarg.0				; this$
	dup		
	ldfld		?components@Form1@WordDic@@3P$AAUIContainer@ComponentModel@System@@$AA
	newobj		??0ContextMenuStrip@Forms@Windows@System@@$$FQ$AAM@P$AAUIContainer@ComponentModel@3@@Z
	stfld		?contextMenuHelp@Form1@WordDic@@3P$AAVContextMenuStrip@Forms@Windows@System@@$AA
; Line 185
	ldarg.0				; this$
	newobj		??0ToolStripMenuItem@Forms@Windows@System@@$$FQ$AAM@XZ
	stfld		?ToolStripMenuItemHelpMan@Form1@WordDic@@3P$AAVToolStripMenuItem@Forms@Windows@System@@$AA
; Line 186
	ldarg.0				; this$
	newobj		??0ToolStripMenuItem@Forms@Windows@System@@$$FQ$AAM@XZ
	stfld		?ToolStripMenuItemHelpVer@Form1@WordDic@@3P$AAVToolStripMenuItem@Forms@Windows@System@@$AA
; Line 187
	ldarg.0				; this$
	ldfld		?toolStripMain@Form1@WordDic@@3P$AAVToolStrip@Forms@Windows@System@@$AA
	call		?SuspendLayout@Control@Forms@Windows@System@@$$FQ$AAMXXZ
; Line 188
	ldarg.0				; this$
	ldfld		?splitContainer1@Form1@WordDic@@3P$AAVSplitContainer@Forms@Windows@System@@$AA
	callvirt	?BeginInit@ISupportInitialize@ComponentModel@System@@$$FU$AAMXXZ
; Line 189
	ldarg.0				; this$
	ldfld		?splitContainer1@Form1@WordDic@@3P$AAVSplitContainer@Forms@Windows@System@@$AA
	call		?get@Panel1@SplitContainer@Forms@Windows@System@@$$FQ$AAMP$AAVSplitterPanel@345@XZ
	call		?SuspendLayout@Control@Forms@Windows@System@@$$FQ$AAMXXZ
; Line 190
	ldarg.0				; this$
	ldfld		?splitContainer1@Form1@WordDic@@3P$AAVSplitContainer@Forms@Windows@System@@$AA
	call		?get@Panel2@SplitContainer@Forms@Windows@System@@$$FQ$AAMP$AAVSplitterPanel@345@XZ
	call		?SuspendLayout@Control@Forms@Windows@System@@$$FQ$AAMXXZ
; Line 191
	ldarg.0				; this$
	ldfld		?splitContainer1@Form1@WordDic@@3P$AAVSplitContainer@Forms@Windows@System@@$AA
	call		?SuspendLayout@Control@Forms@Windows@System@@$$FQ$AAMXXZ
; Line 192
	ldarg.0				; this$
	ldfld		?splitContainerSch@Form1@WordDic@@3P$AAVSplitContainer@Forms@Windows@System@@$AA
	callvirt	?BeginInit@ISupportInitialize@ComponentModel@System@@$$FU$AAMXXZ
; Line 193
	ldarg.0				; this$
	ldfld		?splitContainerSch@Form1@WordDic@@3P$AAVSplitContainer@Forms@Windows@System@@$AA
	call		?get@Panel1@SplitContainer@Forms@Windows@System@@$$FQ$AAMP$AAVSplitterPanel@345@XZ
	call		?SuspendLayout@Control@Forms@Windows@System@@$$FQ$AAMXXZ
; Line 194
	ldarg.0				; this$
	ldfld		?splitContainerSch@Form1@WordDic@@3P$AAVSplitContainer@Forms@Windows@System@@$AA
	call		?get@Panel2@SplitContainer@Forms@Windows@System@@$$FQ$AAMP$AAVSplitterPanel@345@XZ
	call		?SuspendLayout@Control@Forms@Windows@System@@$$FQ$AAMXXZ
; Line 195
	ldarg.0				; this$
	ldfld		?splitContainerSch@Form1@WordDic@@3P$AAVSplitContainer@Forms@Windows@System@@$AA
	call		?SuspendLayout@Control@Forms@Windows@System@@$$FQ$AAMXXZ
; Line 196
	ldarg.0				; this$
	ldfld		?tabCtrlSearch@Form1@WordDic@@3P$AAVTabControl@Forms@Windows@System@@$AA
	call		?SuspendLayout@Control@Forms@Windows@System@@$$FQ$AAMXXZ
; Line 197
	ldarg.0				; this$
	ldfld		?tabPageSchWord@Form1@WordDic@@3P$AAVTabPage@Forms@Windows@System@@$AA
	call		?SuspendLayout@Control@Forms@Windows@System@@$$FQ$AAMXXZ
; Line 198
	ldarg.0				; this$
	ldfld		?flowLayoutPanelSchWordSel@Form1@WordDic@@3P$AAVFlowLayoutPanel@Forms@Windows@System@@$AA
	call		?SuspendLayout@Control@Forms@Windows@System@@$$FQ$AAMXXZ
; Line 199
	ldarg.0				; this$
	ldfld		?panelSchWord@Form1@WordDic@@3P$AAVPanel@Forms@Windows@System@@$AA
	call		?SuspendLayout@Control@Forms@Windows@System@@$$FQ$AAMXXZ
; Line 200
	ldarg.0				; this$
	ldfld		?tabPageSchGroup@Form1@WordDic@@3P$AAVTabPage@Forms@Windows@System@@$AA
	call		?SuspendLayout@Control@Forms@Windows@System@@$$FQ$AAMXXZ
; Line 201
	ldarg.0				; this$
	ldfld		?flowLayoutPanelGroupLang@Form1@WordDic@@3P$AAVFlowLayoutPanel@Forms@Windows@System@@$AA
	call		?SuspendLayout@Control@Forms@Windows@System@@$$FQ$AAMXXZ
; Line 202
	ldarg.0				; this$
	ldfld		?flowLayoutPanelWordListBtns2@Form1@WordDic@@3P$AAVFlowLayoutPanel@Forms@Windows@System@@$AA
	call		?SuspendLayout@Control@Forms@Windows@System@@$$FQ$AAMXXZ
; Line 203
	ldarg.0				; this$
	ldfld		?contextMenuStripBook@Form1@WordDic@@3P$AAVContextMenuStrip@Forms@Windows@System@@$AA
	call		?SuspendLayout@Control@Forms@Windows@System@@$$FQ$AAMXXZ
; Line 204
	ldarg.0				; this$
	ldfld		?statusStripMain@Form1@WordDic@@3P$AAVStatusStrip@Forms@Windows@System@@$AA
	call		?SuspendLayout@Control@Forms@Windows@System@@$$FQ$AAMXXZ
; Line 205
	ldarg.0				; this$
	ldfld		?contextMenuHelp@Form1@WordDic@@3P$AAVContextMenuStrip@Forms@Windows@System@@$AA
	call		?SuspendLayout@Control@Forms@Windows@System@@$$FQ$AAMXXZ
; Line 206
	ldarg.0				; this$
	call		?SuspendLayout@Control@Forms@Windows@System@@$$FQ$AAMXXZ
; Line 211
	ldc.i.6		6		; i32 0x6
	newarr		$TypeTok$11696350$
	stloc.1				; $S43$
	ldloc.1				; $S43$
	ldc.i.0		0		; i32 0x0
	ldarg.0				; this$
	ldfld		?QuittoolStripButton@Form1@WordDic@@3P$AAVToolStripButton@Forms@Windows@System@@$AA
	stelem.ref	
	ldloc.1				; $S43$
	ldc.i.1		1		; i32 0x1
	ldarg.0				; this$
	ldfld		?toolStripSeparator1@Form1@WordDic@@3P$AAVToolStripSeparator@Forms@Windows@System@@$AA
	stelem.ref	
	ldloc.1				; $S43$
	ldc.i.2		2		; i32 0x2
	ldarg.0				; this$
	ldfld		?CopyCToolStripButton@Form1@WordDic@@3P$AAVToolStripButton@Forms@Windows@System@@$AA
	stelem.ref	
	ldloc.1				; $S43$
	ldc.i.3		3		; i32 0x3
	ldarg.0				; this$
	ldfld		?toolStripSeparator2@Form1@WordDic@@3P$AAVToolStripSeparator@Forms@Windows@System@@$AA
	stelem.ref	
	ldloc.1				; $S43$
	ldc.i.4		4		; i32 0x4
	ldarg.0				; this$
	ldfld		?toolStripButtonConfig@Form1@WordDic@@3P$AAVToolStripButton@Forms@Windows@System@@$AA
	stelem.ref	
	ldloc.1				; $S43$
	ldc.i.5		5		; i32 0x5
	ldarg.0				; this$
	ldfld		?HelpLToolStripButton@Form1@WordDic@@3P$AAVToolStripButton@Forms@Windows@System@@$AA
	stelem.ref	
	ldarg.0				; this$
	ldfld		?toolStripMain@Form1@WordDic@@3P$AAVToolStrip@Forms@Windows@System@@$AA
	callvirt	?get@Items@ToolStrip@Forms@Windows@System@@$$FU$AAMP$AAVToolStripItemCollection@345@XZ
	ldloc.1				; $S43$
	call		?AddRange@ToolStripItemCollection@Forms@Windows@System@@$$FQ$AAMXP$01AP$AAVToolStripItem@234@@Z
; Line 212
	ldloc.0				; resources$
	ldarg.0				; this$
	ldfld		?toolStripMain@Form1@WordDic@@3P$AAVToolStrip@Forms@Windows@System@@$AA
	ldstr		$StringLiteralTok$??_C@_1BM@GFJFDJP@?$AAt?$AAo?$AAo?$AAl?$AAS?$AAt?$AAr?$AAi?$AAp?$AAM?$AAa?$AAi?$AAn?$AA?$AA@
	call		?ApplyResources@ComponentResourceManager@ComponentModel@System@@$$FQ$AAMXP$AAVObject@3@P$AAVString@3@@Z
; Line 213
	ldarg.0				; this$
	ldfld		?toolStripMain@Form1@WordDic@@3P$AAVToolStrip@Forms@Windows@System@@$AA
	ldstr		$StringLiteralTok$??_C@_1BM@GFJFDJP@?$AAt?$AAo?$AAo?$AAl?$AAS?$AAt?$AAr?$AAi?$AAp?$AAM?$AAa?$AAi?$AAn?$AA?$AA@
	call		?set@Name@Control@Forms@Windows@System@@$$FQ$AAMXP$AAVString@5@@Z
; Line 217
	ldloc.0				; resources$
	ldarg.0				; this$
	ldfld		?QuittoolStripButton@Form1@WordDic@@3P$AAVToolStripButton@Forms@Windows@System@@$AA
	ldstr		$StringLiteralTok$??_C@_1CI@EOALFOLE@?$AAQ?$AAu?$AAi?$AAt?$AAt?$AAo?$AAo?$AAl?$AAS?$AAt?$AAr?$AAi?$AAp?$AAB?$AAu?$AAt?$AAt?$AAo?$AAn?$AA?$AA@
	call		?ApplyResources@ComponentResourceManager@ComponentModel@System@@$$FQ$AAMXP$AAVObject@3@P$AAVString@3@@Z
; Line 218
	ldarg.0				; this$
	ldfld		?QuittoolStripButton@Form1@WordDic@@3P$AAVToolStripButton@Forms@Windows@System@@$AA
	ldstr		$StringLiteralTok$??_C@_1CI@EOALFOLE@?$AAQ?$AAu?$AAi?$AAt?$AAt?$AAo?$AAo?$AAl?$AAS?$AAt?$AAr?$AAi?$AAp?$AAB?$AAu?$AAt?$AAt?$AAo?$AAn?$AA?$AA@
	call		?set@Name@ToolStripItem@Forms@Windows@System@@$$FQ$AAMXP$AAVString@5@@Z
; Line 219
	ldarg.0				; this$
	ldfld		?QuittoolStripButton@Form1@WordDic@@3P$AAVToolStripButton@Forms@Windows@System@@$AA
	ldarg.0				; this$
	ldftn		?終了toolStripButton_Click@Form1@WordDic@@$$FA$AAMXP$AAVObject@System@@P$AAVEventArgs@4@@Z
	newobj		??0EventHandler@System@@$$FQ$AAM@P$AAVObject@1@VIntPtr@1@@Z
	call		?add@Click@ToolStripItem@Forms@Windows@System@@$$FQ$AAMXP$AAVEventHandler@5@@Z
; Line 223
	ldarg.0				; this$
	ldfld		?toolStripSeparator1@Form1@WordDic@@3P$AAVToolStripSeparator@Forms@Windows@System@@$AA
	ldstr		$StringLiteralTok$??_C@_1CI@PNAMHPGD@?$AAt?$AAo?$AAo?$AAl?$AAS?$AAt?$AAr?$AAi?$AAp?$AAS?$AAe?$AAp?$AAa?$AAr?$AAa?$AAt?$AAo?$AAr?$AA1?$AA?$AA@
	call		?set@Name@ToolStripItem@Forms@Windows@System@@$$FQ$AAMXP$AAVString@5@@Z
; Line 224
	ldloc.0				; resources$
	ldarg.0				; this$
	ldfld		?toolStripSeparator1@Form1@WordDic@@3P$AAVToolStripSeparator@Forms@Windows@System@@$AA
	ldstr		$StringLiteralTok$??_C@_1CI@PNAMHPGD@?$AAt?$AAo?$AAo?$AAl?$AAS?$AAt?$AAr?$AAi?$AAp?$AAS?$AAe?$AAp?$AAa?$AAr?$AAa?$AAt?$AAo?$AAr?$AA1?$AA?$AA@
	call		?ApplyResources@ComponentResourceManager@ComponentModel@System@@$$FQ$AAMXP$AAVObject@3@P$AAVString@3@@Z
; Line 228
	ldarg.0				; this$
	ldfld		?CopyCToolStripButton@Form1@WordDic@@3P$AAVToolStripButton@Forms@Windows@System@@$AA
	ldc.i.2		2		; i32 0x2
	callvirt	?set@DisplayStyle@ToolStripItem@Forms@Windows@System@@$$FU$AAMXW4ToolStripItemDisplayStyle@345@@Z
; Line 229
	ldloc.0				; resources$
	ldarg.0				; this$
	ldfld		?CopyCToolStripButton@Form1@WordDic@@3P$AAVToolStripButton@Forms@Windows@System@@$AA
	ldstr		$StringLiteralTok$??_C@_1CK@ECKGKFNJ@?$AAC?$AAo?$AAp?$AAy?$AAC?$AAT?$AAo?$AAo?$AAl?$AAS?$AAt?$AAr?$AAi?$AAp?$AAB?$AAu?$AAt?$AAt?$AAo?$AAn?$AA?$AA@
	call		?ApplyResources@ComponentResourceManager@ComponentModel@System@@$$FQ$AAMXP$AAVObject@3@P$AAVString@3@@Z
; Line 230
	ldarg.0				; this$
	ldfld		?CopyCToolStripButton@Form1@WordDic@@3P$AAVToolStripButton@Forms@Windows@System@@$AA
	ldstr		$StringLiteralTok$??_C@_1CK@ECKGKFNJ@?$AAC?$AAo?$AAp?$AAy?$AAC?$AAT?$AAo?$AAo?$AAl?$AAS?$AAt?$AAr?$AAi?$AAp?$AAB?$AAu?$AAt?$AAt?$AAo?$AAn?$AA?$AA@
	call		?set@Name@ToolStripItem@Forms@Windows@System@@$$FQ$AAMXP$AAVString@5@@Z
; Line 231
	ldarg.0				; this$
	ldfld		?CopyCToolStripButton@Form1@WordDic@@3P$AAVToolStripButton@Forms@Windows@System@@$AA
	ldarg.0				; this$
	ldftn		?コピーCToolStripButton_Click@Form1@WordDic@@$$FA$AAMXP$AAVObject@System@@P$AAVEventArgs@4@@Z
	newobj		??0EventHandler@System@@$$FQ$AAM@P$AAVObject@1@VIntPtr@1@@Z
	call		?add@Click@ToolStripItem@Forms@Windows@System@@$$FQ$AAMXP$AAVEventHandler@5@@Z
; Line 235
	ldarg.0				; this$
	ldfld		?toolStripSeparator2@Form1@WordDic@@3P$AAVToolStripSeparator@Forms@Windows@System@@$AA
	ldstr		$StringLiteralTok$??_C@_1CI@OPLJNAIN@?$AAt?$AAo?$AAo?$AAl?$AAS?$AAt?$AAr?$AAi?$AAp?$AAS?$AAe?$AAp?$AAa?$AAr?$AAa?$AAt?$AAo?$AAr?$AA2?$AA?$AA@
	call		?set@Name@ToolStripItem@Forms@Windows@System@@$$FQ$AAMXP$AAVString@5@@Z
; Line 236
	ldloc.0				; resources$
	ldarg.0				; this$
	ldfld		?toolStripSeparator2@Form1@WordDic@@3P$AAVToolStripSeparator@Forms@Windows@System@@$AA
	ldstr		$StringLiteralTok$??_C@_1CI@OPLJNAIN@?$AAt?$AAo?$AAo?$AAl?$AAS?$AAt?$AAr?$AAi?$AAp?$AAS?$AAe?$AAp?$AAa?$AAr?$AAa?$AAt?$AAo?$AAr?$AA2?$AA?$AA@
	call		?ApplyResources@ComponentResourceManager@ComponentModel@System@@$$FQ$AAMXP$AAVObject@3@P$AAVString@3@@Z
; Line 240
	ldarg.0				; this$
	ldfld		?toolStripButtonConfig@Form1@WordDic@@3P$AAVToolStripButton@Forms@Windows@System@@$AA
	ldc.i.2		2		; i32 0x2
	callvirt	?set@DisplayStyle@ToolStripItem@Forms@Windows@System@@$$FU$AAMXW4ToolStripItemDisplayStyle@345@@Z
; Line 241
	ldloc.0				; resources$
	ldarg.0				; this$
	ldfld		?toolStripButtonConfig@Form1@WordDic@@3P$AAVToolStripButton@Forms@Windows@System@@$AA
	ldstr		$StringLiteralTok$??_C@_1CM@MKMMMMOJ@?$AAt?$AAo?$AAo?$AAl?$AAS?$AAt?$AAr?$AAi?$AAp?$AAB?$AAu?$AAt?$AAt?$AAo?$AAn?$AAC?$AAo?$AAn?$AAf?$AAi?$AAg?$AA?$AA@
	call		?ApplyResources@ComponentResourceManager@ComponentModel@System@@$$FQ$AAMXP$AAVObject@3@P$AAVString@3@@Z
; Line 242
	ldarg.0				; this$
	ldfld		?toolStripButtonConfig@Form1@WordDic@@3P$AAVToolStripButton@Forms@Windows@System@@$AA
	ldstr		$StringLiteralTok$??_C@_1CM@MKMMMMOJ@?$AAt?$AAo?$AAo?$AAl?$AAS?$AAt?$AAr?$AAi?$AAp?$AAB?$AAu?$AAt?$AAt?$AAo?$AAn?$AAC?$AAo?$AAn?$AAf?$AAi?$AAg?$AA?$AA@
	call		?set@Name@ToolStripItem@Forms@Windows@System@@$$FQ$AAMXP$AAVString@5@@Z
; Line 243
	ldarg.0				; this$
	ldfld		?toolStripButtonConfig@Form1@WordDic@@3P$AAVToolStripButton@Forms@Windows@System@@$AA
	ldarg.0				; this$
	ldftn		?toolStripButtonConfig_Click@Form1@WordDic@@$$FA$AAMXP$AAVObject@System@@P$AAVEventArgs@4@@Z
	newobj		??0EventHandler@System@@$$FQ$AAM@P$AAVObject@1@VIntPtr@1@@Z
	call		?add@Click@ToolStripItem@Forms@Windows@System@@$$FQ$AAMXP$AAVEventHandler@5@@Z
; Line 247
	ldarg.0				; this$
	ldfld		?HelpLToolStripButton@Form1@WordDic@@3P$AAVToolStripButton@Forms@Windows@System@@$AA
	ldc.i.2		2		; i32 0x2
	callvirt	?set@DisplayStyle@ToolStripItem@Forms@Windows@System@@$$FU$AAMXW4ToolStripItemDisplayStyle@345@@Z
; Line 248
	ldloc.0				; resources$
	ldarg.0				; this$
	ldfld		?HelpLToolStripButton@Form1@WordDic@@3P$AAVToolStripButton@Forms@Windows@System@@$AA
	ldstr		$StringLiteralTok$??_C@_1CK@DANCBAFF@?$AAH?$AAe?$AAl?$AAp?$AAL?$AAT?$AAo?$AAo?$AAl?$AAS?$AAt?$AAr?$AAi?$AAp?$AAB?$AAu?$AAt?$AAt?$AAo?$AAn?$AA?$AA@
	call		?ApplyResources@ComponentResourceManager@ComponentModel@System@@$$FQ$AAMXP$AAVObject@3@P$AAVString@3@@Z
; Line 249
	ldarg.0				; this$
	ldfld		?HelpLToolStripButton@Form1@WordDic@@3P$AAVToolStripButton@Forms@Windows@System@@$AA
	ldstr		$StringLiteralTok$??_C@_1CK@DANCBAFF@?$AAH?$AAe?$AAl?$AAp?$AAL?$AAT?$AAo?$AAo?$AAl?$AAS?$AAt?$AAr?$AAi?$AAp?$AAB?$AAu?$AAt?$AAt?$AAo?$AAn?$AA?$AA@
	call		?set@Name@ToolStripItem@Forms@Windows@System@@$$FQ$AAMXP$AAVString@5@@Z
; Line 250
	ldarg.0				; this$
	ldfld		?HelpLToolStripButton@Form1@WordDic@@3P$AAVToolStripButton@Forms@Windows@System@@$AA
	ldarg.0				; this$
	ldftn		?ヘルプLToolStripButton_Click@Form1@WordDic@@$$FA$AAMXP$AAVObject@System@@P$AAVEventArgs@4@@Z
	newobj		??0EventHandler@System@@$$FQ$AAM@P$AAVObject@1@VIntPtr@1@@Z
	call		?add@Click@ToolStripItem@Forms@Windows@System@@$$FQ$AAMXP$AAVEventHandler@5@@Z
; Line 254
	ldloc.0				; resources$
	ldarg.0				; this$
	ldfld		?splitContainer1@Form1@WordDic@@3P$AAVSplitContainer@Forms@Windows@System@@$AA
	ldstr		$StringLiteralTok$??_C@_1CA@DLBIODHN@?$AAs?$AAp?$AAl?$AAi?$AAt?$AAC?$AAo?$AAn?$AAt?$AAa?$AAi?$AAn?$AAe?$AAr?$AA1?$AA?$AA@
	call		?ApplyResources@ComponentResourceManager@ComponentModel@System@@$$FQ$AAMXP$AAVObject@3@P$AAVString@3@@Z
; Line 255
	ldarg.0				; this$
	ldfld		?splitContainer1@Form1@WordDic@@3P$AAVSplitContainer@Forms@Windows@System@@$AA
	ldstr		$StringLiteralTok$??_C@_1CA@DLBIODHN@?$AAs?$AAp?$AAl?$AAi?$AAt?$AAC?$AAo?$AAn?$AAt?$AAa?$AAi?$AAn?$AAe?$AAr?$AA1?$AA?$AA@
	call		?set@Name@Control@Forms@Windows@System@@$$FQ$AAMXP$AAVString@5@@Z
; Line 259
	ldarg.0				; this$
	ldfld		?splitContainer1@Form1@WordDic@@3P$AAVSplitContainer@Forms@Windows@System@@$AA
	call		?get@Panel1@SplitContainer@Forms@Windows@System@@$$FQ$AAMP$AAVSplitterPanel@345@XZ
	call		?get@Controls@Control@Forms@Windows@System@@$$FQ$AAMP$AAVControlCollection@2345@XZ
	ldarg.0				; this$
	ldfld		?splitContainerSch@Form1@WordDic@@3P$AAVSplitContainer@Forms@Windows@System@@$AA
	callvirt	?Add@ControlCollection@Control@Forms@Windows@System@@$$FU$AAMXP$AAV2345@@Z
; Line 263
	ldarg.0				; this$
	ldfld		?splitContainer1@Form1@WordDic@@3P$AAVSplitContainer@Forms@Windows@System@@$AA
	call		?get@Panel2@SplitContainer@Forms@Windows@System@@$$FQ$AAMP$AAVSplitterPanel@345@XZ
	call		?get@Controls@Control@Forms@Windows@System@@$$FQ$AAMP$AAVControlCollection@2345@XZ
	ldarg.0				; this$
	ldfld		?webBrowserBook@Form1@WordDic@@3P$AAVWebBrowser@Forms@Windows@System@@$AA
	callvirt	?Add@ControlCollection@Control@Forms@Windows@System@@$$FU$AAMXP$AAV2345@@Z
; Line 267
	ldloc.0				; resources$
	ldarg.0				; this$
	ldfld		?splitContainerSch@Form1@WordDic@@3P$AAVSplitContainer@Forms@Windows@System@@$AA
	ldstr		$StringLiteralTok$??_C@_1CE@ODNNGCBL@?$AAs?$AAp?$AAl?$AAi?$AAt?$AAC?$AAo?$AAn?$AAt?$AAa?$AAi?$AAn?$AAe?$AAr?$AAS?$AAc?$AAh?$AA?$AA@
	call		?ApplyResources@ComponentResourceManager@ComponentModel@System@@$$FQ$AAMXP$AAVObject@3@P$AAVString@3@@Z
; Line 268
	ldarg.0				; this$
	ldfld		?splitContainerSch@Form1@WordDic@@3P$AAVSplitContainer@Forms@Windows@System@@$AA
	ldstr		$StringLiteralTok$??_C@_1CE@ODNNGCBL@?$AAs?$AAp?$AAl?$AAi?$AAt?$AAC?$AAo?$AAn?$AAt?$AAa?$AAi?$AAn?$AAe?$AAr?$AAS?$AAc?$AAh?$AA?$AA@
	call		?set@Name@Control@Forms@Windows@System@@$$FQ$AAMXP$AAVString@5@@Z
; Line 272
	ldarg.0				; this$
	ldfld		?splitContainerSch@Form1@WordDic@@3P$AAVSplitContainer@Forms@Windows@System@@$AA
	call		?get@Panel1@SplitContainer@Forms@Windows@System@@$$FQ$AAMP$AAVSplitterPanel@345@XZ
	call		?get@Controls@Control@Forms@Windows@System@@$$FQ$AAMP$AAVControlCollection@2345@XZ
	ldarg.0				; this$
	ldfld		?tabCtrlSearch@Form1@WordDic@@3P$AAVTabControl@Forms@Windows@System@@$AA
	callvirt	?Add@ControlCollection@Control@Forms@Windows@System@@$$FU$AAMXP$AAV2345@@Z
; Line 276
	ldarg.0				; this$
	ldfld		?splitContainerSch@Form1@WordDic@@3P$AAVSplitContainer@Forms@Windows@System@@$AA
	call		?get@Panel2@SplitContainer@Forms@Windows@System@@$$FQ$AAMP$AAVSplitterPanel@345@XZ
	call		?get@Controls@Control@Forms@Windows@System@@$$FQ$AAMP$AAVControlCollection@2345@XZ
	ldarg.0				; this$
	ldfld		?listBoxWordList@Form1@WordDic@@3P$AAVListBox@Forms@Windows@System@@$AA
	callvirt	?Add@ControlCollection@Control@Forms@Windows@System@@$$FU$AAMXP$AAV2345@@Z
; Line 277
	ldarg.0				; this$
	ldfld		?splitContainerSch@Form1@WordDic@@3P$AAVSplitContainer@Forms@Windows@System@@$AA
	call		?get@Panel2@SplitContainer@Forms@Windows@System@@$$FQ$AAMP$AAVSplitterPanel@345@XZ
	call		?get@Controls@Control@Forms@Windows@System@@$$FQ$AAMP$AAVControlCollection@2345@XZ
	ldarg.0				; this$
	ldfld		?flowLayoutPanelWordListBtns2@Form1@WordDic@@3P$AAVFlowLayoutPanel@Forms@Windows@System@@$AA
	callvirt	?Add@ControlCollection@Control@Forms@Windows@System@@$$FU$AAMXP$AAV2345@@Z
; Line 281
	ldarg.0				; this$
	ldfld		?tabCtrlSearch@Form1@WordDic@@3P$AAVTabControl@Forms@Windows@System@@$AA
	call		?get@Controls@Control@Forms@Windows@System@@$$FQ$AAMP$AAVControlCollection@2345@XZ
	ldarg.0				; this$
	ldfld		?tabPageSchWord@Form1@WordDic@@3P$AAVTabPage@Forms@Windows@System@@$AA
	callvirt	?Add@ControlCollection@Control@Forms@Windows@System@@$$FU$AAMXP$AAV2345@@Z
; Line 282
	ldarg.0				; this$
	ldfld		?tabCtrlSearch@Form1@WordDic@@3P$AAVTabControl@Forms@Windows@System@@$AA
	call		?get@Controls@Control@Forms@Windows@System@@$$FQ$AAMP$AAVControlCollection@2345@XZ
	ldarg.0				; this$
	ldfld		?tabPageSchGroup@Form1@WordDic@@3P$AAVTabPage@Forms@Windows@System@@$AA
	callvirt	?Add@ControlCollection@Control@Forms@Windows@System@@$$FU$AAMXP$AAV2345@@Z
; Line 283
	ldloc.0				; resources$
	ldarg.0				; this$
	ldfld		?tabCtrlSearch@Form1@WordDic@@3P$AAVTabControl@Forms@Windows@System@@$AA
	ldstr		$StringLiteralTok$??_C@_1BM@PPBLMBBA@?$AAt?$AAa?$AAb?$AAC?$AAt?$AAr?$AAl?$AAS?$AAe?$AAa?$AAr?$AAc?$AAh?$AA?$AA@
	call		?ApplyResources@ComponentResourceManager@ComponentModel@System@@$$FQ$AAMXP$AAVObject@3@P$AAVString@3@@Z
; Line 284
	ldarg.0				; this$
	ldfld		?tabCtrlSearch@Form1@WordDic@@3P$AAVTabControl@Forms@Windows@System@@$AA
	ldstr		$StringLiteralTok$??_C@_1BM@PPBLMBBA@?$AAt?$AAa?$AAb?$AAC?$AAt?$AAr?$AAl?$AAS?$AAe?$AAa?$AAr?$AAc?$AAh?$AA?$AA@
	call		?set@Name@Control@Forms@Windows@System@@$$FQ$AAMXP$AAVString@5@@Z
; Line 285
	ldarg.0				; this$
	ldfld		?tabCtrlSearch@Form1@WordDic@@3P$AAVTabControl@Forms@Windows@System@@$AA
	ldc.i.0		0		; i32 0x0
	call		?set@SelectedIndex@TabControl@Forms@Windows@System@@$$FQ$AAMXH@Z
; Line 289
	ldarg.0				; this$
	ldfld		?tabPageSchWord@Form1@WordDic@@3P$AAVTabPage@Forms@Windows@System@@$AA
	call		?get@Controls@Control@Forms@Windows@System@@$$FQ$AAMP$AAVControlCollection@2345@XZ
	ldarg.0				; this$
	ldfld		?flowLayoutPanelSchWordSel@Form1@WordDic@@3P$AAVFlowLayoutPanel@Forms@Windows@System@@$AA
	callvirt	?Add@ControlCollection@Control@Forms@Windows@System@@$$FU$AAMXP$AAV2345@@Z
; Line 290
	ldarg.0				; this$
	ldfld		?tabPageSchWord@Form1@WordDic@@3P$AAVTabPage@Forms@Windows@System@@$AA
	call		?get@Controls@Control@Forms@Windows@System@@$$FQ$AAMP$AAVControlCollection@2345@XZ
	ldarg.0				; this$
	ldfld		?panelSchWord@Form1@WordDic@@3P$AAVPanel@Forms@Windows@System@@$AA
	callvirt	?Add@ControlCollection@Control@Forms@Windows@System@@$$FU$AAMXP$AAV2345@@Z
; Line 291
	ldarg.0				; this$
	ldfld		?tabPageSchWord@Form1@WordDic@@3P$AAVTabPage@Forms@Windows@System@@$AA
	call		?get@Controls@Control@Forms@Windows@System@@$$FQ$AAMP$AAVControlCollection@2345@XZ
	ldarg.0				; this$
	ldfld		?labelSchWord@Form1@WordDic@@3P$AAVLabel@Forms@Windows@System@@$AA
	callvirt	?Add@ControlCollection@Control@Forms@Windows@System@@$$FU$AAMXP$AAV2345@@Z
; Line 292
	ldloc.0				; resources$
	ldarg.0				; this$
	ldfld		?tabPageSchWord@Form1@WordDic@@3P$AAVTabPage@Forms@Windows@System@@$AA
	ldstr		$StringLiteralTok$??_C@_1BO@NNFMPKHK@?$AAt?$AAa?$AAb?$AAP?$AAa?$AAg?$AAe?$AAS?$AAc?$AAh?$AAW?$AAo?$AAr?$AAd?$AA?$AA@
	call		?ApplyResources@ComponentResourceManager@ComponentModel@System@@$$FQ$AAMXP$AAVObject@3@P$AAVString@3@@Z
; Line 293
	ldarg.0				; this$
	ldfld		?tabPageSchWord@Form1@WordDic@@3P$AAVTabPage@Forms@Windows@System@@$AA
	ldstr		$StringLiteralTok$??_C@_1BO@NNFMPKHK@?$AAt?$AAa?$AAb?$AAP?$AAa?$AAg?$AAe?$AAS?$AAc?$AAh?$AAW?$AAo?$AAr?$AAd?$AA?$AA@
	call		?set@Name@Control@Forms@Windows@System@@$$FQ$AAMXP$AAVString@5@@Z
; Line 294
	ldarg.0				; this$
	ldfld		?tabPageSchWord@Form1@WordDic@@3P$AAVTabPage@Forms@Windows@System@@$AA
	ldc.i.1		1		; u8 0x1
	call		?set@UseVisualStyleBackColor@TabPage@Forms@Windows@System@@$$FQ$AAMX_N@Z
; Line 298
	ldarg.0				; this$
	ldfld		?flowLayoutPanelSchWordSel@Form1@WordDic@@3P$AAVFlowLayoutPanel@Forms@Windows@System@@$AA
	call		?get@Controls@Control@Forms@Windows@System@@$$FQ$AAMP$AAVControlCollection@2345@XZ
	ldarg.0				; this$
	ldfld		?radioButtonWordA@Form1@WordDic@@3P$AAVRadioButton@Forms@Windows@System@@$AA
	callvirt	?Add@ControlCollection@Control@Forms@Windows@System@@$$FU$AAMXP$AAV2345@@Z
; Line 299
	ldarg.0				; this$
	ldfld		?flowLayoutPanelSchWordSel@Form1@WordDic@@3P$AAVFlowLayoutPanel@Forms@Windows@System@@$AA
	call		?get@Controls@Control@Forms@Windows@System@@$$FQ$AAMP$AAVControlCollection@2345@XZ
	ldarg.0				; this$
	ldfld		?radioButtonWordB@Form1@WordDic@@3P$AAVRadioButton@Forms@Windows@System@@$AA
	callvirt	?Add@ControlCollection@Control@Forms@Windows@System@@$$FU$AAMXP$AAV2345@@Z
; Line 300
	ldloc.0				; resources$
	ldarg.0				; this$
	ldfld		?flowLayoutPanelSchWordSel@Form1@WordDic@@3P$AAVFlowLayoutPanel@Forms@Windows@System@@$AA
	ldstr		$StringLiteralTok$??_C@_1DE@FIFJOHBH@?$AAf?$AAl?$AAo?$AAw?$AAL?$AAa?$AAy?$AAo?$AAu?$AAt?$AAP?$AAa?$AAn?$AAe?$AAl?$AAS?$AAc?$AAh?$AAW?$AAo?$AAr?$AAd?$AAS?$AAe?$AAl?$AA?$AA@
	call		?ApplyResources@ComponentResourceManager@ComponentModel@System@@$$FQ$AAMXP$AAVObject@3@P$AAVString@3@@Z
; Line 301
	ldarg.0				; this$
	ldfld		?flowLayoutPanelSchWordSel@Form1@WordDic@@3P$AAVFlowLayoutPanel@Forms@Windows@System@@$AA
	ldstr		$StringLiteralTok$??_C@_1DE@FIFJOHBH@?$AAf?$AAl?$AAo?$AAw?$AAL?$AAa?$AAy?$AAo?$AAu?$AAt?$AAP?$AAa?$AAn?$AAe?$AAl?$AAS?$AAc?$AAh?$AAW?$AAo?$AAr?$AAd?$AAS?$AAe?$AAl?$AA?$AA@
	call		?set@Name@Control@Forms@Windows@System@@$$FQ$AAMXP$AAVString@5@@Z
; Line 305
	ldloc.0				; resources$
	ldarg.0				; this$
	ldfld		?radioButtonWordA@Form1@WordDic@@3P$AAVRadioButton@Forms@Windows@System@@$AA
	ldstr		$StringLiteralTok$??_C@_1CC@PCNNJNPP@?$AAr?$AAa?$AAd?$AAi?$AAo?$AAB?$AAu?$AAt?$AAt?$AAo?$AAn?$AAW?$AAo?$AAr?$AAd?$AAA?$AA?$AA@
	call		?ApplyResources@ComponentResourceManager@ComponentModel@System@@$$FQ$AAMXP$AAVObject@3@P$AAVString@3@@Z
; Line 306
	ldarg.0				; this$
	ldfld		?radioButtonWordA@Form1@WordDic@@3P$AAVRadioButton@Forms@Windows@System@@$AA
	ldc.i.1		1		; u8 0x1
	call		?set@Checked@RadioButton@Forms@Windows@System@@$$FQ$AAMX_N@Z
; Line 307
	ldarg.0				; this$
	ldfld		?radioButtonWordA@Form1@WordDic@@3P$AAVRadioButton@Forms@Windows@System@@$AA
	ldstr		$StringLiteralTok$??_C@_1CC@PCNNJNPP@?$AAr?$AAa?$AAd?$AAi?$AAo?$AAB?$AAu?$AAt?$AAt?$AAo?$AAn?$AAW?$AAo?$AAr?$AAd?$AAA?$AA?$AA@
	call		?set@Name@Control@Forms@Windows@System@@$$FQ$AAMXP$AAVString@5@@Z
; Line 308
	ldarg.0				; this$
	ldfld		?radioButtonWordA@Form1@WordDic@@3P$AAVRadioButton@Forms@Windows@System@@$AA
	ldc.i.1		1		; u8 0x1
	call		?set@TabStop@RadioButton@Forms@Windows@System@@$$FQ$AAMX_N@Z
; Line 309
	ldarg.0				; this$
	ldfld		?radioButtonWordA@Form1@WordDic@@3P$AAVRadioButton@Forms@Windows@System@@$AA
	ldc.i.1		1		; u8 0x1
	call		?set@UseVisualStyleBackColor@ButtonBase@Forms@Windows@System@@$$FQ$AAMX_N@Z
; Line 313
	ldloc.0				; resources$
	ldarg.0				; this$
	ldfld		?radioButtonWordB@Form1@WordDic@@3P$AAVRadioButton@Forms@Windows@System@@$AA
	ldstr		$StringLiteralTok$??_C@_1CC@OAGIDCBB@?$AAr?$AAa?$AAd?$AAi?$AAo?$AAB?$AAu?$AAt?$AAt?$AAo?$AAn?$AAW?$AAo?$AAr?$AAd?$AAB?$AA?$AA@
	call		?ApplyResources@ComponentResourceManager@ComponentModel@System@@$$FQ$AAMXP$AAVObject@3@P$AAVString@3@@Z
; Line 314
	ldarg.0				; this$
	ldfld		?radioButtonWordB@Form1@WordDic@@3P$AAVRadioButton@Forms@Windows@System@@$AA
	ldstr		$StringLiteralTok$??_C@_1CC@OAGIDCBB@?$AAr?$AAa?$AAd?$AAi?$AAo?$AAB?$AAu?$AAt?$AAt?$AAo?$AAn?$AAW?$AAo?$AAr?$AAd?$AAB?$AA?$AA@
	call		?set@Name@Control@Forms@Windows@System@@$$FQ$AAMXP$AAVString@5@@Z
; Line 315
	ldarg.0				; this$
	ldfld		?radioButtonWordB@Form1@WordDic@@3P$AAVRadioButton@Forms@Windows@System@@$AA
	ldc.i.1		1		; u8 0x1
	call		?set@UseVisualStyleBackColor@ButtonBase@Forms@Windows@System@@$$FQ$AAMX_N@Z
; Line 319
	ldarg.0				; this$
	ldfld		?panelSchWord@Form1@WordDic@@3P$AAVPanel@Forms@Windows@System@@$AA
	call		?get@Controls@Control@Forms@Windows@System@@$$FQ$AAMP$AAVControlCollection@2345@XZ
	ldarg.0				; this$
	ldfld		?textBoxSchWord@Form1@WordDic@@3P$AAVTextBox@Forms@Windows@System@@$AA
	callvirt	?Add@ControlCollection@Control@Forms@Windows@System@@$$FU$AAMXP$AAV2345@@Z
; Line 320
	ldarg.0				; this$
	ldfld		?panelSchWord@Form1@WordDic@@3P$AAVPanel@Forms@Windows@System@@$AA
	call		?get@Controls@Control@Forms@Windows@System@@$$FQ$AAMP$AAVControlCollection@2345@XZ
	ldarg.0				; this$
	ldfld		?buttonSchWord@Form1@WordDic@@3P$AAVButton@Forms@Windows@System@@$AA
	callvirt	?Add@ControlCollection@Control@Forms@Windows@System@@$$FU$AAMXP$AAV2345@@Z
; Line 321
	ldloc.0				; resources$
	ldarg.0				; this$
	ldfld		?panelSchWord@Form1@WordDic@@3P$AAVPanel@Forms@Windows@System@@$AA
	ldstr		$StringLiteralTok$??_C@_1BK@BGANPDJ@?$AAp?$AAa?$AAn?$AAe?$AAl?$AAS?$AAc?$AAh?$AAW?$AAo?$AAr?$AAd?$AA?$AA@
	call		?ApplyResources@ComponentResourceManager@ComponentModel@System@@$$FQ$AAMXP$AAVObject@3@P$AAVString@3@@Z
; Line 322
	ldarg.0				; this$
	ldfld		?panelSchWord@Form1@WordDic@@3P$AAVPanel@Forms@Windows@System@@$AA
	ldstr		$StringLiteralTok$??_C@_1BK@BGANPDJ@?$AAp?$AAa?$AAn?$AAe?$AAl?$AAS?$AAc?$AAh?$AAW?$AAo?$AAr?$AAd?$AA?$AA@
	call		?set@Name@Control@Forms@Windows@System@@$$FQ$AAMXP$AAVString@5@@Z
; Line 326
	ldloc.0				; resources$
	ldarg.0				; this$
	ldfld		?textBoxSchWord@Form1@WordDic@@3P$AAVTextBox@Forms@Windows@System@@$AA
	ldstr		$StringLiteralTok$??_C@_1BO@FHFOCJEC@?$AAt?$AAe?$AAx?$AAt?$AAB?$AAo?$AAx?$AAS?$AAc?$AAh?$AAW?$AAo?$AAr?$AAd?$AA?$AA@
	call		?ApplyResources@ComponentResourceManager@ComponentModel@System@@$$FQ$AAMXP$AAVObject@3@P$AAVString@3@@Z
; Line 327
	ldarg.0				; this$
	ldfld		?textBoxSchWord@Form1@WordDic@@3P$AAVTextBox@Forms@Windows@System@@$AA
	ldstr		$StringLiteralTok$??_C@_1BO@FHFOCJEC@?$AAt?$AAe?$AAx?$AAt?$AAB?$AAo?$AAx?$AAS?$AAc?$AAh?$AAW?$AAo?$AAr?$AAd?$AA?$AA@
	call		?set@Name@Control@Forms@Windows@System@@$$FQ$AAMXP$AAVString@5@@Z
; Line 328
	ldarg.0				; this$
	ldfld		?textBoxSchWord@Form1@WordDic@@3P$AAVTextBox@Forms@Windows@System@@$AA
	ldarg.0				; this$
	ldftn		?textBoxSchWord_KeyPress@Form1@WordDic@@$$FA$AAMXP$AAVObject@System@@P$AAVKeyPressEventArgs@Forms@Windows@4@@Z
	newobj		??0KeyPressEventHandler@Forms@Windows@System@@$$FQ$AAM@P$AAVObject@3@VIntPtr@3@@Z
	call		?add@KeyPress@Control@Forms@Windows@System@@$$FQ$AAMXP$AAVKeyPressEventHandler@345@@Z
; Line 332
	ldloc.0				; resources$
	ldarg.0				; this$
	ldfld		?buttonSchWord@Form1@WordDic@@3P$AAVButton@Forms@Windows@System@@$AA
	ldstr		$StringLiteralTok$??_C@_1BM@EALDNCEI@?$AAb?$AAu?$AAt?$AAt?$AAo?$AAn?$AAS?$AAc?$AAh?$AAW?$AAo?$AAr?$AAd?$AA?$AA@
	call		?ApplyResources@ComponentResourceManager@ComponentModel@System@@$$FQ$AAMXP$AAVObject@3@P$AAVString@3@@Z
; Line 333
	ldarg.0				; this$
	ldfld		?buttonSchWord@Form1@WordDic@@3P$AAVButton@Forms@Windows@System@@$AA
	ldstr		$StringLiteralTok$??_C@_1BM@EALDNCEI@?$AAb?$AAu?$AAt?$AAt?$AAo?$AAn?$AAS?$AAc?$AAh?$AAW?$AAo?$AAr?$AAd?$AA?$AA@
	call		?set@Name@Control@Forms@Windows@System@@$$FQ$AAMXP$AAVString@5@@Z
; Line 334
	ldarg.0				; this$
	ldfld		?buttonSchWord@Form1@WordDic@@3P$AAVButton@Forms@Windows@System@@$AA
	ldc.i.1		1		; u8 0x1
	call		?set@UseVisualStyleBackColor@ButtonBase@Forms@Windows@System@@$$FQ$AAMX_N@Z
; Line 335
	ldarg.0				; this$
	ldfld		?buttonSchWord@Form1@WordDic@@3P$AAVButton@Forms@Windows@System@@$AA
	ldarg.0				; this$
	ldftn		?buttonSchWord_Click@Form1@WordDic@@$$FA$AAMXP$AAVObject@System@@P$AAVEventArgs@4@@Z
	newobj		??0EventHandler@System@@$$FQ$AAM@P$AAVObject@1@VIntPtr@1@@Z
	call		?add@Click@Control@Forms@Windows@System@@$$FQ$AAMXP$AAVEventHandler@5@@Z
; Line 339
	ldloc.0				; resources$
	ldarg.0				; this$
	ldfld		?labelSchWord@Form1@WordDic@@3P$AAVLabel@Forms@Windows@System@@$AA
	ldstr		$StringLiteralTok$??_C@_1BK@DBGNIKCD@?$AAl?$AAa?$AAb?$AAe?$AAl?$AAS?$AAc?$AAh?$AAW?$AAo?$AAr?$AAd?$AA?$AA@
	call		?ApplyResources@ComponentResourceManager@ComponentModel@System@@$$FQ$AAMXP$AAVObject@3@P$AAVString@3@@Z
; Line 340
	ldarg.0				; this$
	ldfld		?labelSchWord@Form1@WordDic@@3P$AAVLabel@Forms@Windows@System@@$AA
	ldstr		$StringLiteralTok$??_C@_1BK@DBGNIKCD@?$AAl?$AAa?$AAb?$AAe?$AAl?$AAS?$AAc?$AAh?$AAW?$AAo?$AAr?$AAd?$AA?$AA@
	call		?set@Name@Control@Forms@Windows@System@@$$FQ$AAMXP$AAVString@5@@Z
; Line 344
	ldarg.0				; this$
	ldfld		?tabPageSchGroup@Form1@WordDic@@3P$AAVTabPage@Forms@Windows@System@@$AA
	call		?get@Controls@Control@Forms@Windows@System@@$$FQ$AAMP$AAVControlCollection@2345@XZ
	ldarg.0				; this$
	ldfld		?treeViewGroupTree@Form1@WordDic@@3P$AAVTreeView@Forms@Windows@System@@$AA
	callvirt	?Add@ControlCollection@Control@Forms@Windows@System@@$$FU$AAMXP$AAV2345@@Z
; Line 345
	ldarg.0				; this$
	ldfld		?tabPageSchGroup@Form1@WordDic@@3P$AAVTabPage@Forms@Windows@System@@$AA
	call		?get@Controls@Control@Forms@Windows@System@@$$FQ$AAMP$AAVControlCollection@2345@XZ
	ldarg.0				; this$
	ldfld		?flowLayoutPanelGroupLang@Form1@WordDic@@3P$AAVFlowLayoutPanel@Forms@Windows@System@@$AA
	callvirt	?Add@ControlCollection@Control@Forms@Windows@System@@$$FU$AAMXP$AAV2345@@Z
; Line 346
	ldloc.0				; resources$
	ldarg.0				; this$
	ldfld		?tabPageSchGroup@Form1@WordDic@@3P$AAVTabPage@Forms@Windows@System@@$AA
	ldstr		$StringLiteralTok$??_C@_1CA@BCPLOFNO@?$AAt?$AAa?$AAb?$AAP?$AAa?$AAg?$AAe?$AAS?$AAc?$AAh?$AAG?$AAr?$AAo?$AAu?$AAp?$AA?$AA@
	call		?ApplyResources@ComponentResourceManager@ComponentModel@System@@$$FQ$AAMXP$AAVObject@3@P$AAVString@3@@Z
; Line 347
	ldarg.0				; this$
	ldfld		?tabPageSchGroup@Form1@WordDic@@3P$AAVTabPage@Forms@Windows@System@@$AA
	ldstr		$StringLiteralTok$??_C@_1CA@BCPLOFNO@?$AAt?$AAa?$AAb?$AAP?$AAa?$AAg?$AAe?$AAS?$AAc?$AAh?$AAG?$AAr?$AAo?$AAu?$AAp?$AA?$AA@
	call		?set@Name@Control@Forms@Windows@System@@$$FQ$AAMXP$AAVString@5@@Z
; Line 348
	ldarg.0				; this$
	ldfld		?tabPageSchGroup@Form1@WordDic@@3P$AAVTabPage@Forms@Windows@System@@$AA
	ldc.i.1		1		; u8 0x1
	call		?set@UseVisualStyleBackColor@TabPage@Forms@Windows@System@@$$FQ$AAMX_N@Z
; Line 352
	ldloc.0				; resources$
	ldarg.0				; this$
	ldfld		?treeViewGroupTree@Form1@WordDic@@3P$AAVTreeView@Forms@Windows@System@@$AA
	ldstr		$StringLiteralTok$??_C@_1CE@PHCANOIB@?$AAt?$AAr?$AAe?$AAe?$AAV?$AAi?$AAe?$AAw?$AAG?$AAr?$AAo?$AAu?$AAp?$AAT?$AAr?$AAe?$AAe?$AA?$AA@
	call		?ApplyResources@ComponentResourceManager@ComponentModel@System@@$$FQ$AAMXP$AAVObject@3@P$AAVString@3@@Z
; Line 353
	ldarg.0				; this$
	ldfld		?treeViewGroupTree@Form1@WordDic@@3P$AAVTreeView@Forms@Windows@System@@$AA
	ldstr		$StringLiteralTok$??_C@_1CE@PHCANOIB@?$AAt?$AAr?$AAe?$AAe?$AAV?$AAi?$AAe?$AAw?$AAG?$AAr?$AAo?$AAu?$AAp?$AAT?$AAr?$AAe?$AAe?$AA?$AA@
	call		?set@Name@Control@Forms@Windows@System@@$$FQ$AAMXP$AAVString@5@@Z
; Line 354
	ldarg.0				; this$
	ldfld		?treeViewGroupTree@Form1@WordDic@@3P$AAVTreeView@Forms@Windows@System@@$AA
	ldarg.0				; this$
	ldftn		?treeViewGroupTree_DoubleClick@Form1@WordDic@@$$FA$AAMXP$AAVObject@System@@P$AAVEventArgs@4@@Z
	newobj		??0EventHandler@System@@$$FQ$AAM@P$AAVObject@1@VIntPtr@1@@Z
	call		?add@DoubleClick@Control@Forms@Windows@System@@$$FQ$AAMXP$AAVEventHandler@5@@Z
; Line 358
	ldarg.0				; this$
	ldfld		?flowLayoutPanelGroupLang@Form1@WordDic@@3P$AAVFlowLayoutPanel@Forms@Windows@System@@$AA
	call		?get@Controls@Control@Forms@Windows@System@@$$FQ$AAMP$AAVControlCollection@2345@XZ
	ldarg.0				; this$
	ldfld		?radioButtonGroupA@Form1@WordDic@@3P$AAVRadioButton@Forms@Windows@System@@$AA
	callvirt	?Add@ControlCollection@Control@Forms@Windows@System@@$$FU$AAMXP$AAV2345@@Z
; Line 359
	ldarg.0				; this$
	ldfld		?flowLayoutPanelGroupLang@Form1@WordDic@@3P$AAVFlowLayoutPanel@Forms@Windows@System@@$AA
	call		?get@Controls@Control@Forms@Windows@System@@$$FQ$AAMP$AAVControlCollection@2345@XZ
	ldarg.0				; this$
	ldfld		?radioButtonGroupB@Form1@WordDic@@3P$AAVRadioButton@Forms@Windows@System@@$AA
	callvirt	?Add@ControlCollection@Control@Forms@Windows@System@@$$FU$AAMXP$AAV2345@@Z
; Line 360
	ldloc.0				; resources$
	ldarg.0				; this$
	ldfld		?flowLayoutPanelGroupLang@Form1@WordDic@@3P$AAVFlowLayoutPanel@Forms@Windows@System@@$AA
	ldstr		$StringLiteralTok$??_C@_1DC@OAFCAKBK@?$AAf?$AAl?$AAo?$AAw?$AAL?$AAa?$AAy?$AAo?$AAu?$AAt?$AAP?$AAa?$AAn?$AAe?$AAl?$AAG?$AAr?$AAo?$AAu?$AAp?$AAL?$AAa?$AAn?$AAg?$AA?$AA@
	call		?ApplyResources@ComponentResourceManager@ComponentModel@System@@$$FQ$AAMXP$AAVObject@3@P$AAVString@3@@Z
; Line 361
	ldarg.0				; this$
	ldfld		?flowLayoutPanelGroupLang@Form1@WordDic@@3P$AAVFlowLayoutPanel@Forms@Windows@System@@$AA
	ldstr		$StringLiteralTok$??_C@_1DC@OAFCAKBK@?$AAf?$AAl?$AAo?$AAw?$AAL?$AAa?$AAy?$AAo?$AAu?$AAt?$AAP?$AAa?$AAn?$AAe?$AAl?$AAG?$AAr?$AAo?$AAu?$AAp?$AAL?$AAa?$AAn?$AAg?$AA?$AA@
	call		?set@Name@Control@Forms@Windows@System@@$$FQ$AAMXP$AAVString@5@@Z
; Line 365
	ldloc.0				; resources$
	ldarg.0				; this$
	ldfld		?radioButtonGroupA@Form1@WordDic@@3P$AAVRadioButton@Forms@Windows@System@@$AA
	ldstr		$StringLiteralTok$??_C@_1CE@GHFAOAJF@?$AAr?$AAa?$AAd?$AAi?$AAo?$AAB?$AAu?$AAt?$AAt?$AAo?$AAn?$AAG?$AAr?$AAo?$AAu?$AAp?$AAA?$AA?$AA@
	call		?ApplyResources@ComponentResourceManager@ComponentModel@System@@$$FQ$AAMXP$AAVObject@3@P$AAVString@3@@Z
; Line 366
	ldarg.0				; this$
	ldfld		?radioButtonGroupA@Form1@WordDic@@3P$AAVRadioButton@Forms@Windows@System@@$AA
	ldc.i.1		1		; u8 0x1
	call		?set@Checked@RadioButton@Forms@Windows@System@@$$FQ$AAMX_N@Z
; Line 367
	ldarg.0				; this$
	ldfld		?radioButtonGroupA@Form1@WordDic@@3P$AAVRadioButton@Forms@Windows@System@@$AA
	ldstr		$StringLiteralTok$??_C@_1CE@GHFAOAJF@?$AAr?$AAa?$AAd?$AAi?$AAo?$AAB?$AAu?$AAt?$AAt?$AAo?$AAn?$AAG?$AAr?$AAo?$AAu?$AAp?$AAA?$AA?$AA@
	call		?set@Name@Control@Forms@Windows@System@@$$FQ$AAMXP$AAVString@5@@Z
; Line 368
	ldarg.0				; this$
	ldfld		?radioButtonGroupA@Form1@WordDic@@3P$AAVRadioButton@Forms@Windows@System@@$AA
	ldc.i.1		1		; u8 0x1
	call		?set@TabStop@RadioButton@Forms@Windows@System@@$$FQ$AAMX_N@Z
; Line 369
	ldarg.0				; this$
	ldfld		?radioButtonGroupA@Form1@WordDic@@3P$AAVRadioButton@Forms@Windows@System@@$AA
	ldc.i.1		1		; u8 0x1
	call		?set@UseVisualStyleBackColor@ButtonBase@Forms@Windows@System@@$$FQ$AAMX_N@Z
; Line 373
	ldloc.0				; resources$
	ldarg.0				; this$
	ldfld		?radioButtonGroupB@Form1@WordDic@@3P$AAVRadioButton@Forms@Windows@System@@$AA
	ldstr		$StringLiteralTok$??_C@_1CE@HFOFEPHL@?$AAr?$AAa?$AAd?$AAi?$AAo?$AAB?$AAu?$AAt?$AAt?$AAo?$AAn?$AAG?$AAr?$AAo?$AAu?$AAp?$AAB?$AA?$AA@
	call		?ApplyResources@ComponentResourceManager@ComponentModel@System@@$$FQ$AAMXP$AAVObject@3@P$AAVString@3@@Z
; Line 374
	ldarg.0				; this$
	ldfld		?radioButtonGroupB@Form1@WordDic@@3P$AAVRadioButton@Forms@Windows@System@@$AA
	ldstr		$StringLiteralTok$??_C@_1CE@HFOFEPHL@?$AAr?$AAa?$AAd?$AAi?$AAo?$AAB?$AAu?$AAt?$AAt?$AAo?$AAn?$AAG?$AAr?$AAo?$AAu?$AAp?$AAB?$AA?$AA@
	call		?set@Name@Control@Forms@Windows@System@@$$FQ$AAMXP$AAVString@5@@Z
; Line 375
	ldarg.0				; this$
	ldfld		?radioButtonGroupB@Form1@WordDic@@3P$AAVRadioButton@Forms@Windows@System@@$AA
	ldc.i.1		1		; u8 0x1
	call		?set@UseVisualStyleBackColor@ButtonBase@Forms@Windows@System@@$$FQ$AAMX_N@Z
; Line 379
	ldarg.0				; this$
	ldfld		?listBoxWordList@Form1@WordDic@@3P$AAVListBox@Forms@Windows@System@@$AA
	ldc.i.0		0		; i32 0x0
	call		?set@BorderStyle@ListBox@Forms@Windows@System@@$$FQ$AAMXW41345@@Z
; Line 380
	ldloc.0				; resources$
	ldarg.0				; this$
	ldfld		?listBoxWordList@Form1@WordDic@@3P$AAVListBox@Forms@Windows@System@@$AA
	ldstr		$StringLiteralTok$??_C@_1CA@LMLJFDGN@?$AAl?$AAi?$AAs?$AAt?$AAB?$AAo?$AAx?$AAW?$AAo?$AAr?$AAd?$AAL?$AAi?$AAs?$AAt?$AA?$AA@
	call		?ApplyResources@ComponentResourceManager@ComponentModel@System@@$$FQ$AAMXP$AAVObject@3@P$AAVString@3@@Z
; Line 381
	ldarg.0				; this$
	ldfld		?listBoxWordList@Form1@WordDic@@3P$AAVListBox@Forms@Windows@System@@$AA
	ldc.i.1		1		; u8 0x1
	call		?set@FormattingEnabled@ListControl@Forms@Windows@System@@$$FQ$AAMX_N@Z
; Line 382
	ldarg.0				; this$
	ldfld		?listBoxWordList@Form1@WordDic@@3P$AAVListBox@Forms@Windows@System@@$AA
	ldstr		$StringLiteralTok$??_C@_1CA@LMLJFDGN@?$AAl?$AAi?$AAs?$AAt?$AAB?$AAo?$AAx?$AAW?$AAo?$AAr?$AAd?$AAL?$AAi?$AAs?$AAt?$AA?$AA@
	call		?set@Name@Control@Forms@Windows@System@@$$FQ$AAMXP$AAVString@5@@Z
; Line 383
	ldarg.0				; this$
	ldfld		?listBoxWordList@Form1@WordDic@@3P$AAVListBox@Forms@Windows@System@@$AA
	ldarg.0				; this$
	ldftn		?listBoxWordList_DoubleClick@Form1@WordDic@@$$FA$AAMXP$AAVObject@System@@P$AAVEventArgs@4@@Z
	newobj		??0EventHandler@System@@$$FQ$AAM@P$AAVObject@1@VIntPtr@1@@Z
	call		?add@DoubleClick@Control@Forms@Windows@System@@$$FQ$AAMXP$AAVEventHandler@5@@Z
; Line 387
	ldarg.0				; this$
	ldfld		?flowLayoutPanelWordListBtns2@Form1@WordDic@@3P$AAVFlowLayoutPanel@Forms@Windows@System@@$AA
	call		?get@Controls@Control@Forms@Windows@System@@$$FQ$AAMP$AAVControlCollection@2345@XZ
	ldarg.0				; this$
	ldfld		?buttonWordListClear@Form1@WordDic@@3P$AAVButton@Forms@Windows@System@@$AA
	callvirt	?Add@ControlCollection@Control@Forms@Windows@System@@$$FU$AAMXP$AAV2345@@Z
; Line 388
	ldloc.0				; resources$
	ldarg.0				; this$
	ldfld		?flowLayoutPanelWordListBtns2@Form1@WordDic@@3P$AAVFlowLayoutPanel@Forms@Windows@System@@$AA
	ldstr		$StringLiteralTok$??_C@_1DK@NKNJILHH@?$AAf?$AAl?$AAo?$AAw?$AAL?$AAa?$AAy?$AAo?$AAu?$AAt?$AAP?$AAa?$AAn?$AAe?$AAl?$AAW?$AAo?$AAr?$AAd?$AAL?$AAi?$AAs?$AAt?$AAB?$AAt?$AAn?$AAs?$AA2?$AA?$AA@
	call		?ApplyResources@ComponentResourceManager@ComponentModel@System@@$$FQ$AAMXP$AAVObject@3@P$AAVString@3@@Z
; Line 389
	ldarg.0				; this$
	ldfld		?flowLayoutPanelWordListBtns2@Form1@WordDic@@3P$AAVFlowLayoutPanel@Forms@Windows@System@@$AA
	ldstr		$StringLiteralTok$??_C@_1DK@NKNJILHH@?$AAf?$AAl?$AAo?$AAw?$AAL?$AAa?$AAy?$AAo?$AAu?$AAt?$AAP?$AAa?$AAn?$AAe?$AAl?$AAW?$AAo?$AAr?$AAd?$AAL?$AAi?$AAs?$AAt?$AAB?$AAt?$AAn?$AAs?$AA2?$AA?$AA@
	call		?set@Name@Control@Forms@Windows@System@@$$FQ$AAMXP$AAVString@5@@Z
; Line 393
	ldloc.0				; resources$
	ldarg.0				; this$
	ldfld		?buttonWordListClear@Form1@WordDic@@3P$AAVButton@Forms@Windows@System@@$AA
	ldstr		$StringLiteralTok$??_C@_1CI@FHKHEFNK@?$AAb?$AAu?$AAt?$AAt?$AAo?$AAn?$AAW?$AAo?$AAr?$AAd?$AAL?$AAi?$AAs?$AAt?$AAC?$AAl?$AAe?$AAa?$AAr?$AA?$AA@
	call		?ApplyResources@ComponentResourceManager@ComponentModel@System@@$$FQ$AAMXP$AAVObject@3@P$AAVString@3@@Z
; Line 394
	ldarg.0				; this$
	ldfld		?buttonWordListClear@Form1@WordDic@@3P$AAVButton@Forms@Windows@System@@$AA
	ldstr		$StringLiteralTok$??_C@_1CI@FHKHEFNK@?$AAb?$AAu?$AAt?$AAt?$AAo?$AAn?$AAW?$AAo?$AAr?$AAd?$AAL?$AAi?$AAs?$AAt?$AAC?$AAl?$AAe?$AAa?$AAr?$AA?$AA@
	call		?set@Name@Control@Forms@Windows@System@@$$FQ$AAMXP$AAVString@5@@Z
; Line 395
	ldarg.0				; this$
	ldfld		?buttonWordListClear@Form1@WordDic@@3P$AAVButton@Forms@Windows@System@@$AA
	ldc.i.1		1		; u8 0x1
	call		?set@UseVisualStyleBackColor@ButtonBase@Forms@Windows@System@@$$FQ$AAMX_N@Z
; Line 396
	ldarg.0				; this$
	ldfld		?buttonWordListClear@Form1@WordDic@@3P$AAVButton@Forms@Windows@System@@$AA
	ldarg.0				; this$
	ldftn		?buttonWordListClear_Click@Form1@WordDic@@$$FA$AAMXP$AAVObject@System@@P$AAVEventArgs@4@@Z
	newobj		??0EventHandler@System@@$$FQ$AAM@P$AAVObject@1@VIntPtr@1@@Z
	call		?add@Click@Control@Forms@Windows@System@@$$FQ$AAMXP$AAVEventHandler@5@@Z
; Line 400
	ldarg.0				; this$
	ldfld		?webBrowserBook@Form1@WordDic@@3P$AAVWebBrowser@Forms@Windows@System@@$AA
	ldarg.0				; this$
	ldfld		?contextMenuStripBook@Form1@WordDic@@3P$AAVContextMenuStrip@Forms@Windows@System@@$AA
	callvirt	?set@ContextMenuStrip@Control@Forms@Windows@System@@$$FU$AAMXP$AAV1345@@Z
; Line 401
	ldloc.0				; resources$
	ldarg.0				; this$
	ldfld		?webBrowserBook@Form1@WordDic@@3P$AAVWebBrowser@Forms@Windows@System@@$AA
	ldstr		$StringLiteralTok$??_C@_1BO@DACHOAOF@?$AAw?$AAe?$AAb?$AAB?$AAr?$AAo?$AAw?$AAs?$AAe?$AAr?$AAB?$AAo?$AAo?$AAk?$AA?$AA@
	call		?ApplyResources@ComponentResourceManager@ComponentModel@System@@$$FQ$AAMXP$AAVObject@3@P$AAVString@3@@Z
; Line 402
	ldarg.0				; this$
	ldfld		?webBrowserBook@Form1@WordDic@@3P$AAVWebBrowser@Forms@Windows@System@@$AA
	ldc.i.0		0		; u8 0x0
	call		?set@IsWebBrowserContextMenuEnabled@WebBrowser@Forms@Windows@System@@$$FQ$AAMX_N@Z
; Line 403
	ldloca.s	7		; $S44$
	ldc.i4.s	20		; i32 0x14
	ldc.i4.s	18		; i32 0x12
	call		??0Size@Drawing@System@@$$FQ$CAM@HH@Z
	ldarg.0				; this$
	ldfld		?webBrowserBook@Form1@WordDic@@3P$AAVWebBrowser@Forms@Windows@System@@$AA
	ldloc.s		7		; $S44$
	callvirt	?set@MinimumSize@Control@Forms@Windows@System@@$$FU$AAMXVSize@Drawing@5@@Z
; Line 404
	ldarg.0				; this$
	ldfld		?webBrowserBook@Form1@WordDic@@3P$AAVWebBrowser@Forms@Windows@System@@$AA
	ldstr		$StringLiteralTok$??_C@_1BO@DACHOAOF@?$AAw?$AAe?$AAb?$AAB?$AAr?$AAo?$AAw?$AAs?$AAe?$AAr?$AAB?$AAo?$AAo?$AAk?$AA?$AA@
	call		?set@Name@Control@Forms@Windows@System@@$$FQ$AAMXP$AAVString@5@@Z
; Line 405
	ldarg.0				; this$
	ldfld		?webBrowserBook@Form1@WordDic@@3P$AAVWebBrowser@Forms@Windows@System@@$AA
	ldstr		$StringLiteralTok$??_C@_11LOCGONAA@?$AA?$AA@
	ldc.i.2		2		; i32 0x2
	newobj		??0Uri@System@@$$FQ$AAM@P$AAVString@1@W4UriKind@1@@Z
	call		?set@Url@WebBrowser@Forms@Windows@System@@$$FQ$AAMXP$AAVUri@5@@Z
; Line 406
	ldarg.0				; this$
	ldfld		?webBrowserBook@Form1@WordDic@@3P$AAVWebBrowser@Forms@Windows@System@@$AA
	ldarg.0				; this$
	ldftn		?webBrowserBook_Navigating@Form1@WordDic@@$$FA$AAMXP$AAVObject@System@@P$AAVWebBrowserNavigatingEventArgs@Forms@Windows@4@@Z
	newobj		??0WebBrowserNavigatingEventHandler@Forms@Windows@System@@$$FQ$AAM@P$AAVObject@3@VIntPtr@3@@Z
	call		?add@Navigating@WebBrowser@Forms@Windows@System@@$$FQ$AAMXP$AAVWebBrowserNavigatingEventHandler@345@@Z
; Line 411
	ldc.i.3		3		; i32 0x3
	newarr		$TypeTok$11696350$
	stloc.2				; $S45$
	ldloc.2				; $S45$
	ldc.i.0		0		; i32 0x0
	ldarg.0				; this$
	ldfld		?toolStripMenuItemBookCopy@Form1@WordDic@@3P$AAVToolStripMenuItem@Forms@Windows@System@@$AA
	stelem.ref	
	ldloc.2				; $S45$
	ldc.i.1		1		; i32 0x1
	ldarg.0				; this$
	ldfld		?toolStripMenuItemWebSearch@Form1@WordDic@@3P$AAVToolStripMenuItem@Forms@Windows@System@@$AA
	stelem.ref	
	ldloc.2				; $S45$
	ldc.i.2		2		; i32 0x2
	ldarg.0				; this$
	ldfld		?ToolStripMenuItemWebEncyclopedia@Form1@WordDic@@3P$AAVToolStripMenuItem@Forms@Windows@System@@$AA
	stelem.ref	
	ldarg.0				; this$
	ldfld		?contextMenuStripBook@Form1@WordDic@@3P$AAVContextMenuStrip@Forms@Windows@System@@$AA
	callvirt	?get@Items@ToolStrip@Forms@Windows@System@@$$FU$AAMP$AAVToolStripItemCollection@345@XZ
	ldloc.2				; $S45$
	call		?AddRange@ToolStripItemCollection@Forms@Windows@System@@$$FQ$AAMXP$01AP$AAVToolStripItem@234@@Z
; Line 412
	ldarg.0				; this$
	ldfld		?contextMenuStripBook@Form1@WordDic@@3P$AAVContextMenuStrip@Forms@Windows@System@@$AA
	ldstr		$StringLiteralTok$??_C@_1CK@OALIDBIE@?$AAc?$AAo?$AAn?$AAt?$AAe?$AAx?$AAt?$AAM?$AAe?$AAn?$AAu?$AAS?$AAt?$AAr?$AAi?$AAp?$AAN?$AAo?$AAt?$AAe?$AA?$AA@
	call		?set@Name@Control@Forms@Windows@System@@$$FQ$AAMXP$AAVString@5@@Z
; Line 413
	ldloc.0				; resources$
	ldarg.0				; this$
	ldfld		?contextMenuStripBook@Form1@WordDic@@3P$AAVContextMenuStrip@Forms@Windows@System@@$AA
	ldstr		$StringLiteralTok$??_C@_1CK@HDEKFEGB@?$AAc?$AAo?$AAn?$AAt?$AAe?$AAx?$AAt?$AAM?$AAe?$AAn?$AAu?$AAS?$AAt?$AAr?$AAi?$AAp?$AAB?$AAo?$AAo?$AAk?$AA?$AA@
	call		?ApplyResources@ComponentResourceManager@ComponentModel@System@@$$FQ$AAMXP$AAVObject@3@P$AAVString@3@@Z
; Line 417
	ldarg.0				; this$
	ldfld		?toolStripMenuItemBookCopy@Form1@WordDic@@3P$AAVToolStripMenuItem@Forms@Windows@System@@$AA
	ldstr		$StringLiteralTok$??_C@_1DE@IKFPNDGH@?$AAt?$AAo?$AAo?$AAl?$AAS?$AAt?$AAr?$AAi?$AAp?$AAM?$AAe?$AAn?$AAu?$AAI?$AAt?$AAe?$AAm?$AAB?$AAo?$AAo?$AAk?$AAC?$AAo?$AAp?$AAy?$AA?$AA@
	call		?set@Name@ToolStripItem@Forms@Windows@System@@$$FQ$AAMXP$AAVString@5@@Z
; Line 418
	ldloc.0				; resources$
	ldarg.0				; this$
	ldfld		?toolStripMenuItemBookCopy@Form1@WordDic@@3P$AAVToolStripMenuItem@Forms@Windows@System@@$AA
	ldstr		$StringLiteralTok$??_C@_1DE@IKFPNDGH@?$AAt?$AAo?$AAo?$AAl?$AAS?$AAt?$AAr?$AAi?$AAp?$AAM?$AAe?$AAn?$AAu?$AAI?$AAt?$AAe?$AAm?$AAB?$AAo?$AAo?$AAk?$AAC?$AAo?$AAp?$AAy?$AA?$AA@
	call		?ApplyResources@ComponentResourceManager@ComponentModel@System@@$$FQ$AAMXP$AAVObject@3@P$AAVString@3@@Z
; Line 419
	ldarg.0				; this$
	ldfld		?toolStripMenuItemBookCopy@Form1@WordDic@@3P$AAVToolStripMenuItem@Forms@Windows@System@@$AA
	ldarg.0				; this$
	ldftn		?toolStripMenuItemBookCopy_Click@Form1@WordDic@@$$FA$AAMXP$AAVObject@System@@P$AAVEventArgs@4@@Z
	newobj		??0EventHandler@System@@$$FQ$AAM@P$AAVObject@1@VIntPtr@1@@Z
	call		?add@Click@ToolStripItem@Forms@Windows@System@@$$FQ$AAMXP$AAVEventHandler@5@@Z
; Line 424
	ldc.i.2		2		; i32 0x2
	newarr		$TypeTok$11696350$
	stloc.s		4		; $S46$
	ldloc.s		4		; $S46$
	ldc.i.0		0		; i32 0x0
	ldarg.0				; this$
	ldfld		?ToolStripMenuItemWebSchSite1@Form1@WordDic@@3P$AAVToolStripMenuItem@Forms@Windows@System@@$AA
	stelem.ref	
	ldloc.s		4		; $S46$
	ldc.i.1		1		; i32 0x1
	ldarg.0				; this$
	ldfld		?ToolStripMenuItemWebSchSite2@Form1@WordDic@@3P$AAVToolStripMenuItem@Forms@Windows@System@@$AA
	stelem.ref	
	ldarg.0				; this$
	ldfld		?toolStripMenuItemWebSearch@Form1@WordDic@@3P$AAVToolStripMenuItem@Forms@Windows@System@@$AA
	call		?get@DropDownItems@ToolStripDropDownItem@Forms@Windows@System@@$$FQ$AAMP$AAVToolStripItemCollection@345@XZ
	ldloc.s		4		; $S46$
	call		?AddRange@ToolStripItemCollection@Forms@Windows@System@@$$FQ$AAMXP$01AP$AAVToolStripItem@234@@Z
; Line 425
	ldarg.0				; this$
	ldfld		?toolStripMenuItemWebSearch@Form1@WordDic@@3P$AAVToolStripMenuItem@Forms@Windows@System@@$AA
	ldstr		$StringLiteralTok$??_C@_1DG@IKFFOFPI@?$AAt?$AAo?$AAo?$AAl?$AAS?$AAt?$AAr?$AAi?$AAp?$AAM?$AAe?$AAn?$AAu?$AAI?$AAt?$AAe?$AAm?$AAW?$AAe?$AAb?$AAS?$AAe?$AAa?$AAr?$AAc?$AAh?$AA?$AA@
	call		?set@Name@ToolStripItem@Forms@Windows@System@@$$FQ$AAMXP$AAVString@5@@Z
; Line 426
	ldloc.0				; resources$
	ldarg.0				; this$
	ldfld		?toolStripMenuItemWebSearch@Form1@WordDic@@3P$AAVToolStripMenuItem@Forms@Windows@System@@$AA
	ldstr		$StringLiteralTok$??_C@_1DG@IKFFOFPI@?$AAt?$AAo?$AAo?$AAl?$AAS?$AAt?$AAr?$AAi?$AAp?$AAM?$AAe?$AAn?$AAu?$AAI?$AAt?$AAe?$AAm?$AAW?$AAe?$AAb?$AAS?$AAe?$AAa?$AAr?$AAc?$AAh?$AA?$AA@
	call		?ApplyResources@ComponentResourceManager@ComponentModel@System@@$$FQ$AAMXP$AAVObject@3@P$AAVString@3@@Z
; Line 430
	ldarg.0				; this$
	ldfld		?ToolStripMenuItemWebSchSite1@Form1@WordDic@@3P$AAVToolStripMenuItem@Forms@Windows@System@@$AA
	ldstr		$StringLiteralTok$??_C@_1DK@JKDMICPD@?$AAT?$AAo?$AAo?$AAl?$AAS?$AAt?$AAr?$AAi?$AAp?$AAM?$AAe?$AAn?$AAu?$AAI?$AAt?$AAe?$AAm?$AAW?$AAe?$AAb?$AAS?$AAc?$AAh?$AAS?$AAi?$AAt?$AAe?$AA1?$AA?$AA@
	call		?set@Name@ToolStripItem@Forms@Windows@System@@$$FQ$AAMXP$AAVString@5@@Z
; Line 431
	ldloc.0				; resources$
	ldarg.0				; this$
	ldfld		?ToolStripMenuItemWebSchSite1@Form1@WordDic@@3P$AAVToolStripMenuItem@Forms@Windows@System@@$AA
	ldstr		$StringLiteralTok$??_C@_1DK@JKDMICPD@?$AAT?$AAo?$AAo?$AAl?$AAS?$AAt?$AAr?$AAi?$AAp?$AAM?$AAe?$AAn?$AAu?$AAI?$AAt?$AAe?$AAm?$AAW?$AAe?$AAb?$AAS?$AAc?$AAh?$AAS?$AAi?$AAt?$AAe?$AA1?$AA?$AA@
	call		?ApplyResources@ComponentResourceManager@ComponentModel@System@@$$FQ$AAMXP$AAVObject@3@P$AAVString@3@@Z
; Line 432
	ldarg.0				; this$
	ldfld		?ToolStripMenuItemWebSchSite1@Form1@WordDic@@3P$AAVToolStripMenuItem@Forms@Windows@System@@$AA
	ldarg.0				; this$
	ldftn		?ToolStripMenuItemWebSchSite1_Click@Form1@WordDic@@$$FA$AAMXP$AAVObject@System@@P$AAVEventArgs@4@@Z
	newobj		??0EventHandler@System@@$$FQ$AAM@P$AAVObject@1@VIntPtr@1@@Z
	call		?add@Click@ToolStripItem@Forms@Windows@System@@$$FQ$AAMXP$AAVEventHandler@5@@Z
; Line 436
	ldarg.0				; this$
	ldfld		?ToolStripMenuItemWebSchSite2@Form1@WordDic@@3P$AAVToolStripMenuItem@Forms@Windows@System@@$AA
	ldstr		$StringLiteralTok$??_C@_1DK@IIIJCNBN@?$AAT?$AAo?$AAo?$AAl?$AAS?$AAt?$AAr?$AAi?$AAp?$AAM?$AAe?$AAn?$AAu?$AAI?$AAt?$AAe?$AAm?$AAW?$AAe?$AAb?$AAS?$AAc?$AAh?$AAS?$AAi?$AAt?$AAe?$AA2?$AA?$AA@
	call		?set@Name@ToolStripItem@Forms@Windows@System@@$$FQ$AAMXP$AAVString@5@@Z
; Line 437
	ldloc.0				; resources$
	ldarg.0				; this$
	ldfld		?ToolStripMenuItemWebSchSite2@Form1@WordDic@@3P$AAVToolStripMenuItem@Forms@Windows@System@@$AA
	ldstr		$StringLiteralTok$??_C@_1DK@IIIJCNBN@?$AAT?$AAo?$AAo?$AAl?$AAS?$AAt?$AAr?$AAi?$AAp?$AAM?$AAe?$AAn?$AAu?$AAI?$AAt?$AAe?$AAm?$AAW?$AAe?$AAb?$AAS?$AAc?$AAh?$AAS?$AAi?$AAt?$AAe?$AA2?$AA?$AA@
	call		?ApplyResources@ComponentResourceManager@ComponentModel@System@@$$FQ$AAMXP$AAVObject@3@P$AAVString@3@@Z
; Line 438
	ldarg.0				; this$
	ldfld		?ToolStripMenuItemWebSchSite2@Form1@WordDic@@3P$AAVToolStripMenuItem@Forms@Windows@System@@$AA
	ldarg.0				; this$
	ldftn		?ToolStripMenuItemWebSchSite2_Click@Form1@WordDic@@$$FA$AAMXP$AAVObject@System@@P$AAVEventArgs@4@@Z
	newobj		??0EventHandler@System@@$$FQ$AAM@P$AAVObject@1@VIntPtr@1@@Z
	call		?add@Click@ToolStripItem@Forms@Windows@System@@$$FQ$AAMXP$AAVEventHandler@5@@Z
; Line 442
	ldc.i.1		1		; i32 0x1
	newarr		$TypeTok$11696350$
	stloc.s		6		; $S47$
	ldloc.s		6		; $S47$
	ldc.i.0		0		; i32 0x0
	ldarg.0				; this$
	ldfld		?ToolStripMenuItemWebEncycro2@Form1@WordDic@@3P$AAVToolStripMenuItem@Forms@Windows@System@@$AA
	stelem.ref	
	ldarg.0				; this$
	ldfld		?ToolStripMenuItemWebEncyclopedia@Form1@WordDic@@3P$AAVToolStripMenuItem@Forms@Windows@System@@$AA
	call		?get@DropDownItems@ToolStripDropDownItem@Forms@Windows@System@@$$FQ$AAMP$AAVToolStripItemCollection@345@XZ
	ldloc.s		6		; $S47$
	call		?AddRange@ToolStripItemCollection@Forms@Windows@System@@$$FQ$AAMXP$01AP$AAVToolStripItem@234@@Z
; Line 443
	ldarg.0				; this$
	ldfld		?ToolStripMenuItemWebEncyclopedia@Form1@WordDic@@3P$AAVToolStripMenuItem@Forms@Windows@System@@$AA
	ldstr		$StringLiteralTok$??_C@_1EC@NFFNMALE@?$AAT?$AAo?$AAo?$AAl?$AAS?$AAt?$AAr?$AAi?$AAp?$AAM?$AAe?$AAn?$AAu?$AAI?$AAt?$AAe?$AAm?$AAW?$AAe?$AAb?$AAE?$AAn?$AAc?$AAy?$AAc?$AAl?$AAo?$AAp?$AAe?$AAd?$AAi?$AAa@
	call		?set@Name@ToolStripItem@Forms@Windows@System@@$$FQ$AAMXP$AAVString@5@@Z
; Line 444
	ldloc.0				; resources$
	ldarg.0				; this$
	ldfld		?ToolStripMenuItemWebEncyclopedia@Form1@WordDic@@3P$AAVToolStripMenuItem@Forms@Windows@System@@$AA
	ldstr		$StringLiteralTok$??_C@_1EC@NFFNMALE@?$AAT?$AAo?$AAo?$AAl?$AAS?$AAt?$AAr?$AAi?$AAp?$AAM?$AAe?$AAn?$AAu?$AAI?$AAt?$AAe?$AAm?$AAW?$AAe?$AAb?$AAE?$AAn?$AAc?$AAy?$AAc?$AAl?$AAo?$AAp?$AAe?$AAd?$AAi?$AAa@
	call		?ApplyResources@ComponentResourceManager@ComponentModel@System@@$$FQ$AAMXP$AAVObject@3@P$AAVString@3@@Z
; Line 448
	ldarg.0				; this$
	ldfld		?ToolStripMenuItemWebEncycro2@Form1@WordDic@@3P$AAVToolStripMenuItem@Forms@Windows@System@@$AA
	ldstr		$StringLiteralTok$??_C@_1DK@GMPEDNIF@?$AAT?$AAo?$AAo?$AAl?$AAS?$AAt?$AAr?$AAi?$AAp?$AAM?$AAe?$AAn?$AAu?$AAI?$AAt?$AAe?$AAm?$AAW?$AAe?$AAb?$AAE?$AAn?$AAc?$AAy?$AAc?$AAr?$AAo?$AA2?$AA?$AA@
	call		?set@Name@ToolStripItem@Forms@Windows@System@@$$FQ$AAMXP$AAVString@5@@Z
; Line 449
	ldloc.0				; resources$
	ldarg.0				; this$
	ldfld		?ToolStripMenuItemWebEncycro2@Form1@WordDic@@3P$AAVToolStripMenuItem@Forms@Windows@System@@$AA
	ldstr		$StringLiteralTok$??_C@_1DK@GMPEDNIF@?$AAT?$AAo?$AAo?$AAl?$AAS?$AAt?$AAr?$AAi?$AAp?$AAM?$AAe?$AAn?$AAu?$AAI?$AAt?$AAe?$AAm?$AAW?$AAe?$AAb?$AAE?$AAn?$AAc?$AAy?$AAc?$AAr?$AAo?$AA2?$AA?$AA@
	call		?ApplyResources@ComponentResourceManager@ComponentModel@System@@$$FQ$AAMXP$AAVObject@3@P$AAVString@3@@Z
; Line 450
	ldarg.0				; this$
	ldfld		?ToolStripMenuItemWebEncycro2@Form1@WordDic@@3P$AAVToolStripMenuItem@Forms@Windows@System@@$AA
	ldarg.0				; this$
	ldftn		?ToolStripMenuItemWebEncycro2_Click@Form1@WordDic@@$$FA$AAMXP$AAVObject@System@@P$AAVEventArgs@4@@Z
	newobj		??0EventHandler@System@@$$FQ$AAM@P$AAVObject@1@VIntPtr@1@@Z
	call		?add@Click@ToolStripItem@Forms@Windows@System@@$$FQ$AAMXP$AAVEventHandler@5@@Z
; Line 454
	ldc.i.1		1		; i32 0x1
	newarr		$TypeTok$11696350$
	stloc.s		5		; $S48$
	ldloc.s		5		; $S48$
	ldc.i.0		0		; i32 0x0
	ldarg.0				; this$
	ldfld		?toolStripStatusLabelSchWordCnt@Form1@WordDic@@3P$AAVToolStripStatusLabel@Forms@Windows@System@@$AA
	stelem.ref	
	ldarg.0				; this$
	ldfld		?statusStripMain@Form1@WordDic@@3P$AAVStatusStrip@Forms@Windows@System@@$AA
	callvirt	?get@Items@ToolStrip@Forms@Windows@System@@$$FU$AAMP$AAVToolStripItemCollection@345@XZ
	ldloc.s		5		; $S48$
	call		?AddRange@ToolStripItemCollection@Forms@Windows@System@@$$FQ$AAMXP$01AP$AAVToolStripItem@234@@Z
; Line 455
	ldloc.0				; resources$
	ldarg.0				; this$
	ldfld		?statusStripMain@Form1@WordDic@@3P$AAVStatusStrip@Forms@Windows@System@@$AA
	ldstr		$StringLiteralTok$??_C@_1CA@GMOFNBJM@?$AAs?$AAt?$AAa?$AAt?$AAu?$AAs?$AAS?$AAt?$AAr?$AAi?$AAp?$AAM?$AAa?$AAi?$AAn?$AA?$AA@
	call		?ApplyResources@ComponentResourceManager@ComponentModel@System@@$$FQ$AAMXP$AAVObject@3@P$AAVString@3@@Z
; Line 456
	ldarg.0				; this$
	ldfld		?statusStripMain@Form1@WordDic@@3P$AAVStatusStrip@Forms@Windows@System@@$AA
	ldstr		$StringLiteralTok$??_C@_1CA@GMOFNBJM@?$AAs?$AAt?$AAa?$AAt?$AAu?$AAs?$AAS?$AAt?$AAr?$AAi?$AAp?$AAM?$AAa?$AAi?$AAn?$AA?$AA@
	call		?set@Name@Control@Forms@Windows@System@@$$FQ$AAMXP$AAVString@5@@Z
; Line 460
	ldarg.0				; this$
	ldfld		?toolStripStatusLabelSchWordCnt@Form1@WordDic@@3P$AAVToolStripStatusLabel@Forms@Windows@System@@$AA
	ldstr		$StringLiteralTok$??_C@_1DO@EOMNBHGO@?$AAt?$AAo?$AAo?$AAl?$AAS?$AAt?$AAr?$AAi?$AAp?$AAS?$AAt?$AAa?$AAt?$AAu?$AAs?$AAL?$AAa?$AAb?$AAe?$AAl?$AAS?$AAc?$AAh?$AAW?$AAo?$AAr?$AAd?$AAC?$AAn?$AAt?$AA?$AA@
	call		?set@Name@ToolStripItem@Forms@Windows@System@@$$FQ$AAMXP$AAVString@5@@Z
; Line 461
	ldloc.0				; resources$
	ldarg.0				; this$
	ldfld		?toolStripStatusLabelSchWordCnt@Form1@WordDic@@3P$AAVToolStripStatusLabel@Forms@Windows@System@@$AA
	ldstr		$StringLiteralTok$??_C@_1DO@EOMNBHGO@?$AAt?$AAo?$AAo?$AAl?$AAS?$AAt?$AAr?$AAi?$AAp?$AAS?$AAt?$AAa?$AAt?$AAu?$AAs?$AAL?$AAa?$AAb?$AAe?$AAl?$AAS?$AAc?$AAh?$AAW?$AAo?$AAr?$AAd?$AAC?$AAn?$AAt?$AA?$AA@
	call		?ApplyResources@ComponentResourceManager@ComponentModel@System@@$$FQ$AAMXP$AAVObject@3@P$AAVString@3@@Z
; Line 466
	ldc.i.2		2		; i32 0x2
	newarr		$TypeTok$11696350$
	stloc.3				; $S49$
	ldloc.3				; $S49$
	ldc.i.0		0		; i32 0x0
	ldarg.0				; this$
	ldfld		?ToolStripMenuItemHelpMan@Form1@WordDic@@3P$AAVToolStripMenuItem@Forms@Windows@System@@$AA
	stelem.ref	
	ldloc.3				; $S49$
	ldc.i.1		1		; i32 0x1
	ldarg.0				; this$
	ldfld		?ToolStripMenuItemHelpVer@Form1@WordDic@@3P$AAVToolStripMenuItem@Forms@Windows@System@@$AA
	stelem.ref	
	ldarg.0				; this$
	ldfld		?contextMenuHelp@Form1@WordDic@@3P$AAVContextMenuStrip@Forms@Windows@System@@$AA
	callvirt	?get@Items@ToolStrip@Forms@Windows@System@@$$FU$AAMP$AAVToolStripItemCollection@345@XZ
	ldloc.3				; $S49$
	call		?AddRange@ToolStripItemCollection@Forms@Windows@System@@$$FQ$AAMXP$01AP$AAVToolStripItem@234@@Z
; Line 467
	ldarg.0				; this$
	ldfld		?contextMenuHelp@Form1@WordDic@@3P$AAVContextMenuStrip@Forms@Windows@System@@$AA
	ldstr		$StringLiteralTok$??_C@_1CA@JPPHDCGP@?$AAc?$AAo?$AAn?$AAt?$AAe?$AAx?$AAt?$AAM?$AAe?$AAn?$AAu?$AAH?$AAe?$AAl?$AAp?$AA?$AA@
	call		?set@Name@Control@Forms@Windows@System@@$$FQ$AAMXP$AAVString@5@@Z
; Line 468
	ldloc.0				; resources$
	ldarg.0				; this$
	ldfld		?contextMenuHelp@Form1@WordDic@@3P$AAVContextMenuStrip@Forms@Windows@System@@$AA
	ldstr		$StringLiteralTok$??_C@_1CA@JPPHDCGP@?$AAc?$AAo?$AAn?$AAt?$AAe?$AAx?$AAt?$AAM?$AAe?$AAn?$AAu?$AAH?$AAe?$AAl?$AAp?$AA?$AA@
	call		?ApplyResources@ComponentResourceManager@ComponentModel@System@@$$FQ$AAMXP$AAVObject@3@P$AAVString@3@@Z
; Line 472
	ldarg.0				; this$
	ldfld		?ToolStripMenuItemHelpMan@Form1@WordDic@@3P$AAVToolStripMenuItem@Forms@Windows@System@@$AA
	ldstr		$StringLiteralTok$??_C@_1DC@BMGMOINC@?$AAT?$AAo?$AAo?$AAl?$AAS?$AAt?$AAr?$AAi?$AAp?$AAM?$AAe?$AAn?$AAu?$AAI?$AAt?$AAe?$AAm?$AAH?$AAe?$AAl?$AAp?$AAM?$AAa?$AAn?$AA?$AA@
	call		?set@Name@ToolStripItem@Forms@Windows@System@@$$FQ$AAMXP$AAVString@5@@Z
; Line 473
	ldloc.0				; resources$
	ldarg.0				; this$
	ldfld		?ToolStripMenuItemHelpMan@Form1@WordDic@@3P$AAVToolStripMenuItem@Forms@Windows@System@@$AA
	ldstr		$StringLiteralTok$??_C@_1DC@BMGMOINC@?$AAT?$AAo?$AAo?$AAl?$AAS?$AAt?$AAr?$AAi?$AAp?$AAM?$AAe?$AAn?$AAu?$AAI?$AAt?$AAe?$AAm?$AAH?$AAe?$AAl?$AAp?$AAM?$AAa?$AAn?$AA?$AA@
	call		?ApplyResources@ComponentResourceManager@ComponentModel@System@@$$FQ$AAMXP$AAVObject@3@P$AAVString@3@@Z
; Line 474
	ldarg.0				; this$
	ldfld		?ToolStripMenuItemHelpMan@Form1@WordDic@@3P$AAVToolStripMenuItem@Forms@Windows@System@@$AA
	ldarg.0				; this$
	ldftn		?ToolStripMenuItemHelpMan_Click@Form1@WordDic@@$$FA$AAMXP$AAVObject@System@@P$AAVEventArgs@4@@Z
	newobj		??0EventHandler@System@@$$FQ$AAM@P$AAVObject@1@VIntPtr@1@@Z
	call		?add@Click@ToolStripItem@Forms@Windows@System@@$$FQ$AAMXP$AAVEventHandler@5@@Z
; Line 478
	ldarg.0				; this$
	ldfld		?ToolStripMenuItemHelpVer@Form1@WordDic@@3P$AAVToolStripMenuItem@Forms@Windows@System@@$AA
	ldstr		$StringLiteralTok$??_C@_1DC@LMODGPJO@?$AAT?$AAo?$AAo?$AAl?$AAS?$AAt?$AAr?$AAi?$AAp?$AAM?$AAe?$AAn?$AAu?$AAI?$AAt?$AAe?$AAm?$AAH?$AAe?$AAl?$AAp?$AAV?$AAe?$AAr?$AA?$AA@
	call		?set@Name@ToolStripItem@Forms@Windows@System@@$$FQ$AAMXP$AAVString@5@@Z
; Line 479
	ldloc.0				; resources$
	ldarg.0				; this$
	ldfld		?ToolStripMenuItemHelpVer@Form1@WordDic@@3P$AAVToolStripMenuItem@Forms@Windows@System@@$AA
	ldstr		$StringLiteralTok$??_C@_1DC@LMODGPJO@?$AAT?$AAo?$AAo?$AAl?$AAS?$AAt?$AAr?$AAi?$AAp?$AAM?$AAe?$AAn?$AAu?$AAI?$AAt?$AAe?$AAm?$AAH?$AAe?$AAl?$AAp?$AAV?$AAe?$AAr?$AA?$AA@
	call		?ApplyResources@ComponentResourceManager@ComponentModel@System@@$$FQ$AAMXP$AAVObject@3@P$AAVString@3@@Z
; Line 480
	ldarg.0				; this$
	ldfld		?ToolStripMenuItemHelpVer@Form1@WordDic@@3P$AAVToolStripMenuItem@Forms@Windows@System@@$AA
	ldarg.0				; this$
	ldftn		?ToolStripMenuItemHelpVer_Click@Form1@WordDic@@$$FA$AAMXP$AAVObject@System@@P$AAVEventArgs@4@@Z
	newobj		??0EventHandler@System@@$$FQ$AAM@P$AAVObject@1@VIntPtr@1@@Z
	call		?add@Click@ToolStripItem@Forms@Windows@System@@$$FQ$AAMXP$AAVEventHandler@5@@Z
; Line 484
	ldloc.0				; resources$
	ldarg.0				; this$
	ldstr		$StringLiteralTok$??_C@_1M@DFMABGBL@?$AA$?$AAt?$AAh?$AAi?$AAs?$AA?$AA@
	call		?ApplyResources@ComponentResourceManager@ComponentModel@System@@$$FQ$AAMXP$AAVObject@3@P$AAVString@3@@Z
; Line 485
	ldarg.0				; this$
	ldc.i.1		1		; i32 0x1
	call		?set@AutoScaleMode@ContainerControl@Forms@Windows@System@@$$FQ$AAMXW41345@@Z
; Line 486
	ldarg.0				; this$
	call		?get@Controls@Control@Forms@Windows@System@@$$FQ$AAMP$AAVControlCollection@2345@XZ
	ldarg.0				; this$
	ldfld		?splitContainer1@Form1@WordDic@@3P$AAVSplitContainer@Forms@Windows@System@@$AA
	callvirt	?Add@ControlCollection@Control@Forms@Windows@System@@$$FU$AAMXP$AAV2345@@Z
; Line 487
	ldarg.0				; this$
	call		?get@Controls@Control@Forms@Windows@System@@$$FQ$AAMP$AAVControlCollection@2345@XZ
	ldarg.0				; this$
	ldfld		?toolStripMain@Form1@WordDic@@3P$AAVToolStrip@Forms@Windows@System@@$AA
	callvirt	?Add@ControlCollection@Control@Forms@Windows@System@@$$FU$AAMXP$AAV2345@@Z
; Line 488
	ldarg.0				; this$
	call		?get@Controls@Control@Forms@Windows@System@@$$FQ$AAMP$AAVControlCollection@2345@XZ
	ldarg.0				; this$
	ldfld		?statusStripMain@Form1@WordDic@@3P$AAVStatusStrip@Forms@Windows@System@@$AA
	callvirt	?Add@ControlCollection@Control@Forms@Windows@System@@$$FU$AAMXP$AAV2345@@Z
; Line 489
	ldarg.0				; this$
	ldstr		$StringLiteralTok$??_C@_1M@GJBAGBNA@?$AAF?$AAo?$AAr?$AAm?$AA1?$AA?$AA@
	call		?set@Name@Control@Forms@Windows@System@@$$FQ$AAMXP$AAVString@5@@Z
; Line 490
	ldarg.0				; this$
	ldfld		?toolStripMain@Form1@WordDic@@3P$AAVToolStrip@Forms@Windows@System@@$AA
	ldc.i.0		0		; u8 0x0
	call		?ResumeLayout@Control@Forms@Windows@System@@$$FQ$AAMX_N@Z
; Line 491
	ldarg.0				; this$
	ldfld		?toolStripMain@Form1@WordDic@@3P$AAVToolStrip@Forms@Windows@System@@$AA
	call		?PerformLayout@Control@Forms@Windows@System@@$$FQ$AAMXXZ
; Line 492
	ldarg.0				; this$
	ldfld		?splitContainer1@Form1@WordDic@@3P$AAVSplitContainer@Forms@Windows@System@@$AA
	call		?get@Panel1@SplitContainer@Forms@Windows@System@@$$FQ$AAMP$AAVSplitterPanel@345@XZ
	ldc.i.0		0		; u8 0x0
	call		?ResumeLayout@Control@Forms@Windows@System@@$$FQ$AAMX_N@Z
; Line 493
	ldarg.0				; this$
	ldfld		?splitContainer1@Form1@WordDic@@3P$AAVSplitContainer@Forms@Windows@System@@$AA
	call		?get@Panel2@SplitContainer@Forms@Windows@System@@$$FQ$AAMP$AAVSplitterPanel@345@XZ
	ldc.i.0		0		; u8 0x0
	call		?ResumeLayout@Control@Forms@Windows@System@@$$FQ$AAMX_N@Z
; Line 494
	ldarg.0				; this$
	ldfld		?splitContainer1@Form1@WordDic@@3P$AAVSplitContainer@Forms@Windows@System@@$AA
	callvirt	?EndInit@ISupportInitialize@ComponentModel@System@@$$FU$AAMXXZ
; Line 495
	ldarg.0				; this$
	ldfld		?splitContainer1@Form1@WordDic@@3P$AAVSplitContainer@Forms@Windows@System@@$AA
	ldc.i.0		0		; u8 0x0
	call		?ResumeLayout@Control@Forms@Windows@System@@$$FQ$AAMX_N@Z
; Line 496
	ldarg.0				; this$
	ldfld		?splitContainerSch@Form1@WordDic@@3P$AAVSplitContainer@Forms@Windows@System@@$AA
	call		?get@Panel1@SplitContainer@Forms@Windows@System@@$$FQ$AAMP$AAVSplitterPanel@345@XZ
	ldc.i.0		0		; u8 0x0
	call		?ResumeLayout@Control@Forms@Windows@System@@$$FQ$AAMX_N@Z
; Line 497
	ldarg.0				; this$
	ldfld		?splitContainerSch@Form1@WordDic@@3P$AAVSplitContainer@Forms@Windows@System@@$AA
	call		?get@Panel2@SplitContainer@Forms@Windows@System@@$$FQ$AAMP$AAVSplitterPanel@345@XZ
	ldc.i.0		0		; u8 0x0
	call		?ResumeLayout@Control@Forms@Windows@System@@$$FQ$AAMX_N@Z
; Line 498
	ldarg.0				; this$
	ldfld		?splitContainerSch@Form1@WordDic@@3P$AAVSplitContainer@Forms@Windows@System@@$AA
	callvirt	?EndInit@ISupportInitialize@ComponentModel@System@@$$FU$AAMXXZ
; Line 499
	ldarg.0				; this$
	ldfld		?splitContainerSch@Form1@WordDic@@3P$AAVSplitContainer@Forms@Windows@System@@$AA
	ldc.i.0		0		; u8 0x0
	call		?ResumeLayout@Control@Forms@Windows@System@@$$FQ$AAMX_N@Z
; Line 500
	ldarg.0				; this$
	ldfld		?tabCtrlSearch@Form1@WordDic@@3P$AAVTabControl@Forms@Windows@System@@$AA
	ldc.i.0		0		; u8 0x0
	call		?ResumeLayout@Control@Forms@Windows@System@@$$FQ$AAMX_N@Z
; Line 501
	ldarg.0				; this$
	ldfld		?tabPageSchWord@Form1@WordDic@@3P$AAVTabPage@Forms@Windows@System@@$AA
	ldc.i.0		0		; u8 0x0
	call		?ResumeLayout@Control@Forms@Windows@System@@$$FQ$AAMX_N@Z
; Line 502
	ldarg.0				; this$
	ldfld		?tabPageSchWord@Form1@WordDic@@3P$AAVTabPage@Forms@Windows@System@@$AA
	call		?PerformLayout@Control@Forms@Windows@System@@$$FQ$AAMXXZ
; Line 503
	ldarg.0				; this$
	ldfld		?flowLayoutPanelSchWordSel@Form1@WordDic@@3P$AAVFlowLayoutPanel@Forms@Windows@System@@$AA
	ldc.i.0		0		; u8 0x0
	call		?ResumeLayout@Control@Forms@Windows@System@@$$FQ$AAMX_N@Z
; Line 504
	ldarg.0				; this$
	ldfld		?flowLayoutPanelSchWordSel@Form1@WordDic@@3P$AAVFlowLayoutPanel@Forms@Windows@System@@$AA
	call		?PerformLayout@Control@Forms@Windows@System@@$$FQ$AAMXXZ
; Line 505
	ldarg.0				; this$
	ldfld		?panelSchWord@Form1@WordDic@@3P$AAVPanel@Forms@Windows@System@@$AA
	ldc.i.0		0		; u8 0x0
	call		?ResumeLayout@Control@Forms@Windows@System@@$$FQ$AAMX_N@Z
; Line 506
	ldarg.0				; this$
	ldfld		?panelSchWord@Form1@WordDic@@3P$AAVPanel@Forms@Windows@System@@$AA
	call		?PerformLayout@Control@Forms@Windows@System@@$$FQ$AAMXXZ
; Line 507
	ldarg.0				; this$
	ldfld		?tabPageSchGroup@Form1@WordDic@@3P$AAVTabPage@Forms@Windows@System@@$AA
	ldc.i.0		0		; u8 0x0
	call		?ResumeLayout@Control@Forms@Windows@System@@$$FQ$AAMX_N@Z
; Line 508
	ldarg.0				; this$
	ldfld		?flowLayoutPanelGroupLang@Form1@WordDic@@3P$AAVFlowLayoutPanel@Forms@Windows@System@@$AA
	ldc.i.0		0		; u8 0x0
	call		?ResumeLayout@Control@Forms@Windows@System@@$$FQ$AAMX_N@Z
; Line 509
	ldarg.0				; this$
	ldfld		?flowLayoutPanelGroupLang@Form1@WordDic@@3P$AAVFlowLayoutPanel@Forms@Windows@System@@$AA
	call		?PerformLayout@Control@Forms@Windows@System@@$$FQ$AAMXXZ
; Line 510
	ldarg.0				; this$
	ldfld		?flowLayoutPanelWordListBtns2@Form1@WordDic@@3P$AAVFlowLayoutPanel@Forms@Windows@System@@$AA
	ldc.i.0		0		; u8 0x0
	call		?ResumeLayout@Control@Forms@Windows@System@@$$FQ$AAMX_N@Z
; Line 511
	ldarg.0				; this$
	ldfld		?contextMenuStripBook@Form1@WordDic@@3P$AAVContextMenuStrip@Forms@Windows@System@@$AA
	ldc.i.0		0		; u8 0x0
	call		?ResumeLayout@Control@Forms@Windows@System@@$$FQ$AAMX_N@Z
; Line 512
	ldarg.0				; this$
	ldfld		?statusStripMain@Form1@WordDic@@3P$AAVStatusStrip@Forms@Windows@System@@$AA
	ldc.i.0		0		; u8 0x0
	call		?ResumeLayout@Control@Forms@Windows@System@@$$FQ$AAMX_N@Z
; Line 513
	ldarg.0				; this$
	ldfld		?statusStripMain@Form1@WordDic@@3P$AAVStatusStrip@Forms@Windows@System@@$AA
	call		?PerformLayout@Control@Forms@Windows@System@@$$FQ$AAMXXZ
; Line 514
	ldarg.0				; this$
	ldfld		?contextMenuHelp@Form1@WordDic@@3P$AAVContextMenuStrip@Forms@Windows@System@@$AA
	ldc.i.0		0		; u8 0x0
	call		?ResumeLayout@Control@Forms@Windows@System@@$$FQ$AAMX_N@Z
; Line 515
	ldarg.0				; this$
	ldc.i.0		0		; u8 0x0
	call		?ResumeLayout@Control@Forms@Windows@System@@$$FQ$AAMX_N@Z
; Line 516
	ldarg.0				; this$
	call		?PerformLayout@Control@Forms@Windows@System@@$$FQ$AAMXXZ
; Line 518
	ret		
 .end ?InitializeComponent@Form1@WordDic@@$$FA$AAMXXZ	; WordDic::Form1::InitializeComponent
;	.proc.end.void
; Function compile flags: /Ogtp
	.text
	.comdat	any, ?<Dispose>@Form1@WordDic@@$$FM$AAMX_N@Z
.global	?<Dispose>@Form1@WordDic@@$$FM$AAMX_N@Z		; WordDic::Form1::<Dispose>
?<Dispose>@Form1@WordDic@@$$FM$AAMX_N@Z:		; WordDic::Form1::<Dispose>
;	.proc.def	D:V(I)

; Function Header:
; max stack depth = 2
; function size = 27 bytes
; local varsig tk = 0x0 
; Exception Information:
; 1 handlers, each consisting of filtered handlers

;	.formal.mptr 0,"this$" SIG: Optional C Binding Modifier(token:0x2F3F9AD).class (token:0x2F3F9B0)
;	.formal.u1 1,"disposing$" SIG: bool

;	.proc.beg
	ldarg.1				; disposing$
	brfalse.s	$LN3@
$LN13@:
	ldarg.0				; this$
	call		??1Form1@WordDic@@$$FA$AAM@XZ
$LN2@:
	leave.s		$LN12@
$LN7@:
	ldarg.0				; this$
	ldc.i.1		1		; u8 0x1
	call		?<Dispose>@Form@Forms@Windows@System@@$$FM$AAMX_N@Z
$LN9@:
	endfinally	
$LN3@:
	ldarg.0				; this$
	ldc.i.0		0		; u8 0x0
	call		?<Dispose>@Form@Forms@Windows@System@@$$FM$AAMX_N@Z
$LN12@:
	ret		
 .end ?<Dispose>@Form1@WordDic@@$$FM$AAMX_N@Z		; WordDic::Form1::<Dispose>
;	.proc.end.void
; Function compile flags: /Ogtp
	.text
	.comdat	any, ??0WDConfig@WordDic@@$$FQ$AAM@XZ
.global	??0WDConfig@WordDic@@$$FQ$AAM@XZ		; WordDic::WDConfig::WDConfig
??0WDConfig@WordDic@@$$FQ$AAM@XZ:			; WordDic::WDConfig::WDConfig
;	.proc.def	D:V()

; Function Header:
; max stack depth = 2
; function size = 23 bytes
; local varsig tk = 0x0 
; Exception Information:
; 1 handlers, each consisting of filtered handlers

;	.formal.mptr 0,"this$" SIG: Optional C Binding Modifier(token:0x2F4C069).class (token:0x2F4C06C)

;	.proc.beg
; File c:\users\amotoo\documents\myproject\worddicbt\worddic\wdconfig.h
; Line 33
	ldarg.0				; this$
	call		??0Form@Forms@Windows@System@@$$FQ$AAM@XZ
$LN4@WDConfig@2:
; Line 35
	ldarg.0				; this$
	call		?InitializeComponent@WDConfig@WordDic@@$$FA$AAMXXZ
	leave.s		$LN5@WDConfig@2
$LN6@WDConfig@2:
	ldarg.0				; this$
	ldc.i.1		1		; u8 0x1
	call		?<Dispose>@Form@Forms@Windows@System@@$$FM$AAMX_N@Z
	endfinally	
$LN5@WDConfig@2:
; Line 39
	ret		
 .end ??0WDConfig@WordDic@@$$FQ$AAM@XZ			; WordDic::WDConfig::WDConfig
;	.proc.end.void
; Function compile flags: /Ogtp
	.text
	.comdat	any, ??0WDVerDialog@WordDic@@$$FQ$AAM@XZ
.global	??0WDVerDialog@WordDic@@$$FQ$AAM@XZ		; WordDic::WDVerDialog::WDVerDialog
??0WDVerDialog@WordDic@@$$FQ$AAM@XZ:			; WordDic::WDVerDialog::WDVerDialog
;	.proc.def	D:V()

; Function Header:
; max stack depth = 2
; function size = 23 bytes
; local varsig tk = 0x0 
; Exception Information:
; 1 handlers, each consisting of filtered handlers

;	.formal.mptr 0,"this$" SIG: Optional C Binding Modifier(token:0x2F49ADD).class (token:0x2F49AE0)

;	.proc.beg
; File c:\users\amotoo\documents\myproject\worddicbt\worddic\wdverdialog.h
; Line 31
	ldarg.0				; this$
	call		??0Form@Forms@Windows@System@@$$FQ$AAM@XZ
$LN4@WDVerDialo@2:
; Line 33
	ldarg.0				; this$
	call		?InitializeComponent@WDVerDialog@WordDic@@$$FA$AAMXXZ
	leave.s		$LN5@WDVerDialo@2
$LN6@WDVerDialo@2:
	ldarg.0				; this$
	ldc.i.1		1		; u8 0x1
	call		?<Dispose>@Form@Forms@Windows@System@@$$FM$AAMX_N@Z
	endfinally	
$LN5@WDVerDialo@2:
; Line 37
	ret		
 .end ??0WDVerDialog@WordDic@@$$FQ$AAM@XZ		; WordDic::WDVerDialog::WDVerDialog
;	.proc.end.void
; Function compile flags: /Ogtp
	.text
	.comdat	any, ?<Dispose>@WDWordGrp@WordDic@@$$FU$AAMXXZ
.global	?<Dispose>@WDWordGrp@WordDic@@$$FU$AAMXXZ	; WordDic::WDWordGrp::<Dispose>
?<Dispose>@WDWordGrp@WordDic@@$$FU$AAMXXZ:		; WordDic::WDWordGrp::<Dispose>
;	.proc.def	D:V()

; Function Header:
; max stack depth = 2
; function size = 14 bytes
; local varsig tk = 0x0 
; Exception Information:
; 0 handlers, each consisting of filtered handlers

;	.formal.mptr 0,"this$" SIG: Optional C Binding Modifier(token:0x2F37FAD).class (token:0x2F37FB0)

;	.proc.beg
	ldarg.0				; this$
	ldc.i.1		1		; u8 0x1
	callvirt	?<Dispose>@WDWordGrp@WordDic@@$$FM$AAMX_N@Z
	ldarg.0				; this$
	call		?SuppressFinalize@GC@System@@$$FSMXP$AAVObject@2@@Z
	ret		
 .end ?<Dispose>@WDWordGrp@WordDic@@$$FU$AAMXXZ		; WordDic::WDWordGrp::<Dispose>
;	.proc.end.void
