; Listing generated by Microsoft (R) Optimizing Compiler Version 16.00.30319.01 

; Generated by VC++ for Common Language Runtime
.file "C:\Users\aMotoo\Documents\MyProject\WordDicBT\WordDic\WordDicDisp.cpp"
.global	__@@_PchSym_@00@UfhvihUznlgllUwlxfnvmghUnbkilqvxgUdliwwrxygUdliwwrxUivovzhvUdliwwrxwrhkOlyq@
.local	__@@_PchSym_@00@UfhvihUznlgllUwlxfnvmghUnbkilqvxgUdliwwrxygUdliwwrxUivovzhvUdliwwrxwrhkOlyq@,4
.global	?components@WDConfig@WordDic@@3P$AAVContainer@ComponentModel@System@@$AA ; WordDic::WDConfig::components
	.bss
.local	$T36622,0
.local	?components@WDConfig@WordDic@@3P$AAVContainer@ComponentModel@System@@$AA,4 ; WordDic::WDConfig::components
; Function compile flags: /Ogtp
	.text
	.comdat	any, ??1WDConfig@WordDic@@$$FA$AAM@XZ
.global	??1WDConfig@WordDic@@$$FA$AAM@XZ		; WordDic::WDConfig::~WDConfig
??1WDConfig@WordDic@@$$FA$AAM@XZ:			; WordDic::WDConfig::~WDConfig
;	.proc.def	D:V()

; Function Header:
; max stack depth = 1
; function size = 17 bytes
; local varsig tk = 0x11000001 
; Exception Information:
; 0 handlers, each consisting of filtered handlers

;	.formal.mptr 0,"this$" SIG: Optional C Binding Modifier(token:0x7370B5).class (token:0x7370B8)
;	.local.u4 0,"$T36621" SIG: class (token:0x2FB5D01)

;	.proc.beg
; File c:\users\amotoo\documents\myproject\worddicbt\worddic\wdconfig.h
; Line 47
	ldarg.0				; this$
	ldfld		?components@WDConfig@WordDic@@3P$AAVContainer@ComponentModel@System@@$AA
	stloc.0				; $T36621
	ldloc.0				; $T36621
	brfalse.s	$LN4@WDConfig
; Line 49
	ldloc.0				; $T36621
	callvirt	?<Dispose>@IDisposable@System@@$$FU$AAMXXZ
$LN4@WDConfig:
; Line 51
	ret		
 .end ??1WDConfig@WordDic@@$$FA$AAM@XZ			; WordDic::WDConfig::~WDConfig
;	.proc.end.void
.global	?RelationFileA@Form1@WordDic@@3P$AAVFIsam@FJIsam@@$AA ; WordDic::Form1::RelationFileA
.global	?TransFileA@Form1@WordDic@@3P$AAVFIsam@FJIsam@@$AA ; WordDic::Form1::TransFileA
.global	?MeanFileA@Form1@WordDic@@3P$AAVFIsam@FJIsam@@$AA ; WordDic::Form1::MeanFileA
.global	?WordFileA@Form1@WordDic@@3P$AAVFIsam@FJIsam@@$AA ; WordDic::Form1::WordFileA
.global	?ErrorCode2@WordDicException@WordDic@@3HA	; WordDic::WordDicException::ErrorCode2
.global	?ErrorCode@WordDicException@WordDic@@3HA	; WordDic::WordDicException::ErrorCode
.global	?ReadedWordList@Form1@WordDic@@3P$AAV?$List@P$AAVWDWordGrp@WordDic@@@Generic@Collections@System@@$AA ; WordDic::Form1::ReadedWordList
	.bss
.local	$T36660,0
.local	$StringLiteralTok$??_C@_1CO@GDGGFGE@SX?$IK?$JO0?$LA0?k0?$PM0?W0ni?$BM?$HN?$CCN?90k0?$KI0?i0?$PM0Lvzu?$BP0W0?$HO0W0_0?$AC?$AA?$AA@,4
.local	$StringLiteralTok$??_C@_1DE@JLDJODDO@SX?$IK?$JO?$AAI?$AAD?$AA?3?$AA?$HL?$AA0?$AA?$HN?$AA?50nQh0f0n?$JF?$KC?$JA?$CD?$IK?$JO0L?$IK?$KN0?$HP?$IP?$LM0?$IB0?$HO0?$FL0?$JD0?$AC?$AA?$AA@,4
.local	?RelationFileA@Form1@WordDic@@3P$AAVFIsam@FJIsam@@$AA,4 ; WordDic::Form1::RelationFileA
.local	$StringLiteralTok$??_C@_1DC@CLHCPBA@SX?$IK?$JO?$AAI?$AAD?$AA?3?$AA?$HL?$AA0?$AA?$HN?$AA?50nQh0f0n?$HP?$PL?$IK30L?$IK?$KN0?$HP?$IP?$LM0?$IB0?$HO0?$FL0?$JD0?$AC?$AA?$AA@,4
.local	?TransFileA@Form1@WordDic@@3P$AAVFIsam@FJIsam@@$AA,4 ; WordDic::Form1::TransFileA
.local	$StringLiteralTok$??_C@_1DC@PJFPGFAO@SX?$IK?$JO?$AAI?$AAD?$AA?3?$AA?$HL?$AA0?$AA?$HN?$AA?50nQh0f0na?$APTs0L?$IK?$KN0?$HP?$IP?$LM0?$IB0?$HO0?$FL0?$JD0?$AC?$AA?$AA@,4
.local	$StringLiteralTok$??_C@_1CM@JOBLJECL@SX?$IK?$JO?$AAI?$AAD?$AA?3?$AA?$HL?$AA0?$AA?$HN?$AA?50na?$APTs0L?$IJ?$IL0d0K0?$IK0?$HO0?$FL0?$JD0?$AC?$AA?$AA@,4
.local	?MeanFileA@Form1@WordDic@@3P$AAVFIsam@FJIsam@@$AA,4 ; WordDic::Form1::MeanFileA
.local	$StringLiteralTok$??_C@_1DC@NOHOGBMJ@SX?$IK?$JO?$AAI?$AAD?$AA?3?$AA?$HL?$AA0?$AA?$HN?$AA?50nQh0f0nSX?$IK?$JO0L?$IK?$KN0?$HP?$IP?$LM0?$IB0?$HO0?$FL0?$JD0?$AC?$AA?$AA@,4
.local	$TypeTok$110E4080$,4
.local	$StringLiteralTok$??_C@_1CM@LJDKJAOM@SX?$IK?$JO?$AAI?$AAD?$AA?3?$AA?$HL?$AA0?$AA?$HN?$AA?50nSX?$IK?$JO0L?$IJ?$IL0d0K0?$IK0?$HO0?$FL0?$JD0?$AC?$AA?$AA@,4
.local	?WordFileA@Form1@WordDic@@3P$AAVFIsam@FJIsam@@$AA,4 ; WordDic::Form1::WordFileA
.local	?ErrorCode2@WordDicException@WordDic@@3HA,4	; WordDic::WordDicException::ErrorCode2
.local	?ErrorCode@WordDicException@WordDic@@3HA,4	; WordDic::WordDicException::ErrorCode
.local	$StringLiteralTok$??_C@_1DE@HBCBCFHM@e?b?$FLX0nSX?$IK?$JO?$IIhy?30?G0?$PM0?$LPi?$BM?$HN?$CCN?90k0?$KI0?i0?$PM0Lvzu?$BP0W0?$HO0W0_0?$AC?$AA?$AA@,4
.local	?ReadedWordList@Form1@WordDic@@3P$AAV?$List@P$AAVWDWordGrp@WordDic@@@Generic@Collections@System@@$AA,4 ; WordDic::Form1::ReadedWordList
; Function compile flags: /Ogtp
	.text
	.comdat	noduplicate, ?WordGrpLoadA@Form1@WordDic@@$$FA$AAMXP$AAVWDWordGrp@2@@Z
.global	?WordGrpLoadA@Form1@WordDic@@$$FA$AAMXP$AAVWDWordGrp@2@@Z ; WordDic::Form1::WordGrpLoadA
?WordGrpLoadA@Form1@WordDic@@$$FA$AAMXP$AAVWDWordGrp@2@@Z: ; WordDic::Form1::WordGrpLoadA
;	.proc.def	D:V(P)

; Function Header:
; max stack depth = 4
; function size = 986 bytes
; local varsig tk = 0x11000002 
; Exception Information:
; 3 handlers, each consisting of filtered handlers

;	.formal.mptr 0,"this$" SIG: Optional C Binding Modifier(token:0x749271).class (token:0x749274)
;	.formal.mptr 1,"inWordGrp$" SIG: class (token:0x73BD75)
;	.local.mptr 7,"tmpWordDicException$35050" SIG: class (token:0x74161D)
;	.local.mptr 15,"exp$35049" SIG: class (token:0x2FC21ED)
;	.local.mptr 8,"tmpWordDicException$35045" SIG: class (token:0x74161D)
;	.local.mptr 2,"tmpRelation$" SIG: class (token:0x74A0AD)
;	.local.mptr 9,"tmpWordDicException$34976" SIG: class (token:0x74161D)
;	.local.mptr 3,"tmpTrans$" SIG: class (token:0x735079)
;	.local.mptr 10,"tmpWordDicException$34914" SIG: class (token:0x74161D)
;	.local.mptr 4,"tmpMean$" SIG: class (token:0x2FB7E29)
;	.local.mptr 11,"tmpWordDicException$34820" SIG: class (token:0x74161D)
;	.local.mptr 12,"tmpWordDicException$34815" SIG: class (token:0x74161D)
;	.local.mptr 5,"tmpWord$" SIG: class (token:0x7389E5)
;	.local.mptr 13,"tmpWordDicException$34620" SIG: class (token:0x74161D)
;	.local.mptr 0,"tmpRecord$" SIG: class (token:0x741A49)
;	.local.mptr 6,"tmpWordID$" SIG: szarray (token:0x749C75)
;	.local.mptr 14,"tmpWordDicException$34273" SIG: class (token:0x74161D)
;	.local.mptr 16,"exp$34272" SIG: class (token:0x2FC21ED)
;	.local.mptr 17,"$T34270" SIG: class (token:0x2FB9919)
;	.local.mptr 18,"$T34269" SIG: class (token:0x73BD75)
;	.local.mptr 1,"tmpWDWordGrp$34265" SIG: class (token:0x73BD75)
;	.local.mb16  19,"$S50$34259" SIG: genericInst (token:0x1000048) <class (token:0x2FB7C36)>

;	.proc.beg
; File c:\users\amotoo\documents\myproject\worddicbt\worddic\worddicdisp.cpp
; Line 55
$LN65@WordGrpLoa:
; Line 67
	ldarg.1				; inWordGrp$
	call		?getXMLFname@WDWordGrp@WordDic@@$$FQ$AAMP$AAVString@System@@XZ
	ldnull		0		; i32 0x0
	call		??9String@System@@$$FSM_NP$AAV01@0@Z
	brfalse.s	$LN33@WordGrpLoa
; Line 69
	leave		__tryend$?WordGrpLoadA@Form1@WordDic@@$$FA$AAMXP$AAVWDWordGrp@2@@Z$4
$LN33@WordGrpLoa:
; Line 73
	ldarg.0				; this$
	ldfld		?ReadedWordList@Form1@WordDic@@3P$AAV?$List@P$AAVWDWordGrp@WordDic@@@Generic@Collections@System@@$AA
	call		?GetEnumerator@?$List@P$AAVWDWordGrp@WordDic@@@Generic@Collections@System@@$$FQ$AAM?AVEnumerator@1234@XZ
	stloc.s		19		; $S50$34259
$LL32@WordGrpLoa:
	ldloca.s	19		; $S50$34259
	call		?MoveNext@Enumerator@?$List@P$AAVWDWordGrp@WordDic@@@Generic@Collections@System@@$$FU$CAM_NXZ
	brfalse		$LN31@WordGrpLoa
	ldloca.s	19		; $S50$34259
	call		?get@Current@Enumerator@?$List@P$AAVWDWordGrp@WordDic@@@Generic@Collections@System@@$$FU$CAMP$AAVWDWordGrp@WordDic@@XZ
	stloc.1				; tmpWDWordGrp$34265
; Line 76
	ldloc.1				; tmpWDWordGrp$34265
	call		?getWordID@WDWordGrp@WordDic@@$$FQ$AAMHXZ
	ldarg.1				; inWordGrp$
	call		?getWordID@WDWordGrp@WordDic@@$$FQ$AAMHXZ
	bne.un.s	$LN37@WordGrpLoa
	ldloc.1				; tmpWDWordGrp$34265
	call		?getSchLang@WDWordGrp@WordDic@@$$FQ$AAMHXZ
	ldarg.1				; inWordGrp$
	call		?getSchLang@WDWordGrp@WordDic@@$$FQ$AAMHXZ
	bne.un.s	$LN37@WordGrpLoa
; Line 80
	ldloc.1				; tmpWDWordGrp$34265
	call		?getXMLFname@WDWordGrp@WordDic@@$$FQ$AAMP$AAVString@System@@XZ
	ldnull		0		; i32 0x0
	call		??8String@System@@$$FSM_NP$AAV01@0@Z
	brtrue.s	$LN28@WordGrpLoa
	ldloc.1				; tmpWDWordGrp$34265
	call		?getXMLFname@WDWordGrp@WordDic@@$$FQ$AAMP$AAVString@System@@XZ
	call		?get@Length@String@System@@$$FQ$AAMHXZ
	brfalse.s	$LN28@WordGrpLoa
; Line 87
	ldarg.0				; this$
	ldfld		?ReadedWordList@Form1@WordDic@@3P$AAV?$List@P$AAVWDWordGrp@WordDic@@@Generic@Collections@System@@$AA
	ldloc.1				; tmpWDWordGrp$34265
	callvirt	?Remove@?$List@P$AAVWDWordGrp@WordDic@@@Generic@Collections@System@@$$FU$AAM_NP$AAVWDWordGrp@WordDic@@@Z
	pop		
; Line 88
	ldarg.0				; this$
	ldfld		?ReadedWordList@Form1@WordDic@@3P$AAV?$List@P$AAVWDWordGrp@WordDic@@@Generic@Collections@System@@$AA
	ldloc.1				; tmpWDWordGrp$34265
	callvirt	?Add@?$List@P$AAVWDWordGrp@WordDic@@@Generic@Collections@System@@$$FU$AAMXP$AAVWDWordGrp@WordDic@@@Z
; Line 89
	ldarg.1				; inWordGrp$
	ldloc.1				; tmpWDWordGrp$34265
	call		?getXMLFname@WDWordGrp@WordDic@@$$FQ$AAMP$AAVString@System@@XZ
	call		?setXMLFname@WDWordGrp@WordDic@@$$FQ$AAMXP$AAVString@System@@@Z
; Line 90
	leave		__tryend$?WordGrpLoadA@Form1@WordDic@@$$FA$AAMXP$AAVWDWordGrp@2@@Z$4
$LN28@WordGrpLoa:
; Line 82
	ldarg.0				; this$
	ldfld		?ReadedWordList@Form1@WordDic@@3P$AAV?$List@P$AAVWDWordGrp@WordDic@@@Generic@Collections@System@@$AA
	ldloc.1				; tmpWDWordGrp$34265
	callvirt	?Remove@?$List@P$AAVWDWordGrp@WordDic@@@Generic@Collections@System@@$$FU$AAM_NP$AAVWDWordGrp@WordDic@@@Z
	pop		
; Line 83
	ldloc.1				; tmpWDWordGrp$34265
	stloc.s		18		; $T34269
	ldloc.1				; tmpWDWordGrp$34265
	stloc.s		17		; $T34270
	ldloc.1				; tmpWDWordGrp$34265
	brfalse.s	$LN37@WordGrpLoa
	ldloc.1				; tmpWDWordGrp$34265
	callvirt	?<Dispose>@IDisposable@System@@$$FU$AAMXXZ
$LN37@WordGrpLoa:
; Line 93
	br		$LL32@WordGrpLoa
$LN31@WordGrpLoa:
	leave.s		$LN39@WordGrpLoa
__catch$?WordGrpLoadA@Form1@WordDic@@$$FA$AAMXP$AAVWDWordGrp@2@@Z$0:
; Line 95
	imp.push	
	stloc.s		16		; exp$34272
; Line 96
	ldstr		$StringLiteralTok$??_C@_1DE@HBCBCFHM@e?b?$FLX0nSX?$IK?$JO?$IIhy?30?G0?$PM0?$LPi?$BM?$HN?$CCN?90k0?$KI0?i0?$PM0Lvzu?$BP0W0?$HO0W0_0?$AC?$AA?$AA@
	ldloc.s		16		; exp$34272
	newobj		??0WordDicException@WordDic@@$$FQ$AAM@P$AAVString@System@@P$AAVException@3@@Z
	stloc.s		14		; tmpWordDicException$34273
; Line 97
	ldloc.s		14		; tmpWordDicException$34273
	ldc.i4		31303		; i32 0x7a47
	stfld		?ErrorCode@WordDicException@WordDic@@3HA
; Line 98
	ldloc.s		14		; tmpWordDicException$34273
	ldc.i.1		1		; i32 0x1
	stfld		?ErrorCode2@WordDicException@WordDic@@3HA
; Line 99
	ldloc.s		14		; tmpWordDicException$34273
	throw.u2	
$LN48@WordGrpLoa:
	leave.s		$LN39@WordGrpLoa
$LN39@WordGrpLoa:
	nop		
$LN66@WordGrpLoa:
$LN67@WordGrpLoa:
; Line 106
	ldarg.1				; inWordGrp$
	call		?getWordID@WDWordGrp@WordDic@@$$FQ$AAMHXZ
	ldnull		0		; i32 0x0
	ldc.i.0		0		; i32 0x0
	call		?Int32ToArray@FJIFuncs@FJIsam@@$$FSMP$01AEHP$01AEH@Z
	stloc.s		6		; tmpWordID$
; Line 110
	ldarg.0				; this$
	ldfld		?WordFileA@Form1@WordDic@@3P$AAVFIsam@FJIsam@@$AA
	ldloc.s		6		; tmpWordID$
	ldc.i.2		2		; i32 0x2
	call		?ReadRecord@FIsam@FJIsam@@$$FQ$AAMP$AAVDataRecord@2@P$01AEH@Z
	stloc.0				; tmpRecord$
; Line 111
	ldloc.0				; tmpRecord$
	brtrue.s	$LN25@WordGrpLoa
; Line 114
	ldstr		$StringLiteralTok$??_C@_1CM@LJDKJAOM@SX?$IK?$JO?$AAI?$AAD?$AA?3?$AA?$HL?$AA0?$AA?$HN?$AA?50nSX?$IK?$JO0L?$IJ?$IL0d0K0?$IK0?$HO0?$FL0?$JD0?$AC?$AA?$AA@
	ldarg.1				; inWordGrp$
	call		?getWordID@WDWordGrp@WordDic@@$$FQ$AAMHXZ
	box		$TypeTok$110E4080$
	call		?Format@String@System@@$$FSMP$AAV12@P$AAV12@P$AAVObject@2@@Z
	newobj		??0WordDicException@WordDic@@$$FQ$AAM@P$AAVString@System@@@Z
	stloc.s		13		; tmpWordDicException$34620
; Line 115
	ldloc.s		13		; tmpWordDicException$34620
	ldc.i4		31303		; i32 0x7a47
	stfld		?ErrorCode@WordDicException@WordDic@@3HA
; Line 116
	ldloc.s		13		; tmpWordDicException$34620
	ldc.i.2		2		; i32 0x2
	stfld		?ErrorCode2@WordDicException@WordDic@@3HA
; Line 117
	ldloc.s		13		; tmpWordDicException$34620
	throw.u2	
$LN25@WordGrpLoa:
; Line 119
	ldloc.0				; tmpRecord$
	newobj		??0WDWord@WDDatas@@$$FQ$AAM@P$AAVDataRecord@FJIsam@@@Z
	stloc.s		5		; tmpWord$
; Line 120
	ldarg.1				; inWordGrp$
	ldloc.s		5		; tmpWord$
	ldc.i.0		0		; u8 0x0
	call		?addWord@WDWordGrp@WordDic@@$$FQ$AAMXP$AAVWDWord@WDDatas@@_N@Z
$LL24@WordGrpLoa:
; Line 126
	ldloc.s		5		; tmpWord$
	callvirt	?getRecord@WDWord@WDDatas@@$$FU$AAMP$AAVDataRecord@FJIsam@@XZ
	call		?getEachKeyFlg@DataRecord@FJIsam@@$$FQ$AAMEXZ
	brfalse.s	$LN21@WordGrpLoa
	ldloc.s		5		; tmpWord$
	callvirt	?getRecord@WDWord@WDDatas@@$$FU$AAMP$AAVDataRecord@FJIsam@@XZ
	call		?getEachKeyFlg@DataRecord@FJIsam@@$$FQ$AAMEXZ
	ldc.i.3		3		; u8 0x3
	beq.s		$LN21@WordGrpLoa
; Line 131
	ldarg.0				; this$
	ldfld		?WordFileA@Form1@WordDic@@3P$AAVFIsam@FJIsam@@$AA
	ldloc.0				; tmpRecord$
	call		?NextRecord@FIsam@FJIsam@@$$FQ$AAMP$AAVDataRecord@2@P$AAV32@@Z
	stloc.0				; tmpRecord$
; Line 132
	ldloc.0				; tmpRecord$
	brtrue.s	$LN20@WordGrpLoa
; Line 135
	ldstr		$StringLiteralTok$??_C@_1DC@NOHOGBMJ@SX?$IK?$JO?$AAI?$AAD?$AA?3?$AA?$HL?$AA0?$AA?$HN?$AA?50nQh0f0nSX?$IK?$JO0L?$IK?$KN0?$HP?$IP?$LM0?$IB0?$HO0?$FL0?$JD0?$AC?$AA?$AA@
	ldarg.1				; inWordGrp$
	call		?getWordID@WDWordGrp@WordDic@@$$FQ$AAMHXZ
	box		$TypeTok$110E4080$
	call		?Format@String@System@@$$FSMP$AAV12@P$AAV12@P$AAVObject@2@@Z
	newobj		??0WordDicException@WordDic@@$$FQ$AAM@P$AAVString@System@@@Z
	stloc.s		12		; tmpWordDicException$34815
; Line 136
	ldloc.s		12		; tmpWordDicException$34815
	ldc.i4		31303		; i32 0x7a47
	stfld		?ErrorCode@WordDicException@WordDic@@3HA
; Line 137
	ldloc.s		12		; tmpWordDicException$34815
	ldc.i.3		3		; i32 0x3
	stfld		?ErrorCode2@WordDicException@WordDic@@3HA
; Line 138
	ldloc.s		12		; tmpWordDicException$34815
	throw.u2	
$LN20@WordGrpLoa:
; Line 140
	ldloc.0				; tmpRecord$
	newobj		??0WDWord@WDDatas@@$$FQ$AAM@P$AAVDataRecord@FJIsam@@@Z
	stloc.s		5		; tmpWord$
; Line 141
	ldarg.1				; inWordGrp$
	ldloc.s		5		; tmpWord$
	ldc.i.0		0		; u8 0x0
	call		?addWord@WDWordGrp@WordDic@@$$FQ$AAMXP$AAVWDWord@WDDatas@@_N@Z
; Line 142
	br.s		$LL24@WordGrpLoa
$LN21@WordGrpLoa:
; Line 146
	ldarg.0				; this$
	ldfld		?MeanFileA@Form1@WordDic@@3P$AAVFIsam@FJIsam@@$AA
	ldloc.s		6		; tmpWordID$
	ldc.i.1		1		; i32 0x1
	call		?ReadRecord@FIsam@FJIsam@@$$FQ$AAMP$AAVDataRecord@2@P$01AEH@Z
	stloc.0				; tmpRecord$
; Line 147
	ldloc.0				; tmpRecord$
	brtrue.s	$LN19@WordGrpLoa
; Line 150
	ldstr		$StringLiteralTok$??_C@_1CM@JOBLJECL@SX?$IK?$JO?$AAI?$AAD?$AA?3?$AA?$HL?$AA0?$AA?$HN?$AA?50na?$APTs0L?$IJ?$IL0d0K0?$IK0?$HO0?$FL0?$JD0?$AC?$AA?$AA@
	ldarg.1				; inWordGrp$
	call		?getWordID@WDWordGrp@WordDic@@$$FQ$AAMHXZ
	box		$TypeTok$110E4080$
	call		?Format@String@System@@$$FSMP$AAV12@P$AAV12@P$AAVObject@2@@Z
	newobj		??0WordDicException@WordDic@@$$FQ$AAM@P$AAVString@System@@@Z
	stloc.s		11		; tmpWordDicException$34820
; Line 151
	ldloc.s		11		; tmpWordDicException$34820
	ldc.i4		31303		; i32 0x7a47
	stfld		?ErrorCode@WordDicException@WordDic@@3HA
; Line 152
	ldloc.s		11		; tmpWordDicException$34820
	ldc.i.4		4		; i32 0x4
	stfld		?ErrorCode2@WordDicException@WordDic@@3HA
; Line 153
	ldloc.s		11		; tmpWordDicException$34820
	throw.u2	
$LN19@WordGrpLoa:
; Line 155
	ldloc.0				; tmpRecord$
	newobj		??0WDMean@WDDatas@@$$FQ$AAM@P$AAVDataRecord@FJIsam@@@Z
	stloc.s		4		; tmpMean$
; Line 156
	ldarg.1				; inWordGrp$
	ldloc.s		4		; tmpMean$
	ldc.i.0		0		; u8 0x0
	ldc.i.0		0		; i32 0x0
	call		?addMean@WDWordGrp@WordDic@@$$FQ$AAMXP$AAVWDMean@WDDatas@@_NH@Z
$LL18@WordGrpLoa:
; Line 162
	ldloc.s		4		; tmpMean$
	callvirt	?getRecord@WDMean@WDDatas@@$$FU$AAMP$AAVDataRecord@FJIsam@@XZ
	call		?getEachKeyFlg@DataRecord@FJIsam@@$$FQ$AAMEXZ
	brfalse.s	$LN15@WordGrpLoa
	ldloc.s		4		; tmpMean$
	callvirt	?getRecord@WDMean@WDDatas@@$$FU$AAMP$AAVDataRecord@FJIsam@@XZ
	call		?getEachKeyFlg@DataRecord@FJIsam@@$$FQ$AAMEXZ
	ldc.i.3		3		; u8 0x3
	beq.s		$LN15@WordGrpLoa
; Line 167
	ldarg.0				; this$
	ldfld		?MeanFileA@Form1@WordDic@@3P$AAVFIsam@FJIsam@@$AA
	ldloc.0				; tmpRecord$
	call		?NextRecord@FIsam@FJIsam@@$$FQ$AAMP$AAVDataRecord@2@P$AAV32@@Z
	stloc.0				; tmpRecord$
; Line 168
	ldloc.0				; tmpRecord$
	brtrue.s	$LN14@WordGrpLoa
; Line 171
	ldstr		$StringLiteralTok$??_C@_1DC@PJFPGFAO@SX?$IK?$JO?$AAI?$AAD?$AA?3?$AA?$HL?$AA0?$AA?$HN?$AA?50nQh0f0na?$APTs0L?$IK?$KN0?$HP?$IP?$LM0?$IB0?$HO0?$FL0?$JD0?$AC?$AA?$AA@
	ldarg.1				; inWordGrp$
	call		?getWordID@WDWordGrp@WordDic@@$$FQ$AAMHXZ
	box		$TypeTok$110E4080$
	call		?Format@String@System@@$$FSMP$AAV12@P$AAV12@P$AAVObject@2@@Z
	newobj		??0WordDicException@WordDic@@$$FQ$AAM@P$AAVString@System@@@Z
	stloc.s		10		; tmpWordDicException$34914
; Line 172
	ldloc.s		10		; tmpWordDicException$34914
	ldc.i4		31303		; i32 0x7a47
	stfld		?ErrorCode@WordDicException@WordDic@@3HA
; Line 173
	ldloc.s		10		; tmpWordDicException$34914
	ldc.i.5		5		; i32 0x5
	stfld		?ErrorCode2@WordDicException@WordDic@@3HA
; Line 174
	ldloc.s		10		; tmpWordDicException$34914
	throw.u2	
$LN14@WordGrpLoa:
; Line 176
	ldloc.0				; tmpRecord$
	newobj		??0WDMean@WDDatas@@$$FQ$AAM@P$AAVDataRecord@FJIsam@@@Z
	stloc.s		4		; tmpMean$
; Line 177
	ldarg.1				; inWordGrp$
	ldloc.s		4		; tmpMean$
	ldc.i.0		0		; u8 0x0
	ldc.i.0		0		; i32 0x0
	call		?addMean@WDWordGrp@WordDic@@$$FQ$AAMXP$AAVWDMean@WDDatas@@_NH@Z
; Line 178
	br.s		$LL18@WordGrpLoa
$LN15@WordGrpLoa:
; Line 182
	ldarg.0				; this$
	ldfld		?TransFileA@Form1@WordDic@@3P$AAVFIsam@FJIsam@@$AA
	ldloc.s		6		; tmpWordID$
	ldc.i.1		1		; i32 0x1
	call		?ReadRecord@FIsam@FJIsam@@$$FQ$AAMP$AAVDataRecord@2@P$01AEH@Z
	stloc.0				; tmpRecord$
; Line 183
	ldloc.0				; tmpRecord$
	brfalse		$LN9@WordGrpLoa
; Line 185
	ldloc.0				; tmpRecord$
	newobj		??0WDTrans@WDDatas@@$$FQ$AAM@P$AAVDataRecord@FJIsam@@@Z
	stloc.3				; tmpTrans$
; Line 186
	ldarg.1				; inWordGrp$
	ldloc.3				; tmpTrans$
	call		?addTrans@WDWordGrp@WordDic@@$$FQ$AAMXP$AAVWDTrans@WDDatas@@@Z
$LL12@WordGrpLoa:
; Line 192
	ldloc.3				; tmpTrans$
	callvirt	?getRecord@WDTrans@WDDatas@@$$FU$AAMP$AAVDataRecord@FJIsam@@XZ
	call		?getEachKeyFlg@DataRecord@FJIsam@@$$FQ$AAMEXZ
	brfalse.s	$LN9@WordGrpLoa
	ldloc.3				; tmpTrans$
	callvirt	?getRecord@WDTrans@WDDatas@@$$FU$AAMP$AAVDataRecord@FJIsam@@XZ
	call		?getEachKeyFlg@DataRecord@FJIsam@@$$FQ$AAMEXZ
	ldc.i.3		3		; u8 0x3
	beq.s		$LN9@WordGrpLoa
; Line 197
	ldarg.0				; this$
	ldfld		?TransFileA@Form1@WordDic@@3P$AAVFIsam@FJIsam@@$AA
	ldloc.0				; tmpRecord$
	call		?NextRecord@FIsam@FJIsam@@$$FQ$AAMP$AAVDataRecord@2@P$AAV32@@Z
	stloc.0				; tmpRecord$
; Line 198
	ldloc.0				; tmpRecord$
	brtrue.s	$LN8@WordGrpLoa
; Line 201
	ldstr		$StringLiteralTok$??_C@_1DC@CLHCPBA@SX?$IK?$JO?$AAI?$AAD?$AA?3?$AA?$HL?$AA0?$AA?$HN?$AA?50nQh0f0n?$HP?$PL?$IK30L?$IK?$KN0?$HP?$IP?$LM0?$IB0?$HO0?$FL0?$JD0?$AC?$AA?$AA@
	ldarg.1				; inWordGrp$
	call		?getWordID@WDWordGrp@WordDic@@$$FQ$AAMHXZ
	box		$TypeTok$110E4080$
	call		?Format@String@System@@$$FSMP$AAV12@P$AAV12@P$AAVObject@2@@Z
	newobj		??0WordDicException@WordDic@@$$FQ$AAM@P$AAVString@System@@@Z
	stloc.s		9		; tmpWordDicException$34976
; Line 202
	ldloc.s		9		; tmpWordDicException$34976
	ldc.i4		31303		; i32 0x7a47
	stfld		?ErrorCode@WordDicException@WordDic@@3HA
; Line 203
	ldloc.s		9		; tmpWordDicException$34976
	ldc.i.6		6		; i32 0x6
	stfld		?ErrorCode2@WordDicException@WordDic@@3HA
; Line 204
	ldloc.s		9		; tmpWordDicException$34976
	throw.u2	
$LN8@WordGrpLoa:
; Line 206
	ldloc.0				; tmpRecord$
	newobj		??0WDTrans@WDDatas@@$$FQ$AAM@P$AAVDataRecord@FJIsam@@@Z
	stloc.3				; tmpTrans$
; Line 207
	ldarg.1				; inWordGrp$
	ldloc.3				; tmpTrans$
	call		?addTrans@WDWordGrp@WordDic@@$$FQ$AAMXP$AAVWDTrans@WDDatas@@@Z
; Line 208
	br.s		$LL12@WordGrpLoa
$LN9@WordGrpLoa:
; Line 213
	ldarg.0				; this$
	ldfld		?RelationFileA@Form1@WordDic@@3P$AAVFIsam@FJIsam@@$AA
	ldloc.s		6		; tmpWordID$
	ldc.i.1		1		; i32 0x1
	call		?ReadRecord@FIsam@FJIsam@@$$FQ$AAMP$AAVDataRecord@2@P$01AEH@Z
	stloc.0				; tmpRecord$
; Line 214
	ldloc.0				; tmpRecord$
	brfalse		$LN3@WordGrpLoa
; Line 216
	ldloc.0				; tmpRecord$
	newobj		??0WDRelation@WDDatas@@$$FQ$AAM@P$AAVDataRecord@FJIsam@@@Z
	stloc.2				; tmpRelation$
; Line 217
	ldarg.1				; inWordGrp$
	ldloc.2				; tmpRelation$
	call		?addRelation@WDWordGrp@WordDic@@$$FQ$AAMXP$AAVWDRelation@WDDatas@@@Z
$LL6@WordGrpLoa:
; Line 223
	ldloc.2				; tmpRelation$
	callvirt	?getRecord@WDRelation@WDDatas@@$$FU$AAMP$AAVDataRecord@FJIsam@@XZ
	call		?getEachKeyFlg@DataRecord@FJIsam@@$$FQ$AAMEXZ
	brfalse.s	$LN3@WordGrpLoa
	ldloc.2				; tmpRelation$
	callvirt	?getRecord@WDRelation@WDDatas@@$$FU$AAMP$AAVDataRecord@FJIsam@@XZ
	call		?getEachKeyFlg@DataRecord@FJIsam@@$$FQ$AAMEXZ
	ldc.i.3		3		; u8 0x3
	beq.s		$LN3@WordGrpLoa
; Line 228
	ldarg.0				; this$
	ldfld		?RelationFileA@Form1@WordDic@@3P$AAVFIsam@FJIsam@@$AA
	ldloc.0				; tmpRecord$
	call		?NextRecord@FIsam@FJIsam@@$$FQ$AAMP$AAVDataRecord@2@P$AAV32@@Z
	stloc.0				; tmpRecord$
; Line 229
	ldloc.0				; tmpRecord$
	brtrue.s	$LN2@WordGrpLoa
; Line 232
	ldstr		$StringLiteralTok$??_C@_1DE@JLDJODDO@SX?$IK?$JO?$AAI?$AAD?$AA?3?$AA?$HL?$AA0?$AA?$HN?$AA?50nQh0f0n?$JF?$KC?$JA?$CD?$IK?$JO0L?$IK?$KN0?$HP?$IP?$LM0?$IB0?$HO0?$FL0?$JD0?$AC?$AA?$AA@
	ldarg.1				; inWordGrp$
	call		?getWordID@WDWordGrp@WordDic@@$$FQ$AAMHXZ
	box		$TypeTok$110E4080$
	call		?Format@String@System@@$$FSMP$AAV12@P$AAV12@P$AAVObject@2@@Z
	newobj		??0WordDicException@WordDic@@$$FQ$AAM@P$AAVString@System@@@Z
	stloc.s		8		; tmpWordDicException$35045
; Line 233
	ldloc.s		8		; tmpWordDicException$35045
	ldc.i4		31303		; i32 0x7a47
	stfld		?ErrorCode@WordDicException@WordDic@@3HA
; Line 234
	ldloc.s		8		; tmpWordDicException$35045
	ldc.i.7		7		; i32 0x7
	stfld		?ErrorCode2@WordDicException@WordDic@@3HA
; Line 235
	ldloc.s		8		; tmpWordDicException$35045
	throw.u2	
$LN2@WordGrpLoa:
; Line 237
	ldloc.0				; tmpRecord$
	newobj		??0WDRelation@WDDatas@@$$FQ$AAM@P$AAVDataRecord@FJIsam@@@Z
	stloc.2				; tmpRelation$
; Line 238
	ldarg.1				; inWordGrp$
	ldloc.2				; tmpRelation$
	call		?addRelation@WDWordGrp@WordDic@@$$FQ$AAMXP$AAVWDRelation@WDDatas@@@Z
; Line 239
	br.s		$LL6@WordGrpLoa
$LN3@WordGrpLoa:
	leave.s		$LN42@WordGrpLoa
__catch$?WordGrpLoadA@Form1@WordDic@@$$FA$AAMXP$AAVWDWordGrp@2@@Z$2:
; Line 242
	imp.push	
	stloc.s		15		; exp$35049
; Line 243
	ldstr		$StringLiteralTok$??_C@_1CO@GDGGFGE@SX?$IK?$JO0?$LA0?k0?$PM0?W0ni?$BM?$HN?$CCN?90k0?$KI0?i0?$PM0Lvzu?$BP0W0?$HO0W0_0?$AC?$AA?$AA@
	ldloc.s		15		; exp$35049
	newobj		??0WordDicException@WordDic@@$$FQ$AAM@P$AAVString@System@@P$AAVException@3@@Z
	stloc.s		7		; tmpWordDicException$35050
; Line 244
	ldloc.s		7		; tmpWordDicException$35050
	ldc.i4		31303		; i32 0x7a47
	stfld		?ErrorCode@WordDicException@WordDic@@3HA
; Line 245
	ldloc.s		7		; tmpWordDicException$35050
	ldc.i.8		8		; i32 0x8
	stfld		?ErrorCode2@WordDicException@WordDic@@3HA
; Line 246
	ldloc.s		7		; tmpWordDicException$35050
	throw.u2	
$LN52@WordGrpLoa:
	leave.s		$LN42@WordGrpLoa
$LN42@WordGrpLoa:
	br.s		$LN50@WordGrpLoa
$LN51@WordGrpLoa:
; Line 249
	leave.s		__tryend$?WordGrpLoadA@Form1@WordDic@@$$FA$AAMXP$AAVWDWordGrp@2@@Z$4
$LN50@WordGrpLoa:
	leave.s		__tryend$?WordGrpLoadA@Form1@WordDic@@$$FA$AAMXP$AAVWDWordGrp@2@@Z$4
__catch$?WordGrpLoadA@Form1@WordDic@@$$FA$AAMXP$AAVWDWordGrp@2@@Z$3:
; Line 251
	endfinally	
__tryend$?WordGrpLoadA@Form1@WordDic@@$$FA$AAMXP$AAVWDWordGrp@2@@Z$4:
; Line 253
	ret		
 .end ?WordGrpLoadA@Form1@WordDic@@$$FA$AAMXP$AAVWDWordGrp@2@@Z ; WordDic::Form1::WordGrpLoadA
;	.proc.end.void
.global	?tabPageDic@WDConfig@WordDic@@3P$AAVTabPage@Forms@Windows@System@@$AA ; WordDic::WDConfig::tabPageDic
.global	?comboBoxWebSearch@WDConfig@WordDic@@3P$AAVComboBox@Forms@Windows@System@@$AA ; WordDic::WDConfig::comboBoxWebSearch
.global	?labelWebSearch@WDConfig@WordDic@@3P$AAVLabel@Forms@Windows@System@@$AA ; WordDic::WDConfig::labelWebSearch
.global	?tabPageSearch@WDConfig@WordDic@@3P$AAVTabPage@Forms@Windows@System@@$AA ; WordDic::WDConfig::tabPageSearch
.global	?comboBoxScreenLang@WDConfig@WordDic@@3P$AAVComboBox@Forms@Windows@System@@$AA ; WordDic::WDConfig::comboBoxScreenLang
.global	?labelScreenLang@WDConfig@WordDic@@3P$AAVLabel@Forms@Windows@System@@$AA ; WordDic::WDConfig::labelScreenLang
.global	?groupScreenLang@WDConfig@WordDic@@3P$AAVGroupBox@Forms@Windows@System@@$AA ; WordDic::WDConfig::groupScreenLang
.global	?tabPageBase@WDConfig@WordDic@@3P$AAVTabPage@Forms@Windows@System@@$AA ; WordDic::WDConfig::tabPageBase
.global	?tabControlBase@WDConfig@WordDic@@3P$AAVTabControl@Forms@Windows@System@@$AA ; WordDic::WDConfig::tabControlBase
.global	?buttonOK@WDConfig@WordDic@@3P$AAVButton@Forms@Windows@System@@$AA ; WordDic::WDConfig::buttonOK
.global	?buttonCancel@WDConfig@WordDic@@3P$AAVButton@Forms@Windows@System@@$AA ; WordDic::WDConfig::buttonCancel
.global	?buttonApply@WDConfig@WordDic@@3P$AAVButton@Forms@Windows@System@@$AA ; WordDic::WDConfig::buttonApply
.global	?panelBottuns@WDConfig@WordDic@@3P$AAVPanel@Forms@Windows@System@@$AA ; WordDic::WDConfig::panelBottuns
	.bss
.local	$T36662,0
.local	$StringLiteralTok$??_C@_19PMMDIJGA@?$IK?9?$FL?$JKu?$DL?$JHb?$AA?$AA@,4
.local	$StringLiteralTok$??_C@_1BC@CABFIBFH@?$AAW?$AAD?$AAC?$AAo?$AAn?$AAf?$AAi?$AAg?$AA?$AA@,4
.local	$TypeTok$1133D2B8$,4
.local	$StringLiteralTok$??_C@_1BG@GPPJDCEN@?$AA$?$AAt?$AAh?$AAi?$AAs?$AA?4?$AAI?$AAc?$AAo?$AAn?$AA?$AA@,4
.local	$StringLiteralTok$??_C@_15FFGPIHPG@?$IP?$JOf?x?$AA?$AA@,4
.local	$StringLiteralTok$??_C@_1BG@FBBNGIDC@?$AAt?$AAa?$AAb?$AAP?$AAa?$AAg?$AAe?$AAD?$AAi?$AAc?$AA?$AA@,4
.local	$StringLiteralTok$??_C@_1CE@IDLBBKNL@?$AAc?$AAo?$AAm?$AAb?$AAo?$AAB?$AAo?$AAx?$AAW?$AAe?$AAb?$AAS?$AAe?$AAa?$AAr?$AAc?$AAh?$AA?$AA@,4
.local	$StringLiteralTok$??_C@_1M@OEGMPBDB@0?$KI0?s0?$KL0?k0?$LP?$AA?$AA@,4
.local	$StringLiteralTok$??_C@_1EG@FNICKEPM@?$IIhy?3N?90nSX?$IK?$JO0?$AB0?$HO0_0o?$JAxb?$JON?90n?$IK?$AA?$IEI0?$JCi?$BM?$HN?$CC0Y0?$IL?$AAW?$AAe?$AAb0?$LF0?$KE0?H0?$JC?$JAxb?$JO0W0?$HO@,4
.local	$StringLiteralTok$??_C@_1BO@JOKOKBID@?$AAl?$AAa?$AAb?$AAe?$AAl?$AAW?$AAe?$AAb?$AAS?$AAe?$AAa?$AAr?$AAc?$AAh?$AA?$AA@,4
.local	$StringLiteralTok$??_C@_1M@NPONKJIL@?$AAW?$AAe?$AAbi?$BM?$HN?$CC?$AA?$AA@,4
.local	$StringLiteralTok$??_C@_1BM@LDPKGOAK@?$AAt?$AAa?$AAb?$AAP?$AAa?$AAg?$AAe?$AAS?$AAe?$AAa?$AAr?$AAc?$AAh?$AA?$AA@,4
.local	$StringLiteralTok$??_C@_1CG@PNCFBOPF@?$AAc?$AAo?$AAm?$AAb?$AAo?$AAB?$AAo?$AAx?$AAS?$AAc?$AAr?$AAe?$AAe?$AAn?$AAL?$AAa?$AAn?$AAg?$AA?$AA@,4
.local	$StringLiteralTok$??_C@_17GCCCAOAA@e?eg?0?$IK?$JO?$AA?$AA@,4
.local	$TypeTok$113F8BC4$,4
.local	$StringLiteralTok$??_C@_1DE@MPHJNILL@u?$DL?$JHb0n0?a0?K0?e0?$PM0?$IE0?$NM0?$LP0?s0k?$IIhy?30Y0?$IL?$IK?$AA?$IK?$JO0?$JCc?$AH?$FL?$JK0W0?$HO0Y0?$AC?$AA?$AA@,4
.local	$StringLiteralTok$??_C@_1CA@NDPELOLC@?$AAl?$AAa?$AAb?$AAe?$AAl?$AAS?$AAc?$AAr?$AAe?$AAe?$AAn?$AAL?$AAa?$AAn?$AAg?$AA?$AA@,4
.local	$StringLiteralTok$??_C@_1BA@FINDBIKE@u?$DL?$JHb0n?$IIhy?3?$IK?$AA?$IK?$JO?$AA?$AA@,4
.local	$StringLiteralTok$??_C@_1CA@KJENPMGG@?$AAg?$AAr?$AAo?$AAu?$AAp?$AAS?$AAc?$AAr?$AAe?$AAe?$AAn?$AAL?$AAa?$AAn?$AAg?$AA?$AA@,4
.local	$StringLiteralTok$??_C@_15NHHLLKNL@W?zg?0?$AA?$AA@,4
.local	$StringLiteralTok$??_C@_1BI@HPMMICFO@?$AAt?$AAa?$AAb?$AAP?$AAa?$AAg?$AAe?$AAB?$AAa?$AAs?$AAe?$AA?$AA@,4
.local	$StringLiteralTok$??_C@_1BO@DPJPPLAC@?$AAt?$AAa?$AAb?$AAC?$AAo?$AAn?$AAt?$AAr?$AAo?$AAl?$AAB?$AAa?$AAs?$AAe?$AA?$AA@,4
.local	$StringLiteralTok$??_C@_15PMCGDJNJ@?$AAO?$AAK?$AA?$AA@,4
.local	$StringLiteralTok$??_C@_1BC@FMNNPBEK@?$AAb?$AAu?$AAt?$AAt?$AAo?$AAn?$AAO?$AAK?$AA?$AA@,4
.local	$StringLiteralTok$??_C@_1M@JFEDHPLI@0?$KN0?c0?s0?$LL0?k?$AA?$AA@,4
.local	$StringLiteralTok$??_C@_1BK@EJGHCFAO@?$AAb?$AAu?$AAt?$AAt?$AAo?$AAn?$AAC?$AAa?$AAn?$AAc?$AAe?$AAl?$AA?$AA@,4
.local	$StringLiteralTok$??_C@_15IHHMAKLE@?$JAiu?$CI?$AA?$AA@,4
.local	$StringLiteralTok$??_C@_1BI@NGHMPNAB@?$AAb?$AAu?$AAt?$AAt?$AAo?$AAn?$AAA?$AAp?$AAp?$AAl?$AAy?$AA?$AA@,4
.local	$StringLiteralTok$??_C@_1BK@JKADHJJA@?$AAp?$AAa?$AAn?$AAe?$AAl?$AAB?$AAo?$AAt?$AAt?$AAu?$AAn?$AAs?$AA?$AA@,4
.local	?tabPageDic@WDConfig@WordDic@@3P$AAVTabPage@Forms@Windows@System@@$AA,4 ; WordDic::WDConfig::tabPageDic
.local	?comboBoxWebSearch@WDConfig@WordDic@@3P$AAVComboBox@Forms@Windows@System@@$AA,4 ; WordDic::WDConfig::comboBoxWebSearch
.local	?labelWebSearch@WDConfig@WordDic@@3P$AAVLabel@Forms@Windows@System@@$AA,4 ; WordDic::WDConfig::labelWebSearch
.local	?tabPageSearch@WDConfig@WordDic@@3P$AAVTabPage@Forms@Windows@System@@$AA,4 ; WordDic::WDConfig::tabPageSearch
.local	?comboBoxScreenLang@WDConfig@WordDic@@3P$AAVComboBox@Forms@Windows@System@@$AA,4 ; WordDic::WDConfig::comboBoxScreenLang
.local	?labelScreenLang@WDConfig@WordDic@@3P$AAVLabel@Forms@Windows@System@@$AA,4 ; WordDic::WDConfig::labelScreenLang
.local	?groupScreenLang@WDConfig@WordDic@@3P$AAVGroupBox@Forms@Windows@System@@$AA,4 ; WordDic::WDConfig::groupScreenLang
.local	?tabPageBase@WDConfig@WordDic@@3P$AAVTabPage@Forms@Windows@System@@$AA,4 ; WordDic::WDConfig::tabPageBase
.local	?tabControlBase@WDConfig@WordDic@@3P$AAVTabControl@Forms@Windows@System@@$AA,4 ; WordDic::WDConfig::tabControlBase
.local	?buttonOK@WDConfig@WordDic@@3P$AAVButton@Forms@Windows@System@@$AA,4 ; WordDic::WDConfig::buttonOK
.local	?buttonCancel@WDConfig@WordDic@@3P$AAVButton@Forms@Windows@System@@$AA,4 ; WordDic::WDConfig::buttonCancel
.local	?buttonApply@WDConfig@WordDic@@3P$AAVButton@Forms@Windows@System@@$AA,4 ; WordDic::WDConfig::buttonApply
.local	?panelBottuns@WDConfig@WordDic@@3P$AAVPanel@Forms@Windows@System@@$AA,4 ; WordDic::WDConfig::panelBottuns
.local	$TypeTok$114C7ED0$,4
; Function compile flags: /Ogtp
	.text
	.comdat	any, ?InitializeComponent@WDConfig@WordDic@@$$FA$AAMXXZ
.global	?InitializeComponent@WDConfig@WordDic@@$$FA$AAMXXZ ; WordDic::WDConfig::InitializeComponent
?InitializeComponent@WDConfig@WordDic@@$$FA$AAMXXZ:	; WordDic::WDConfig::InitializeComponent
;	.proc.def	D:V()

; Function Header:
; max stack depth = 3
; function size = 2374 bytes
; local varsig tk = 0x11000003 
; Exception Information:
; 0 handlers, each consisting of filtered handlers

;	.formal.mptr 0,"this$" SIG: Optional C Binding Modifier(token:0x7370B5).class (token:0x7370B8)
;	.local.mb8   2,"$S30$" SIG: valueType (token:0x736091)
;	.local.mb8   3,"$S29$" SIG: valueType (token:0x73733D)
;	.local.mb8   4,"$S28$" SIG: valueType (token:0x736091)
;	.local.mb20  5,"$T25936" SIG: valueType (token:0x7417E9)
;	.local.mb8   6,"$S27$" SIG: valueType (token:0x737085)
;	.local.mb8   7,"$S26$" SIG: valueType (token:0x736091)
;	.local.mb8   8,"$S25$" SIG: valueType (token:0x737085)
;	.local.mptr 0,"$S24$" SIG: szarray (token:0x7372AD)
;	.local.mb20  9,"$T25927" SIG: valueType (token:0x735355)
;	.local.mb8   10,"$S23$" SIG: valueType (token:0x736091)
;	.local.mb8   11,"$S22$" SIG: valueType (token:0x737085)
;	.local.mb8   12,"$S21$" SIG: valueType (token:0x736091)
;	.local.mb20  13,"$T25920" SIG: valueType (token:0x7417E9)
;	.local.mb8   14,"$S20$" SIG: valueType (token:0x737085)
;	.local.mb8   15,"$S19$" SIG: valueType (token:0x736091)
;	.local.mb8   16,"$S18$" SIG: valueType (token:0x737085)
;	.local.mptr 1,"$S17$" SIG: szarray (token:0x7372AD)
;	.local.mb20  17,"$T25185" SIG: valueType (token:0x735355)
;	.local.mb8   18,"$S16$" SIG: valueType (token:0x736091)
;	.local.mb8   19,"$S15$" SIG: valueType (token:0x737085)
;	.local.mb8   20,"$S14$" SIG: valueType (token:0x736091)
;	.local.mb8   21,"$S13$" SIG: valueType (token:0x737085)
;	.local.mb8   22,"$S12$" SIG: valueType (token:0x736091)
;	.local.mb20  23,"$T25038" SIG: valueType (token:0x7417E9)
;	.local.mb8   24,"$S11$" SIG: valueType (token:0x737085)
;	.local.mb8   25,"$S10$" SIG: valueType (token:0x736091)
;	.local.mb8   26,"$S9$" SIG: valueType (token:0x737085)
;	.local.mb8   27,"$S8$" SIG: valueType (token:0x736091)
;	.local.mb8   28,"$S7$" SIG: valueType (token:0x737085)
;	.local.mb8   29,"$S6$" SIG: valueType (token:0x736091)
;	.local.mb8   30,"$S5$" SIG: valueType (token:0x737085)
;	.local.mb8   31,"$S4$" SIG: valueType (token:0x736091)
;	.local.mb8   32,"$S3$" SIG: valueType (token:0x737085)
;	.local.mb8   33,"$S2$" SIG: valueType (token:0x736091)
;	.local.mb8   34,"$S1$" SIG: valueType (token:0x737085)
;	.local.mptr 35,"resources$" SIG: class (token:0x738D1D)

;	.proc.beg
; File c:\users\amotoo\documents\myproject\worddicbt\worddic\wdconfig.h
; Line 106
	ldtoken		$TypeTok$114C7ED0$
	call		?GetTypeFromHandle@Type@System@@$$FSMP$AAV12@VRuntimeTypeHandle@2@@Z
	newobj		??0ComponentResourceManager@ComponentModel@System@@$$FQ$AAM@P$AAVType@2@@Z
	stloc.s		35		; resources$
; Line 107
	ldarg.0				; this$
	newobj		??0Panel@Forms@Windows@System@@$$FQ$AAM@XZ
	stfld		?panelBottuns@WDConfig@WordDic@@3P$AAVPanel@Forms@Windows@System@@$AA
; Line 108
	ldarg.0				; this$
	newobj		??0Button@Forms@Windows@System@@$$FQ$AAM@XZ
	stfld		?buttonApply@WDConfig@WordDic@@3P$AAVButton@Forms@Windows@System@@$AA
; Line 109
	ldarg.0				; this$
	newobj		??0Button@Forms@Windows@System@@$$FQ$AAM@XZ
	stfld		?buttonCancel@WDConfig@WordDic@@3P$AAVButton@Forms@Windows@System@@$AA
; Line 110
	ldarg.0				; this$
	newobj		??0Button@Forms@Windows@System@@$$FQ$AAM@XZ
	stfld		?buttonOK@WDConfig@WordDic@@3P$AAVButton@Forms@Windows@System@@$AA
; Line 111
	ldarg.0				; this$
	newobj		??0TabControl@Forms@Windows@System@@$$FQ$AAM@XZ
	stfld		?tabControlBase@WDConfig@WordDic@@3P$AAVTabControl@Forms@Windows@System@@$AA
; Line 112
	ldarg.0				; this$
	newobj		??0TabPage@Forms@Windows@System@@$$FQ$AAM@XZ
	stfld		?tabPageBase@WDConfig@WordDic@@3P$AAVTabPage@Forms@Windows@System@@$AA
; Line 113
	ldarg.0				; this$
	newobj		??0GroupBox@Forms@Windows@System@@$$FQ$AAM@XZ
	stfld		?groupScreenLang@WDConfig@WordDic@@3P$AAVGroupBox@Forms@Windows@System@@$AA
; Line 114
	ldarg.0				; this$
	newobj		??0Label@Forms@Windows@System@@$$FQ$AAM@XZ
	stfld		?labelScreenLang@WDConfig@WordDic@@3P$AAVLabel@Forms@Windows@System@@$AA
; Line 115
	ldarg.0				; this$
	newobj		??0ComboBox@Forms@Windows@System@@$$FQ$AAM@XZ
	stfld		?comboBoxScreenLang@WDConfig@WordDic@@3P$AAVComboBox@Forms@Windows@System@@$AA
; Line 116
	ldarg.0				; this$
	newobj		??0TabPage@Forms@Windows@System@@$$FQ$AAM@XZ
	stfld		?tabPageSearch@WDConfig@WordDic@@3P$AAVTabPage@Forms@Windows@System@@$AA
; Line 117
	ldarg.0				; this$
	newobj		??0Label@Forms@Windows@System@@$$FQ$AAM@XZ
	stfld		?labelWebSearch@WDConfig@WordDic@@3P$AAVLabel@Forms@Windows@System@@$AA
; Line 118
	ldarg.0				; this$
	newobj		??0ComboBox@Forms@Windows@System@@$$FQ$AAM@XZ
	stfld		?comboBoxWebSearch@WDConfig@WordDic@@3P$AAVComboBox@Forms@Windows@System@@$AA
; Line 119
	ldarg.0				; this$
	newobj		??0TabPage@Forms@Windows@System@@$$FQ$AAM@XZ
	stfld		?tabPageDic@WDConfig@WordDic@@3P$AAVTabPage@Forms@Windows@System@@$AA
; Line 120
	ldarg.0				; this$
	ldfld		?panelBottuns@WDConfig@WordDic@@3P$AAVPanel@Forms@Windows@System@@$AA
	call		?SuspendLayout@Control@Forms@Windows@System@@$$FQ$AAMXXZ
; Line 121
	ldarg.0				; this$
	ldfld		?tabControlBase@WDConfig@WordDic@@3P$AAVTabControl@Forms@Windows@System@@$AA
	call		?SuspendLayout@Control@Forms@Windows@System@@$$FQ$AAMXXZ
; Line 122
	ldarg.0				; this$
	ldfld		?tabPageBase@WDConfig@WordDic@@3P$AAVTabPage@Forms@Windows@System@@$AA
	call		?SuspendLayout@Control@Forms@Windows@System@@$$FQ$AAMXXZ
; Line 123
	ldarg.0				; this$
	ldfld		?groupScreenLang@WDConfig@WordDic@@3P$AAVGroupBox@Forms@Windows@System@@$AA
	call		?SuspendLayout@Control@Forms@Windows@System@@$$FQ$AAMXXZ
; Line 124
	ldarg.0				; this$
	ldfld		?tabPageSearch@WDConfig@WordDic@@3P$AAVTabPage@Forms@Windows@System@@$AA
	call		?SuspendLayout@Control@Forms@Windows@System@@$$FQ$AAMXXZ
; Line 125
	ldarg.0				; this$
	call		?SuspendLayout@Control@Forms@Windows@System@@$$FQ$AAMXXZ
; Line 129
	ldarg.0				; this$
	ldfld		?panelBottuns@WDConfig@WordDic@@3P$AAVPanel@Forms@Windows@System@@$AA
	call		?get@Controls@Control@Forms@Windows@System@@$$FQ$AAMP$AAVControlCollection@2345@XZ
	ldarg.0				; this$
	ldfld		?buttonApply@WDConfig@WordDic@@3P$AAVButton@Forms@Windows@System@@$AA
	callvirt	?Add@ControlCollection@Control@Forms@Windows@System@@$$FU$AAMXP$AAV2345@@Z
; Line 130
	ldarg.0				; this$
	ldfld		?panelBottuns@WDConfig@WordDic@@3P$AAVPanel@Forms@Windows@System@@$AA
	call		?get@Controls@Control@Forms@Windows@System@@$$FQ$AAMP$AAVControlCollection@2345@XZ
	ldarg.0				; this$
	ldfld		?buttonCancel@WDConfig@WordDic@@3P$AAVButton@Forms@Windows@System@@$AA
	callvirt	?Add@ControlCollection@Control@Forms@Windows@System@@$$FU$AAMXP$AAV2345@@Z
; Line 131
	ldarg.0				; this$
	ldfld		?panelBottuns@WDConfig@WordDic@@3P$AAVPanel@Forms@Windows@System@@$AA
	call		?get@Controls@Control@Forms@Windows@System@@$$FQ$AAMP$AAVControlCollection@2345@XZ
	ldarg.0				; this$
	ldfld		?buttonOK@WDConfig@WordDic@@3P$AAVButton@Forms@Windows@System@@$AA
	callvirt	?Add@ControlCollection@Control@Forms@Windows@System@@$$FU$AAMXP$AAV2345@@Z
; Line 132
	ldarg.0				; this$
	ldfld		?panelBottuns@WDConfig@WordDic@@3P$AAVPanel@Forms@Windows@System@@$AA
	ldc.i.2		2		; i32 0x2
	callvirt	?set@Dock@Control@Forms@Windows@System@@$$FU$AAMXW4DockStyle@345@@Z
; Line 133
	ldloca.s	34		; $S1$
	ldc.i.0		0		; i32 0x0
	ldc.i4		243		; i32 0xf3
	call		??0Point@Drawing@System@@$$FQ$CAM@HH@Z
	ldarg.0				; this$
	ldfld		?panelBottuns@WDConfig@WordDic@@3P$AAVPanel@Forms@Windows@System@@$AA
	ldloc.s		34		; $S1$
	call		?set@Location@Control@Forms@Windows@System@@$$FQ$AAMXVPoint@Drawing@5@@Z
; Line 134
	ldarg.0				; this$
	ldfld		?panelBottuns@WDConfig@WordDic@@3P$AAVPanel@Forms@Windows@System@@$AA
	ldstr		$StringLiteralTok$??_C@_1BK@JKADHJJA@?$AAp?$AAa?$AAn?$AAe?$AAl?$AAB?$AAo?$AAt?$AAt?$AAu?$AAn?$AAs?$AA?$AA@
	call		?set@Name@Control@Forms@Windows@System@@$$FQ$AAMXP$AAVString@5@@Z
; Line 135
	ldloca.s	33		; $S2$
	ldc.i4		480		; i32 0x1e0
	ldc.i4.s	29		; i32 0x1d
	call		??0Size@Drawing@System@@$$FQ$CAM@HH@Z
	ldarg.0				; this$
	ldfld		?panelBottuns@WDConfig@WordDic@@3P$AAVPanel@Forms@Windows@System@@$AA
	ldloc.s		33		; $S2$
	call		?set@Size@Control@Forms@Windows@System@@$$FQ$AAMXV1Drawing@5@@Z
; Line 136
	ldarg.0				; this$
	ldfld		?panelBottuns@WDConfig@WordDic@@3P$AAVPanel@Forms@Windows@System@@$AA
	ldc.i.2		2		; i32 0x2
	call		?set@TabIndex@Control@Forms@Windows@System@@$$FQ$AAMXH@Z
; Line 140
	ldarg.0				; this$
	ldfld		?buttonApply@WDConfig@WordDic@@3P$AAVButton@Forms@Windows@System@@$AA
	ldc.i.3		3		; i32 0x3
	call		?set@FlatStyle@ButtonBase@Forms@Windows@System@@$$FQ$AAMXW41345@@Z
; Line 141
	ldloca.s	32		; $S3$
	ldc.i4		393		; i32 0x189
	ldc.i.4		4		; i32 0x4
	call		??0Point@Drawing@System@@$$FQ$CAM@HH@Z
	ldarg.0				; this$
	ldfld		?buttonApply@WDConfig@WordDic@@3P$AAVButton@Forms@Windows@System@@$AA
	ldloc.s		32		; $S3$
	call		?set@Location@Control@Forms@Windows@System@@$$FQ$AAMXVPoint@Drawing@5@@Z
; Line 142
	ldarg.0				; this$
	ldfld		?buttonApply@WDConfig@WordDic@@3P$AAVButton@Forms@Windows@System@@$AA
	ldstr		$StringLiteralTok$??_C@_1BI@NGHMPNAB@?$AAb?$AAu?$AAt?$AAt?$AAo?$AAn?$AAA?$AAp?$AAp?$AAl?$AAy?$AA?$AA@
	call		?set@Name@Control@Forms@Windows@System@@$$FQ$AAMXP$AAVString@5@@Z
; Line 143
	ldloca.s	31		; $S4$
	ldc.i4.s	75		; i32 0x4b
	ldc.i4.s	23		; i32 0x17
	call		??0Size@Drawing@System@@$$FQ$CAM@HH@Z
	ldarg.0				; this$
	ldfld		?buttonApply@WDConfig@WordDic@@3P$AAVButton@Forms@Windows@System@@$AA
	ldloc.s		31		; $S4$
	call		?set@Size@Control@Forms@Windows@System@@$$FQ$AAMXV1Drawing@5@@Z
; Line 144
	ldarg.0				; this$
	ldfld		?buttonApply@WDConfig@WordDic@@3P$AAVButton@Forms@Windows@System@@$AA
	ldc.i.2		2		; i32 0x2
	call		?set@TabIndex@Control@Forms@Windows@System@@$$FQ$AAMXH@Z
; Line 145
	ldarg.0				; this$
	ldfld		?buttonApply@WDConfig@WordDic@@3P$AAVButton@Forms@Windows@System@@$AA
	ldstr		$StringLiteralTok$??_C@_15IHHMAKLE@?$JAiu?$CI?$AA?$AA@
	callvirt	?set@Text@ButtonBase@Forms@Windows@System@@$$FU$AAMXP$AAVString@5@@Z
; Line 146
	ldarg.0				; this$
	ldfld		?buttonApply@WDConfig@WordDic@@3P$AAVButton@Forms@Windows@System@@$AA
	ldc.i.1		1		; u8 0x1
	call		?set@UseVisualStyleBackColor@ButtonBase@Forms@Windows@System@@$$FQ$AAMX_N@Z
; Line 150
	ldarg.0				; this$
	ldfld		?buttonCancel@WDConfig@WordDic@@3P$AAVButton@Forms@Windows@System@@$AA
	ldc.i.2		2		; i32 0x2
	callvirt	?set@DialogResult@Button@Forms@Windows@System@@$$FU$AAMXW41345@@Z
; Line 151
	ldarg.0				; this$
	ldfld		?buttonCancel@WDConfig@WordDic@@3P$AAVButton@Forms@Windows@System@@$AA
	ldc.i.3		3		; i32 0x3
	call		?set@FlatStyle@ButtonBase@Forms@Windows@System@@$$FQ$AAMXW41345@@Z
; Line 152
	ldloca.s	30		; $S5$
	ldc.i4		312		; i32 0x138
	ldc.i.4		4		; i32 0x4
	call		??0Point@Drawing@System@@$$FQ$CAM@HH@Z
	ldarg.0				; this$
	ldfld		?buttonCancel@WDConfig@WordDic@@3P$AAVButton@Forms@Windows@System@@$AA
	ldloc.s		30		; $S5$
	call		?set@Location@Control@Forms@Windows@System@@$$FQ$AAMXVPoint@Drawing@5@@Z
; Line 153
	ldarg.0				; this$
	ldfld		?buttonCancel@WDConfig@WordDic@@3P$AAVButton@Forms@Windows@System@@$AA
	ldstr		$StringLiteralTok$??_C@_1BK@EJGHCFAO@?$AAb?$AAu?$AAt?$AAt?$AAo?$AAn?$AAC?$AAa?$AAn?$AAc?$AAe?$AAl?$AA?$AA@
	call		?set@Name@Control@Forms@Windows@System@@$$FQ$AAMXP$AAVString@5@@Z
; Line 154
	ldloca.s	29		; $S6$
	ldc.i4.s	75		; i32 0x4b
	ldc.i4.s	23		; i32 0x17
	call		??0Size@Drawing@System@@$$FQ$CAM@HH@Z
	ldarg.0				; this$
	ldfld		?buttonCancel@WDConfig@WordDic@@3P$AAVButton@Forms@Windows@System@@$AA
	ldloc.s		29		; $S6$
	call		?set@Size@Control@Forms@Windows@System@@$$FQ$AAMXV1Drawing@5@@Z
; Line 155
	ldarg.0				; this$
	ldfld		?buttonCancel@WDConfig@WordDic@@3P$AAVButton@Forms@Windows@System@@$AA
	ldc.i.1		1		; i32 0x1
	call		?set@TabIndex@Control@Forms@Windows@System@@$$FQ$AAMXH@Z
; Line 156
	ldarg.0				; this$
	ldfld		?buttonCancel@WDConfig@WordDic@@3P$AAVButton@Forms@Windows@System@@$AA
	ldstr		$StringLiteralTok$??_C@_1M@JFEDHPLI@0?$KN0?c0?s0?$LL0?k?$AA?$AA@
	callvirt	?set@Text@ButtonBase@Forms@Windows@System@@$$FU$AAMXP$AAVString@5@@Z
; Line 157
	ldarg.0				; this$
	ldfld		?buttonCancel@WDConfig@WordDic@@3P$AAVButton@Forms@Windows@System@@$AA
	ldc.i.1		1		; u8 0x1
	call		?set@UseVisualStyleBackColor@ButtonBase@Forms@Windows@System@@$$FQ$AAMX_N@Z
; Line 161
	ldarg.0				; this$
	ldfld		?buttonOK@WDConfig@WordDic@@3P$AAVButton@Forms@Windows@System@@$AA
	ldc.i.1		1		; i32 0x1
	callvirt	?set@DialogResult@Button@Forms@Windows@System@@$$FU$AAMXW41345@@Z
; Line 162
	ldarg.0				; this$
	ldfld		?buttonOK@WDConfig@WordDic@@3P$AAVButton@Forms@Windows@System@@$AA
	ldc.i.3		3		; i32 0x3
	call		?set@FlatStyle@ButtonBase@Forms@Windows@System@@$$FQ$AAMXW41345@@Z
; Line 163
	ldloca.s	28		; $S7$
	ldc.i4		231		; i32 0xe7
	ldc.i.4		4		; i32 0x4
	call		??0Point@Drawing@System@@$$FQ$CAM@HH@Z
	ldarg.0				; this$
	ldfld		?buttonOK@WDConfig@WordDic@@3P$AAVButton@Forms@Windows@System@@$AA
	ldloc.s		28		; $S7$
	call		?set@Location@Control@Forms@Windows@System@@$$FQ$AAMXVPoint@Drawing@5@@Z
; Line 164
	ldarg.0				; this$
	ldfld		?buttonOK@WDConfig@WordDic@@3P$AAVButton@Forms@Windows@System@@$AA
	ldstr		$StringLiteralTok$??_C@_1BC@FMNNPBEK@?$AAb?$AAu?$AAt?$AAt?$AAo?$AAn?$AAO?$AAK?$AA?$AA@
	call		?set@Name@Control@Forms@Windows@System@@$$FQ$AAMXP$AAVString@5@@Z
; Line 165
	ldloca.s	27		; $S8$
	ldc.i4.s	75		; i32 0x4b
	ldc.i4.s	23		; i32 0x17
	call		??0Size@Drawing@System@@$$FQ$CAM@HH@Z
	ldarg.0				; this$
	ldfld		?buttonOK@WDConfig@WordDic@@3P$AAVButton@Forms@Windows@System@@$AA
	ldloc.s		27		; $S8$
	call		?set@Size@Control@Forms@Windows@System@@$$FQ$AAMXV1Drawing@5@@Z
; Line 166
	ldarg.0				; this$
	ldfld		?buttonOK@WDConfig@WordDic@@3P$AAVButton@Forms@Windows@System@@$AA
	ldc.i.0		0		; i32 0x0
	call		?set@TabIndex@Control@Forms@Windows@System@@$$FQ$AAMXH@Z
; Line 167
	ldarg.0				; this$
	ldfld		?buttonOK@WDConfig@WordDic@@3P$AAVButton@Forms@Windows@System@@$AA
	ldstr		$StringLiteralTok$??_C@_15PMCGDJNJ@?$AAO?$AAK?$AA?$AA@
	callvirt	?set@Text@ButtonBase@Forms@Windows@System@@$$FU$AAMXP$AAVString@5@@Z
; Line 168
	ldarg.0				; this$
	ldfld		?buttonOK@WDConfig@WordDic@@3P$AAVButton@Forms@Windows@System@@$AA
	ldc.i.1		1		; u8 0x1
	call		?set@UseVisualStyleBackColor@ButtonBase@Forms@Windows@System@@$$FQ$AAMX_N@Z
; Line 172
	ldarg.0				; this$
	ldfld		?tabControlBase@WDConfig@WordDic@@3P$AAVTabControl@Forms@Windows@System@@$AA
	call		?get@Controls@Control@Forms@Windows@System@@$$FQ$AAMP$AAVControlCollection@2345@XZ
	ldarg.0				; this$
	ldfld		?tabPageBase@WDConfig@WordDic@@3P$AAVTabPage@Forms@Windows@System@@$AA
	callvirt	?Add@ControlCollection@Control@Forms@Windows@System@@$$FU$AAMXP$AAV2345@@Z
; Line 173
	ldarg.0				; this$
	ldfld		?tabControlBase@WDConfig@WordDic@@3P$AAVTabControl@Forms@Windows@System@@$AA
	call		?get@Controls@Control@Forms@Windows@System@@$$FQ$AAMP$AAVControlCollection@2345@XZ
	ldarg.0				; this$
	ldfld		?tabPageSearch@WDConfig@WordDic@@3P$AAVTabPage@Forms@Windows@System@@$AA
	callvirt	?Add@ControlCollection@Control@Forms@Windows@System@@$$FU$AAMXP$AAV2345@@Z
; Line 174
	ldarg.0				; this$
	ldfld		?tabControlBase@WDConfig@WordDic@@3P$AAVTabControl@Forms@Windows@System@@$AA
	call		?get@Controls@Control@Forms@Windows@System@@$$FQ$AAMP$AAVControlCollection@2345@XZ
	ldarg.0				; this$
	ldfld		?tabPageDic@WDConfig@WordDic@@3P$AAVTabPage@Forms@Windows@System@@$AA
	callvirt	?Add@ControlCollection@Control@Forms@Windows@System@@$$FU$AAMXP$AAV2345@@Z
; Line 175
	ldarg.0				; this$
	ldfld		?tabControlBase@WDConfig@WordDic@@3P$AAVTabControl@Forms@Windows@System@@$AA
	ldc.i.5		5		; i32 0x5
	callvirt	?set@Dock@Control@Forms@Windows@System@@$$FU$AAMXW4DockStyle@345@@Z
; Line 176
	ldarg.0				; this$
	ldfld		?tabControlBase@WDConfig@WordDic@@3P$AAVTabControl@Forms@Windows@System@@$AA
	ldc.i.1		1		; u8 0x1
	call		?set@HotTrack@TabControl@Forms@Windows@System@@$$FQ$AAMX_N@Z
; Line 177
	ldloca.s	26		; $S9$
	ldc.i.0		0		; i32 0x0
	ldc.i.0		0		; i32 0x0
	call		??0Point@Drawing@System@@$$FQ$CAM@HH@Z
	ldarg.0				; this$
	ldfld		?tabControlBase@WDConfig@WordDic@@3P$AAVTabControl@Forms@Windows@System@@$AA
	ldloc.s		26		; $S9$
	call		?set@Location@Control@Forms@Windows@System@@$$FQ$AAMXVPoint@Drawing@5@@Z
; Line 178
	ldarg.0				; this$
	ldfld		?tabControlBase@WDConfig@WordDic@@3P$AAVTabControl@Forms@Windows@System@@$AA
	ldstr		$StringLiteralTok$??_C@_1BO@DPJPPLAC@?$AAt?$AAa?$AAb?$AAC?$AAo?$AAn?$AAt?$AAr?$AAo?$AAl?$AAB?$AAa?$AAs?$AAe?$AA?$AA@
	call		?set@Name@Control@Forms@Windows@System@@$$FQ$AAMXP$AAVString@5@@Z
; Line 179
	ldarg.0				; this$
	ldfld		?tabControlBase@WDConfig@WordDic@@3P$AAVTabControl@Forms@Windows@System@@$AA
	ldc.i.0		0		; i32 0x0
	call		?set@SelectedIndex@TabControl@Forms@Windows@System@@$$FQ$AAMXH@Z
; Line 180
	ldloca.s	25		; $S10$
	ldc.i4		480		; i32 0x1e0
	ldc.i4		243		; i32 0xf3
	call		??0Size@Drawing@System@@$$FQ$CAM@HH@Z
	ldarg.0				; this$
	ldfld		?tabControlBase@WDConfig@WordDic@@3P$AAVTabControl@Forms@Windows@System@@$AA
	ldloc.s		25		; $S10$
	call		?set@Size@Control@Forms@Windows@System@@$$FQ$AAMXV1Drawing@5@@Z
; Line 181
	ldarg.0				; this$
	ldfld		?tabControlBase@WDConfig@WordDic@@3P$AAVTabControl@Forms@Windows@System@@$AA
	ldc.i.3		3		; i32 0x3
	call		?set@TabIndex@Control@Forms@Windows@System@@$$FQ$AAMXH@Z
; Line 185
	ldarg.0				; this$
	ldfld		?tabPageBase@WDConfig@WordDic@@3P$AAVTabPage@Forms@Windows@System@@$AA
	ldc.i.1		1		; i32 0x1
	call		?set@BorderStyle@Panel@Forms@Windows@System@@$$FQ$AAMXW41345@@Z
; Line 186
	ldarg.0				; this$
	ldfld		?tabPageBase@WDConfig@WordDic@@3P$AAVTabPage@Forms@Windows@System@@$AA
	call		?get@Controls@Control@Forms@Windows@System@@$$FQ$AAMP$AAVControlCollection@2345@XZ
	ldarg.0				; this$
	ldfld		?groupScreenLang@WDConfig@WordDic@@3P$AAVGroupBox@Forms@Windows@System@@$AA
	callvirt	?Add@ControlCollection@Control@Forms@Windows@System@@$$FU$AAMXP$AAV2345@@Z
; Line 187
	ldloca.s	24		; $S11$
	ldc.i.4		4		; i32 0x4
	ldc.i4.s	22		; i32 0x16
	call		??0Point@Drawing@System@@$$FQ$CAM@HH@Z
	ldarg.0				; this$
	ldfld		?tabPageBase@WDConfig@WordDic@@3P$AAVTabPage@Forms@Windows@System@@$AA
	ldloc.s		24		; $S11$
	call		?set@Location@TabPage@Forms@Windows@System@@$$FQ$AAMXVPoint@Drawing@5@@Z
; Line 188
	ldarg.0				; this$
	ldfld		?tabPageBase@WDConfig@WordDic@@3P$AAVTabPage@Forms@Windows@System@@$AA
	ldstr		$StringLiteralTok$??_C@_1BI@HPMMICFO@?$AAt?$AAa?$AAb?$AAP?$AAa?$AAg?$AAe?$AAB?$AAa?$AAs?$AAe?$AA?$AA@
	call		?set@Name@Control@Forms@Windows@System@@$$FQ$AAMXP$AAVString@5@@Z
; Line 189
	ldloca.s	23		; $T25038
	ldc.i.3		3		; i32 0x3
	call		??0Padding@Forms@Windows@System@@$$FQ$CAM@H@Z
	ldarg.0				; this$
	ldfld		?tabPageBase@WDConfig@WordDic@@3P$AAVTabPage@Forms@Windows@System@@$AA
	ldloc.s		23		; $T25038
	call		?set@Padding@Control@Forms@Windows@System@@$$FQ$AAMXV1345@@Z
; Line 190
	ldloca.s	22		; $S12$
	ldc.i4		472		; i32 0x1d8
	ldc.i4		217		; i32 0xd9
	call		??0Size@Drawing@System@@$$FQ$CAM@HH@Z
	ldarg.0				; this$
	ldfld		?tabPageBase@WDConfig@WordDic@@3P$AAVTabPage@Forms@Windows@System@@$AA
	ldloc.s		22		; $S12$
	call		?set@Size@Control@Forms@Windows@System@@$$FQ$AAMXV1Drawing@5@@Z
; Line 191
	ldarg.0				; this$
	ldfld		?tabPageBase@WDConfig@WordDic@@3P$AAVTabPage@Forms@Windows@System@@$AA
	ldc.i.0		0		; i32 0x0
	call		?set@TabIndex@TabPage@Forms@Windows@System@@$$FQ$AAMXH@Z
; Line 192
	ldarg.0				; this$
	ldfld		?tabPageBase@WDConfig@WordDic@@3P$AAVTabPage@Forms@Windows@System@@$AA
	ldstr		$StringLiteralTok$??_C@_15NHHLLKNL@W?zg?0?$AA?$AA@
	callvirt	?set@Text@TabPage@Forms@Windows@System@@$$FU$AAMXP$AAVString@5@@Z
; Line 193
	ldarg.0				; this$
	ldfld		?tabPageBase@WDConfig@WordDic@@3P$AAVTabPage@Forms@Windows@System@@$AA
	ldc.i.1		1		; u8 0x1
	call		?set@UseVisualStyleBackColor@TabPage@Forms@Windows@System@@$$FQ$AAMX_N@Z
; Line 197
	ldarg.0				; this$
	ldfld		?groupScreenLang@WDConfig@WordDic@@3P$AAVGroupBox@Forms@Windows@System@@$AA
	call		?get@Controls@Control@Forms@Windows@System@@$$FQ$AAMP$AAVControlCollection@2345@XZ
	ldarg.0				; this$
	ldfld		?labelScreenLang@WDConfig@WordDic@@3P$AAVLabel@Forms@Windows@System@@$AA
	callvirt	?Add@ControlCollection@Control@Forms@Windows@System@@$$FU$AAMXP$AAV2345@@Z
; Line 198
	ldarg.0				; this$
	ldfld		?groupScreenLang@WDConfig@WordDic@@3P$AAVGroupBox@Forms@Windows@System@@$AA
	call		?get@Controls@Control@Forms@Windows@System@@$$FQ$AAMP$AAVControlCollection@2345@XZ
	ldarg.0				; this$
	ldfld		?comboBoxScreenLang@WDConfig@WordDic@@3P$AAVComboBox@Forms@Windows@System@@$AA
	callvirt	?Add@ControlCollection@Control@Forms@Windows@System@@$$FU$AAMXP$AAV2345@@Z
; Line 199
	ldloca.s	21		; $S13$
	ldc.i.7		7		; i32 0x7
	ldc.i4.s	14		; i32 0xe
	call		??0Point@Drawing@System@@$$FQ$CAM@HH@Z
	ldarg.0				; this$
	ldfld		?groupScreenLang@WDConfig@WordDic@@3P$AAVGroupBox@Forms@Windows@System@@$AA
	ldloc.s		21		; $S13$
	call		?set@Location@Control@Forms@Windows@System@@$$FQ$AAMXVPoint@Drawing@5@@Z
; Line 200
	ldarg.0				; this$
	ldfld		?groupScreenLang@WDConfig@WordDic@@3P$AAVGroupBox@Forms@Windows@System@@$AA
	ldstr		$StringLiteralTok$??_C@_1CA@KJENPMGG@?$AAg?$AAr?$AAo?$AAu?$AAp?$AAS?$AAc?$AAr?$AAe?$AAe?$AAn?$AAL?$AAa?$AAn?$AAg?$AA?$AA@
	call		?set@Name@Control@Forms@Windows@System@@$$FQ$AAMXP$AAVString@5@@Z
; Line 201
	ldloca.s	20		; $S14$
	ldc.i4		450		; i32 0x1c2
	ldc.i4.s	78		; i32 0x4e
	call		??0Size@Drawing@System@@$$FQ$CAM@HH@Z
	ldarg.0				; this$
	ldfld		?groupScreenLang@WDConfig@WordDic@@3P$AAVGroupBox@Forms@Windows@System@@$AA
	ldloc.s		20		; $S14$
	call		?set@Size@Control@Forms@Windows@System@@$$FQ$AAMXV1Drawing@5@@Z
; Line 202
	ldarg.0				; this$
	ldfld		?groupScreenLang@WDConfig@WordDic@@3P$AAVGroupBox@Forms@Windows@System@@$AA
	ldc.i.0		0		; i32 0x0
	call		?set@TabIndex@Control@Forms@Windows@System@@$$FQ$AAMXH@Z
; Line 203
	ldarg.0				; this$
	ldfld		?groupScreenLang@WDConfig@WordDic@@3P$AAVGroupBox@Forms@Windows@System@@$AA
	ldc.i.0		0		; u8 0x0
	call		?set@TabStop@GroupBox@Forms@Windows@System@@$$FQ$AAMX_N@Z
; Line 204
	ldarg.0				; this$
	ldfld		?groupScreenLang@WDConfig@WordDic@@3P$AAVGroupBox@Forms@Windows@System@@$AA
	ldstr		$StringLiteralTok$??_C@_1BA@FINDBIKE@u?$DL?$JHb0n?$IIhy?3?$IK?$AA?$IK?$JO?$AA?$AA@
	callvirt	?set@Text@GroupBox@Forms@Windows@System@@$$FU$AAMXP$AAVString@5@@Z
; Line 208
	ldarg.0				; this$
	ldfld		?labelScreenLang@WDConfig@WordDic@@3P$AAVLabel@Forms@Windows@System@@$AA
	ldc.i.1		1		; u8 0x1
	callvirt	?set@AutoSize@Label@Forms@Windows@System@@$$FU$AAMX_N@Z
; Line 209
	ldloca.s	19		; $S15$
	ldc.i4.s	15		; i32 0xf
	ldc.i4.s	51		; i32 0x33
	call		??0Point@Drawing@System@@$$FQ$CAM@HH@Z
	ldarg.0				; this$
	ldfld		?labelScreenLang@WDConfig@WordDic@@3P$AAVLabel@Forms@Windows@System@@$AA
	ldloc.s		19		; $S15$
	call		?set@Location@Control@Forms@Windows@System@@$$FQ$AAMXVPoint@Drawing@5@@Z
; Line 210
	ldarg.0				; this$
	ldfld		?labelScreenLang@WDConfig@WordDic@@3P$AAVLabel@Forms@Windows@System@@$AA
	ldstr		$StringLiteralTok$??_C@_1CA@NDPELOLC@?$AAl?$AAa?$AAb?$AAe?$AAl?$AAS?$AAc?$AAr?$AAe?$AAe?$AAn?$AAL?$AAa?$AAn?$AAg?$AA?$AA@
	call		?set@Name@Control@Forms@Windows@System@@$$FQ$AAMXP$AAVString@5@@Z
; Line 211
	ldloca.s	18		; $S16$
	ldc.i4		256		; i32 0x100
	ldc.i4.s	12		; i32 0xc
	call		??0Size@Drawing@System@@$$FQ$CAM@HH@Z
	ldarg.0				; this$
	ldfld		?labelScreenLang@WDConfig@WordDic@@3P$AAVLabel@Forms@Windows@System@@$AA
	ldloc.s		18		; $S16$
	call		?set@Size@Control@Forms@Windows@System@@$$FQ$AAMXV1Drawing@5@@Z
; Line 212
	ldarg.0				; this$
	ldfld		?labelScreenLang@WDConfig@WordDic@@3P$AAVLabel@Forms@Windows@System@@$AA
	ldc.i.1		1		; i32 0x1
	call		?set@TabIndex@Control@Forms@Windows@System@@$$FQ$AAMXH@Z
; Line 213
	ldarg.0				; this$
	ldfld		?labelScreenLang@WDConfig@WordDic@@3P$AAVLabel@Forms@Windows@System@@$AA
	ldstr		$StringLiteralTok$??_C@_1DE@MPHJNILL@u?$DL?$JHb0n0?a0?K0?e0?$PM0?$IE0?$NM0?$LP0?s0k?$IIhy?30Y0?$IL?$IK?$AA?$IK?$JO0?$JCc?$AH?$FL?$JK0W0?$HO0Y0?$AC?$AA?$AA@
	callvirt	?set@Text@Label@Forms@Windows@System@@$$FU$AAMXP$AAVString@5@@Z
; Line 217
	call		?get@Window@SystemColors@Drawing@System@@$$FSM?AVColor@34@XZ
	stloc.s		17		; $T25185
	ldarg.0				; this$
	ldfld		?comboBoxScreenLang@WDConfig@WordDic@@3P$AAVComboBox@Forms@Windows@System@@$AA
	ldloc.s		17		; $T25185
	callvirt	?set@BackColor@ComboBox@Forms@Windows@System@@$$FU$AAMXVColor@Drawing@5@@Z
; Line 218
	ldarg.0				; this$
	ldfld		?comboBoxScreenLang@WDConfig@WordDic@@3P$AAVComboBox@Forms@Windows@System@@$AA
	ldc.i.2		2		; i32 0x2
	call		?set@DropDownStyle@ComboBox@Forms@Windows@System@@$$FQ$AAMXW4ComboBoxStyle@345@@Z
; Line 219
	ldarg.0				; this$
	ldfld		?comboBoxScreenLang@WDConfig@WordDic@@3P$AAVComboBox@Forms@Windows@System@@$AA
	ldc.i.3		3		; i32 0x3
	call		?set@FlatStyle@ComboBox@Forms@Windows@System@@$$FQ$AAMXW41345@@Z
; Line 220
	ldarg.0				; this$
	ldfld		?comboBoxScreenLang@WDConfig@WordDic@@3P$AAVComboBox@Forms@Windows@System@@$AA
	ldc.i.1		1		; u8 0x1
	call		?set@FormattingEnabled@ListControl@Forms@Windows@System@@$$FQ$AAMX_N@Z
; Line 221
	ldarg.0				; this$
	ldfld		?comboBoxScreenLang@WDConfig@WordDic@@3P$AAVComboBox@Forms@Windows@System@@$AA
	ldc.i.0		0		; u8 0x0
	call		?set@IntegralHeight@ComboBox@Forms@Windows@System@@$$FQ$AAMX_N@Z
; Line 222
	ldc.i.1		1		; i32 0x1
	newarr		$TypeTok$113F8BC4$
	stloc.1				; $S17$
	ldloc.1				; $S17$
	ldc.i.0		0		; i32 0x0
	ldstr		$StringLiteralTok$??_C@_17GCCCAOAA@e?eg?0?$IK?$JO?$AA?$AA@
	stelem.ref	
	ldarg.0				; this$
	ldfld		?comboBoxScreenLang@WDConfig@WordDic@@3P$AAVComboBox@Forms@Windows@System@@$AA
	call		?get@Items@ComboBox@Forms@Windows@System@@$$FQ$AAMP$AAVObjectCollection@2345@XZ
	ldloc.1				; $S17$
	call		?AddRange@ObjectCollection@ComboBox@Forms@Windows@System@@$$FQ$AAMXP$01AP$AAVObject@5@@Z
; Line 223
	ldloca.s	16		; $S18$
	ldc.i4.s	14		; i32 0xe
	ldc.i4.s	19		; i32 0x13
	call		??0Point@Drawing@System@@$$FQ$CAM@HH@Z
	ldarg.0				; this$
	ldfld		?comboBoxScreenLang@WDConfig@WordDic@@3P$AAVComboBox@Forms@Windows@System@@$AA
	ldloc.s		16		; $S18$
	call		?set@Location@Control@Forms@Windows@System@@$$FQ$AAMXVPoint@Drawing@5@@Z
; Line 224
	ldarg.0				; this$
	ldfld		?comboBoxScreenLang@WDConfig@WordDic@@3P$AAVComboBox@Forms@Windows@System@@$AA
	ldstr		$StringLiteralTok$??_C@_1CG@PNCFBOPF@?$AAc?$AAo?$AAm?$AAb?$AAo?$AAB?$AAo?$AAx?$AAS?$AAc?$AAr?$AAe?$AAe?$AAn?$AAL?$AAa?$AAn?$AAg?$AA?$AA@
	call		?set@Name@Control@Forms@Windows@System@@$$FQ$AAMXP$AAVString@5@@Z
; Line 225
	ldloca.s	15		; $S19$
	ldc.i4		425		; i32 0x1a9
	ldc.i4.s	20		; i32 0x14
	call		??0Size@Drawing@System@@$$FQ$CAM@HH@Z
	ldarg.0				; this$
	ldfld		?comboBoxScreenLang@WDConfig@WordDic@@3P$AAVComboBox@Forms@Windows@System@@$AA
	ldloc.s		15		; $S19$
	call		?set@Size@Control@Forms@Windows@System@@$$FQ$AAMXV1Drawing@5@@Z
; Line 226
	ldarg.0				; this$
	ldfld		?comboBoxScreenLang@WDConfig@WordDic@@3P$AAVComboBox@Forms@Windows@System@@$AA
	ldc.i.0		0		; i32 0x0
	call		?set@TabIndex@Control@Forms@Windows@System@@$$FQ$AAMXH@Z
; Line 230
	ldarg.0				; this$
	ldfld		?tabPageSearch@WDConfig@WordDic@@3P$AAVTabPage@Forms@Windows@System@@$AA
	call		?get@Controls@Control@Forms@Windows@System@@$$FQ$AAMP$AAVControlCollection@2345@XZ
	ldarg.0				; this$
	ldfld		?labelWebSearch@WDConfig@WordDic@@3P$AAVLabel@Forms@Windows@System@@$AA
	callvirt	?Add@ControlCollection@Control@Forms@Windows@System@@$$FU$AAMXP$AAV2345@@Z
; Line 231
	ldarg.0				; this$
	ldfld		?tabPageSearch@WDConfig@WordDic@@3P$AAVTabPage@Forms@Windows@System@@$AA
	call		?get@Controls@Control@Forms@Windows@System@@$$FQ$AAMP$AAVControlCollection@2345@XZ
	ldarg.0				; this$
	ldfld		?comboBoxWebSearch@WDConfig@WordDic@@3P$AAVComboBox@Forms@Windows@System@@$AA
	callvirt	?Add@ControlCollection@Control@Forms@Windows@System@@$$FU$AAMXP$AAV2345@@Z
; Line 232
	ldloca.s	14		; $S20$
	ldc.i.4		4		; i32 0x4
	ldc.i4.s	22		; i32 0x16
	call		??0Point@Drawing@System@@$$FQ$CAM@HH@Z
	ldarg.0				; this$
	ldfld		?tabPageSearch@WDConfig@WordDic@@3P$AAVTabPage@Forms@Windows@System@@$AA
	ldloc.s		14		; $S20$
	call		?set@Location@TabPage@Forms@Windows@System@@$$FQ$AAMXVPoint@Drawing@5@@Z
; Line 233
	ldarg.0				; this$
	ldfld		?tabPageSearch@WDConfig@WordDic@@3P$AAVTabPage@Forms@Windows@System@@$AA
	ldstr		$StringLiteralTok$??_C@_1BM@LDPKGOAK@?$AAt?$AAa?$AAb?$AAP?$AAa?$AAg?$AAe?$AAS?$AAe?$AAa?$AAr?$AAc?$AAh?$AA?$AA@
	call		?set@Name@Control@Forms@Windows@System@@$$FQ$AAMXP$AAVString@5@@Z
; Line 234
	ldloca.s	13		; $T25920
	ldc.i.3		3		; i32 0x3
	call		??0Padding@Forms@Windows@System@@$$FQ$CAM@H@Z
	ldarg.0				; this$
	ldfld		?tabPageSearch@WDConfig@WordDic@@3P$AAVTabPage@Forms@Windows@System@@$AA
	ldloc.s		13		; $T25920
	call		?set@Padding@Control@Forms@Windows@System@@$$FQ$AAMXV1345@@Z
; Line 235
	ldloca.s	12		; $S21$
	ldc.i4		472		; i32 0x1d8
	ldc.i4		217		; i32 0xd9
	call		??0Size@Drawing@System@@$$FQ$CAM@HH@Z
	ldarg.0				; this$
	ldfld		?tabPageSearch@WDConfig@WordDic@@3P$AAVTabPage@Forms@Windows@System@@$AA
	ldloc.s		12		; $S21$
	call		?set@Size@Control@Forms@Windows@System@@$$FQ$AAMXV1Drawing@5@@Z
; Line 236
	ldarg.0				; this$
	ldfld		?tabPageSearch@WDConfig@WordDic@@3P$AAVTabPage@Forms@Windows@System@@$AA
	ldc.i.2		2		; i32 0x2
	call		?set@TabIndex@TabPage@Forms@Windows@System@@$$FQ$AAMXH@Z
; Line 237
	ldarg.0				; this$
	ldfld		?tabPageSearch@WDConfig@WordDic@@3P$AAVTabPage@Forms@Windows@System@@$AA
	ldstr		$StringLiteralTok$??_C@_1M@NPONKJIL@?$AAW?$AAe?$AAbi?$BM?$HN?$CC?$AA?$AA@
	callvirt	?set@Text@TabPage@Forms@Windows@System@@$$FU$AAMXP$AAVString@5@@Z
; Line 238
	ldarg.0				; this$
	ldfld		?tabPageSearch@WDConfig@WordDic@@3P$AAVTabPage@Forms@Windows@System@@$AA
	ldc.i.1		1		; u8 0x1
	call		?set@UseVisualStyleBackColor@TabPage@Forms@Windows@System@@$$FQ$AAMX_N@Z
; Line 242
	ldarg.0				; this$
	ldfld		?labelWebSearch@WDConfig@WordDic@@3P$AAVLabel@Forms@Windows@System@@$AA
	ldc.i.1		1		; u8 0x1
	callvirt	?set@AutoSize@Label@Forms@Windows@System@@$$FU$AAMX_N@Z
; Line 243
	ldloca.s	11		; $S22$
	ldc.i4.s	38		; i32 0x26
	ldc.i4.s	79		; i32 0x4f
	call		??0Point@Drawing@System@@$$FQ$CAM@HH@Z
	ldarg.0				; this$
	ldfld		?labelWebSearch@WDConfig@WordDic@@3P$AAVLabel@Forms@Windows@System@@$AA
	ldloc.s		11		; $S22$
	call		?set@Location@Control@Forms@Windows@System@@$$FQ$AAMXVPoint@Drawing@5@@Z
; Line 244
	ldarg.0				; this$
	ldfld		?labelWebSearch@WDConfig@WordDic@@3P$AAVLabel@Forms@Windows@System@@$AA
	ldstr		$StringLiteralTok$??_C@_1BO@JOKOKBID@?$AAl?$AAa?$AAb?$AAe?$AAl?$AAW?$AAe?$AAb?$AAS?$AAe?$AAa?$AAr?$AAc?$AAh?$AA?$AA@
	call		?set@Name@Control@Forms@Windows@System@@$$FQ$AAMXP$AAVString@5@@Z
; Line 245
	ldloca.s	10		; $S23$
	ldc.i4		350		; i32 0x15e
	ldc.i4.s	12		; i32 0xc
	call		??0Size@Drawing@System@@$$FQ$CAM@HH@Z
	ldarg.0				; this$
	ldfld		?labelWebSearch@WDConfig@WordDic@@3P$AAVLabel@Forms@Windows@System@@$AA
	ldloc.s		10		; $S23$
	call		?set@Size@Control@Forms@Windows@System@@$$FQ$AAMXV1Drawing@5@@Z
; Line 246
	ldarg.0				; this$
	ldfld		?labelWebSearch@WDConfig@WordDic@@3P$AAVLabel@Forms@Windows@System@@$AA
	ldc.i.1		1		; i32 0x1
	call		?set@TabIndex@Control@Forms@Windows@System@@$$FQ$AAMXH@Z
; Line 247
	ldarg.0				; this$
	ldfld		?labelWebSearch@WDConfig@WordDic@@3P$AAVLabel@Forms@Windows@System@@$AA
	ldstr		$StringLiteralTok$??_C@_1EG@FNICKEPM@?$IIhy?3N?90nSX?$IK?$JO0?$AB0?$HO0_0o?$JAxb?$JON?90n?$IK?$AA?$IEI0?$JCi?$BM?$HN?$CC0Y0?$IL?$AAW?$AAe?$AAb0?$LF0?$KE0?H0?$JC?$JAxb?$JO0W0?$HO@
	callvirt	?set@Text@Label@Forms@Windows@System@@$$FU$AAMXP$AAVString@5@@Z
; Line 251
	call		?get@Window@SystemColors@Drawing@System@@$$FSM?AVColor@34@XZ
	stloc.s		9		; $T25927
	ldarg.0				; this$
	ldfld		?comboBoxWebSearch@WDConfig@WordDic@@3P$AAVComboBox@Forms@Windows@System@@$AA
	ldloc.s		9		; $T25927
	callvirt	?set@BackColor@ComboBox@Forms@Windows@System@@$$FU$AAMXVColor@Drawing@5@@Z
; Line 252
	ldarg.0				; this$
	ldfld		?comboBoxWebSearch@WDConfig@WordDic@@3P$AAVComboBox@Forms@Windows@System@@$AA
	ldc.i.2		2		; i32 0x2
	call		?set@DropDownStyle@ComboBox@Forms@Windows@System@@$$FQ$AAMXW4ComboBoxStyle@345@@Z
; Line 253
	ldarg.0				; this$
	ldfld		?comboBoxWebSearch@WDConfig@WordDic@@3P$AAVComboBox@Forms@Windows@System@@$AA
	ldc.i.3		3		; i32 0x3
	call		?set@FlatStyle@ComboBox@Forms@Windows@System@@$$FQ$AAMXW41345@@Z
; Line 254
	ldarg.0				; this$
	ldfld		?comboBoxWebSearch@WDConfig@WordDic@@3P$AAVComboBox@Forms@Windows@System@@$AA
	ldc.i.1		1		; u8 0x1
	call		?set@FormattingEnabled@ListControl@Forms@Windows@System@@$$FQ$AAMX_N@Z
; Line 255
	ldarg.0				; this$
	ldfld		?comboBoxWebSearch@WDConfig@WordDic@@3P$AAVComboBox@Forms@Windows@System@@$AA
	ldc.i.0		0		; u8 0x0
	call		?set@IntegralHeight@ComboBox@Forms@Windows@System@@$$FQ$AAMX_N@Z
; Line 256
	ldc.i.1		1		; i32 0x1
	newarr		$TypeTok$113F8BC4$
	stloc.0				; $S24$
	ldloc.0				; $S24$
	ldc.i.0		0		; i32 0x0
	ldstr		$StringLiteralTok$??_C@_1M@OEGMPBDB@0?$KI0?s0?$KL0?k0?$LP?$AA?$AA@
	stelem.ref	
	ldarg.0				; this$
	ldfld		?comboBoxWebSearch@WDConfig@WordDic@@3P$AAVComboBox@Forms@Windows@System@@$AA
	call		?get@Items@ComboBox@Forms@Windows@System@@$$FQ$AAMP$AAVObjectCollection@2345@XZ
	ldloc.0				; $S24$
	call		?AddRange@ObjectCollection@ComboBox@Forms@Windows@System@@$$FQ$AAMXP$01AP$AAVObject@5@@Z
; Line 257
	ldloca.s	8		; $S25$
	ldc.i4.s	26		; i32 0x1a
	ldc.i4.s	46		; i32 0x2e
	call		??0Point@Drawing@System@@$$FQ$CAM@HH@Z
	ldarg.0				; this$
	ldfld		?comboBoxWebSearch@WDConfig@WordDic@@3P$AAVComboBox@Forms@Windows@System@@$AA
	ldloc.s		8		; $S25$
	call		?set@Location@Control@Forms@Windows@System@@$$FQ$AAMXVPoint@Drawing@5@@Z
; Line 258
	ldarg.0				; this$
	ldfld		?comboBoxWebSearch@WDConfig@WordDic@@3P$AAVComboBox@Forms@Windows@System@@$AA
	ldstr		$StringLiteralTok$??_C@_1CE@IDLBBKNL@?$AAc?$AAo?$AAm?$AAb?$AAo?$AAB?$AAo?$AAx?$AAW?$AAe?$AAb?$AAS?$AAe?$AAa?$AAr?$AAc?$AAh?$AA?$AA@
	call		?set@Name@Control@Forms@Windows@System@@$$FQ$AAMXP$AAVString@5@@Z
; Line 259
	ldloca.s	7		; $S26$
	ldc.i4		417		; i32 0x1a1
	ldc.i4.s	20		; i32 0x14
	call		??0Size@Drawing@System@@$$FQ$CAM@HH@Z
	ldarg.0				; this$
	ldfld		?comboBoxWebSearch@WDConfig@WordDic@@3P$AAVComboBox@Forms@Windows@System@@$AA
	ldloc.s		7		; $S26$
	call		?set@Size@Control@Forms@Windows@System@@$$FQ$AAMXV1Drawing@5@@Z
; Line 260
	ldarg.0				; this$
	ldfld		?comboBoxWebSearch@WDConfig@WordDic@@3P$AAVComboBox@Forms@Windows@System@@$AA
	ldc.i.0		0		; i32 0x0
	call		?set@TabIndex@Control@Forms@Windows@System@@$$FQ$AAMXH@Z
; Line 264
	ldloca.s	6		; $S27$
	ldc.i.4		4		; i32 0x4
	ldc.i4.s	22		; i32 0x16
	call		??0Point@Drawing@System@@$$FQ$CAM@HH@Z
	ldarg.0				; this$
	ldfld		?tabPageDic@WDConfig@WordDic@@3P$AAVTabPage@Forms@Windows@System@@$AA
	ldloc.s		6		; $S27$
	call		?set@Location@TabPage@Forms@Windows@System@@$$FQ$AAMXVPoint@Drawing@5@@Z
; Line 265
	ldarg.0				; this$
	ldfld		?tabPageDic@WDConfig@WordDic@@3P$AAVTabPage@Forms@Windows@System@@$AA
	ldstr		$StringLiteralTok$??_C@_1BG@FBBNGIDC@?$AAt?$AAa?$AAb?$AAP?$AAa?$AAg?$AAe?$AAD?$AAi?$AAc?$AA?$AA@
	call		?set@Name@Control@Forms@Windows@System@@$$FQ$AAMXP$AAVString@5@@Z
; Line 266
	ldloca.s	5		; $T25936
	ldc.i.3		3		; i32 0x3
	call		??0Padding@Forms@Windows@System@@$$FQ$CAM@H@Z
	ldarg.0				; this$
	ldfld		?tabPageDic@WDConfig@WordDic@@3P$AAVTabPage@Forms@Windows@System@@$AA
	ldloc.s		5		; $T25936
	call		?set@Padding@Control@Forms@Windows@System@@$$FQ$AAMXV1345@@Z
; Line 267
	ldloca.s	4		; $S28$
	ldc.i4		472		; i32 0x1d8
	ldc.i4		217		; i32 0xd9
	call		??0Size@Drawing@System@@$$FQ$CAM@HH@Z
	ldarg.0				; this$
	ldfld		?tabPageDic@WDConfig@WordDic@@3P$AAVTabPage@Forms@Windows@System@@$AA
	ldloc.s		4		; $S28$
	call		?set@Size@Control@Forms@Windows@System@@$$FQ$AAMXV1Drawing@5@@Z
; Line 268
	ldarg.0				; this$
	ldfld		?tabPageDic@WDConfig@WordDic@@3P$AAVTabPage@Forms@Windows@System@@$AA
	ldc.i.1		1		; i32 0x1
	call		?set@TabIndex@TabPage@Forms@Windows@System@@$$FQ$AAMXH@Z
; Line 269
	ldarg.0				; this$
	ldfld		?tabPageDic@WDConfig@WordDic@@3P$AAVTabPage@Forms@Windows@System@@$AA
	ldstr		$StringLiteralTok$??_C@_15FFGPIHPG@?$IP?$JOf?x?$AA?$AA@
	callvirt	?set@Text@TabPage@Forms@Windows@System@@$$FU$AAMXP$AAVString@5@@Z
; Line 273
	ldloca.s	3		; $S29$
	ldc.r4		6.000000
	ldc.r4		12.000000
	call		??0SizeF@Drawing@System@@$$FQ$CAM@MM@Z
	ldarg.0				; this$
	ldloc.3				; $S29$
	call		?set@AutoScaleDimensions@ContainerControl@Forms@Windows@System@@$$FQ$AAMXVSizeF@Drawing@5@@Z
; Line 274
	ldarg.0				; this$
	ldc.i.1		1		; i32 0x1
	call		?set@AutoScaleMode@ContainerControl@Forms@Windows@System@@$$FQ$AAMXW41345@@Z
; Line 275
	ldloca.s	2		; $S30$
	ldc.i4		480		; i32 0x1e0
	ldc.i4		272		; i32 0x110
	call		??0Size@Drawing@System@@$$FQ$CAM@HH@Z
	ldarg.0				; this$
	ldloc.2				; $S30$
	call		?set@ClientSize@Form@Forms@Windows@System@@$$FQ$AAMXVSize@Drawing@5@@Z
; Line 276
	ldarg.0				; this$
	call		?get@Controls@Control@Forms@Windows@System@@$$FQ$AAMP$AAVControlCollection@2345@XZ
	ldarg.0				; this$
	ldfld		?tabControlBase@WDConfig@WordDic@@3P$AAVTabControl@Forms@Windows@System@@$AA
	callvirt	?Add@ControlCollection@Control@Forms@Windows@System@@$$FU$AAMXP$AAV2345@@Z
; Line 277
	ldarg.0				; this$
	call		?get@Controls@Control@Forms@Windows@System@@$$FQ$AAMP$AAVControlCollection@2345@XZ
	ldarg.0				; this$
	ldfld		?panelBottuns@WDConfig@WordDic@@3P$AAVPanel@Forms@Windows@System@@$AA
	callvirt	?Add@ControlCollection@Control@Forms@Windows@System@@$$FU$AAMXP$AAV2345@@Z
; Line 278
	ldarg.0				; this$
	ldc.i.1		1		; i32 0x1
	call		?set@FormBorderStyle@Form@Forms@Windows@System@@$$FQ$AAMXW41345@@Z
; Line 279
	ldarg.0				; this$
	ldloc.s		35		; resources$
	ldstr		$StringLiteralTok$??_C@_1BG@GPPJDCEN@?$AA$?$AAt?$AAh?$AAi?$AAs?$AA?4?$AAI?$AAc?$AAo?$AAn?$AA?$AA@
	callvirt	?GetObject@ResourceManager@Resources@System@@$$FU$AAMP$AAVObject@3@P$AAVString@3@@Z
	castClass	$TypeTok$1133D2B8$
	call		?set@Icon@Form@Forms@Windows@System@@$$FQ$AAMXP$AAV1Drawing@5@@Z
; Line 280
	ldarg.0				; this$
	ldstr		$StringLiteralTok$??_C@_1BC@CABFIBFH@?$AAW?$AAD?$AAC?$AAo?$AAn?$AAf?$AAi?$AAg?$AA?$AA@
	call		?set@Name@Control@Forms@Windows@System@@$$FQ$AAMXP$AAVString@5@@Z
; Line 281
	ldarg.0				; this$
	ldc.i.4		4		; i32 0x4
	call		?set@StartPosition@Form@Forms@Windows@System@@$$FQ$AAMXW4FormStartPosition@345@@Z
; Line 282
	ldarg.0				; this$
	ldstr		$StringLiteralTok$??_C@_19PMMDIJGA@?$IK?9?$FL?$JKu?$DL?$JHb?$AA?$AA@
	callvirt	?set@Text@Form@Forms@Windows@System@@$$FU$AAMXP$AAVString@5@@Z
; Line 283
	ldarg.0				; this$
	dup		
	ldftn		?WDConfig_Shown@WDConfig@WordDic@@$$FA$AAMXP$AAVObject@System@@P$AAVEventArgs@4@@Z
	newobj		??0EventHandler@System@@$$FQ$AAM@P$AAVObject@1@VIntPtr@1@@Z
	call		?add@Shown@Form@Forms@Windows@System@@$$FQ$AAMXP$AAVEventHandler@5@@Z
; Line 284
	ldarg.0				; this$
	ldfld		?panelBottuns@WDConfig@WordDic@@3P$AAVPanel@Forms@Windows@System@@$AA
	ldc.i.0		0		; u8 0x0
	call		?ResumeLayout@Control@Forms@Windows@System@@$$FQ$AAMX_N@Z
; Line 285
	ldarg.0				; this$
	ldfld		?tabControlBase@WDConfig@WordDic@@3P$AAVTabControl@Forms@Windows@System@@$AA
	ldc.i.0		0		; u8 0x0
	call		?ResumeLayout@Control@Forms@Windows@System@@$$FQ$AAMX_N@Z
; Line 286
	ldarg.0				; this$
	ldfld		?tabPageBase@WDConfig@WordDic@@3P$AAVTabPage@Forms@Windows@System@@$AA
	ldc.i.0		0		; u8 0x0
	call		?ResumeLayout@Control@Forms@Windows@System@@$$FQ$AAMX_N@Z
; Line 287
	ldarg.0				; this$
	ldfld		?groupScreenLang@WDConfig@WordDic@@3P$AAVGroupBox@Forms@Windows@System@@$AA
	ldc.i.0		0		; u8 0x0
	call		?ResumeLayout@Control@Forms@Windows@System@@$$FQ$AAMX_N@Z
; Line 288
	ldarg.0				; this$
	ldfld		?groupScreenLang@WDConfig@WordDic@@3P$AAVGroupBox@Forms@Windows@System@@$AA
	call		?PerformLayout@Control@Forms@Windows@System@@$$FQ$AAMXXZ
; Line 289
	ldarg.0				; this$
	ldfld		?tabPageSearch@WDConfig@WordDic@@3P$AAVTabPage@Forms@Windows@System@@$AA
	ldc.i.0		0		; u8 0x0
	call		?ResumeLayout@Control@Forms@Windows@System@@$$FQ$AAMX_N@Z
; Line 290
	ldarg.0				; this$
	ldfld		?tabPageSearch@WDConfig@WordDic@@3P$AAVTabPage@Forms@Windows@System@@$AA
	call		?PerformLayout@Control@Forms@Windows@System@@$$FQ$AAMXXZ
; Line 291
	ldarg.0				; this$
	ldc.i.0		0		; u8 0x0
	call		?ResumeLayout@Control@Forms@Windows@System@@$$FQ$AAMX_N@Z
; Line 293
	ret		
 .end ?InitializeComponent@WDConfig@WordDic@@$$FA$AAMXXZ ; WordDic::WDConfig::InitializeComponent
;	.proc.end.void
.global	?RelationFileB@Form1@WordDic@@3P$AAVFIsam@FJIsam@@$AA ; WordDic::Form1::RelationFileB
.global	?TransFileB@Form1@WordDic@@3P$AAVFIsam@FJIsam@@$AA ; WordDic::Form1::TransFileB
.global	?MeanFileB@Form1@WordDic@@3P$AAVFIsam@FJIsam@@$AA ; WordDic::Form1::MeanFileB
.global	?WordFileB@Form1@WordDic@@3P$AAVFIsam@FJIsam@@$AA ; WordDic::Form1::WordFileB
	.bss
.local	$T36698,0
.local	?RelationFileB@Form1@WordDic@@3P$AAVFIsam@FJIsam@@$AA,4 ; WordDic::Form1::RelationFileB
.local	?TransFileB@Form1@WordDic@@3P$AAVFIsam@FJIsam@@$AA,4 ; WordDic::Form1::TransFileB
.local	?MeanFileB@Form1@WordDic@@3P$AAVFIsam@FJIsam@@$AA,4 ; WordDic::Form1::MeanFileB
.local	?WordFileB@Form1@WordDic@@3P$AAVFIsam@FJIsam@@$AA,4 ; WordDic::Form1::WordFileB
; Function compile flags: /Ogtp
	.text
	.comdat	noduplicate, ?WordGrpLoadB@Form1@WordDic@@$$FA$AAMXP$AAVWDWordGrp@2@@Z
.global	?WordGrpLoadB@Form1@WordDic@@$$FA$AAMXP$AAVWDWordGrp@2@@Z ; WordDic::Form1::WordGrpLoadB
?WordGrpLoadB@Form1@WordDic@@$$FA$AAMXP$AAVWDWordGrp@2@@Z: ; WordDic::Form1::WordGrpLoadB
;	.proc.def	D:V(P)

; Function Header:
; max stack depth = 4
; function size = 986 bytes
; local varsig tk = 0x11000002 
; Exception Information:
; 3 handlers, each consisting of filtered handlers

;	.formal.mptr 0,"this$" SIG: Optional C Binding Modifier(token:0x749271).class (token:0x749274)
;	.formal.mptr 1,"inWordGrp$" SIG: class (token:0x73BD75)
;	.local.mptr 7,"tmpWordDicException$35139" SIG: class (token:0x74161D)
;	.local.mptr 15,"exp$35138" SIG: class (token:0x2FC21ED)
;	.local.mptr 8,"tmpWordDicException$35135" SIG: class (token:0x74161D)
;	.local.mptr 2,"tmpRelation$" SIG: class (token:0x74A0AD)
;	.local.mptr 9,"tmpWordDicException$35124" SIG: class (token:0x74161D)
;	.local.mptr 3,"tmpTrans$" SIG: class (token:0x735079)
;	.local.mptr 10,"tmpWordDicException$35113" SIG: class (token:0x74161D)
;	.local.mptr 4,"tmpMean$" SIG: class (token:0x2FB7E29)
;	.local.mptr 11,"tmpWordDicException$35104" SIG: class (token:0x74161D)
;	.local.mptr 12,"tmpWordDicException$35100" SIG: class (token:0x74161D)
;	.local.mptr 5,"tmpWord$" SIG: class (token:0x7389E5)
;	.local.mptr 13,"tmpWordDicException$35091" SIG: class (token:0x74161D)
;	.local.mptr 0,"tmpRecord$" SIG: class (token:0x741A49)
;	.local.mptr 6,"tmpWordID$" SIG: szarray (token:0x749C75)
;	.local.mptr 14,"tmpWordDicException$35087" SIG: class (token:0x74161D)
;	.local.mptr 16,"exp$35086" SIG: class (token:0x2FC21ED)
;	.local.mptr 17,"$T35084" SIG: class (token:0x2FB9919)
;	.local.mptr 18,"$T35083" SIG: class (token:0x73BD75)
;	.local.mptr 1,"tmpWDWordGrp$35079" SIG: class (token:0x73BD75)
;	.local.mb16  19,"$S51$35074" SIG: genericInst (token:0x1000048) <class (token:0x2FB7C36)>

;	.proc.beg
; File c:\users\amotoo\documents\myproject\worddicbt\worddic\worddicdisp.cpp
; Line 257
$LN65@WordGrpLoa@2:
; Line 269
	ldarg.1				; inWordGrp$
	call		?getXMLFname@WDWordGrp@WordDic@@$$FQ$AAMP$AAVString@System@@XZ
	ldnull		0		; i32 0x0
	call		??9String@System@@$$FSM_NP$AAV01@0@Z
	brfalse.s	$LN33@WordGrpLoa@2
; Line 271
	leave		__tryend$?WordGrpLoadB@Form1@WordDic@@$$FA$AAMXP$AAVWDWordGrp@2@@Z$4
$LN33@WordGrpLoa@2:
; Line 275
	ldarg.0				; this$
	ldfld		?ReadedWordList@Form1@WordDic@@3P$AAV?$List@P$AAVWDWordGrp@WordDic@@@Generic@Collections@System@@$AA
	call		?GetEnumerator@?$List@P$AAVWDWordGrp@WordDic@@@Generic@Collections@System@@$$FQ$AAM?AVEnumerator@1234@XZ
	stloc.s		19		; $S51$35074
$LL32@WordGrpLoa@2:
	ldloca.s	19		; $S51$35074
	call		?MoveNext@Enumerator@?$List@P$AAVWDWordGrp@WordDic@@@Generic@Collections@System@@$$FU$CAM_NXZ
	brfalse		$LN31@WordGrpLoa@2
	ldloca.s	19		; $S51$35074
	call		?get@Current@Enumerator@?$List@P$AAVWDWordGrp@WordDic@@@Generic@Collections@System@@$$FU$CAMP$AAVWDWordGrp@WordDic@@XZ
	stloc.1				; tmpWDWordGrp$35079
; Line 278
	ldloc.1				; tmpWDWordGrp$35079
	call		?getWordID@WDWordGrp@WordDic@@$$FQ$AAMHXZ
	ldarg.1				; inWordGrp$
	call		?getWordID@WDWordGrp@WordDic@@$$FQ$AAMHXZ
	bne.un.s	$LN37@WordGrpLoa@2
	ldloc.1				; tmpWDWordGrp$35079
	call		?getSchLang@WDWordGrp@WordDic@@$$FQ$AAMHXZ
	ldarg.1				; inWordGrp$
	call		?getSchLang@WDWordGrp@WordDic@@$$FQ$AAMHXZ
	bne.un.s	$LN37@WordGrpLoa@2
; Line 282
	ldloc.1				; tmpWDWordGrp$35079
	call		?getXMLFname@WDWordGrp@WordDic@@$$FQ$AAMP$AAVString@System@@XZ
	ldnull		0		; i32 0x0
	call		??8String@System@@$$FSM_NP$AAV01@0@Z
	brtrue.s	$LN28@WordGrpLoa@2
	ldloc.1				; tmpWDWordGrp$35079
	call		?getXMLFname@WDWordGrp@WordDic@@$$FQ$AAMP$AAVString@System@@XZ
	call		?get@Length@String@System@@$$FQ$AAMHXZ
	brfalse.s	$LN28@WordGrpLoa@2
; Line 289
	ldarg.0				; this$
	ldfld		?ReadedWordList@Form1@WordDic@@3P$AAV?$List@P$AAVWDWordGrp@WordDic@@@Generic@Collections@System@@$AA
	ldloc.1				; tmpWDWordGrp$35079
	callvirt	?Remove@?$List@P$AAVWDWordGrp@WordDic@@@Generic@Collections@System@@$$FU$AAM_NP$AAVWDWordGrp@WordDic@@@Z
	pop		
; Line 290
	ldarg.0				; this$
	ldfld		?ReadedWordList@Form1@WordDic@@3P$AAV?$List@P$AAVWDWordGrp@WordDic@@@Generic@Collections@System@@$AA
	ldloc.1				; tmpWDWordGrp$35079
	callvirt	?Add@?$List@P$AAVWDWordGrp@WordDic@@@Generic@Collections@System@@$$FU$AAMXP$AAVWDWordGrp@WordDic@@@Z
; Line 291
	ldarg.1				; inWordGrp$
	ldloc.1				; tmpWDWordGrp$35079
	call		?getXMLFname@WDWordGrp@WordDic@@$$FQ$AAMP$AAVString@System@@XZ
	call		?setXMLFname@WDWordGrp@WordDic@@$$FQ$AAMXP$AAVString@System@@@Z
; Line 292
	leave		__tryend$?WordGrpLoadB@Form1@WordDic@@$$FA$AAMXP$AAVWDWordGrp@2@@Z$4
$LN28@WordGrpLoa@2:
; Line 284
	ldarg.0				; this$
	ldfld		?ReadedWordList@Form1@WordDic@@3P$AAV?$List@P$AAVWDWordGrp@WordDic@@@Generic@Collections@System@@$AA
	ldloc.1				; tmpWDWordGrp$35079
	callvirt	?Remove@?$List@P$AAVWDWordGrp@WordDic@@@Generic@Collections@System@@$$FU$AAM_NP$AAVWDWordGrp@WordDic@@@Z
	pop		
; Line 285
	ldloc.1				; tmpWDWordGrp$35079
	stloc.s		18		; $T35083
	ldloc.1				; tmpWDWordGrp$35079
	stloc.s		17		; $T35084
	ldloc.1				; tmpWDWordGrp$35079
	brfalse.s	$LN37@WordGrpLoa@2
	ldloc.1				; tmpWDWordGrp$35079
	callvirt	?<Dispose>@IDisposable@System@@$$FU$AAMXXZ
$LN37@WordGrpLoa@2:
; Line 295
	br		$LL32@WordGrpLoa@2
$LN31@WordGrpLoa@2:
	leave.s		$LN39@WordGrpLoa@2
__catch$?WordGrpLoadB@Form1@WordDic@@$$FA$AAMXP$AAVWDWordGrp@2@@Z$0:
; Line 297
	imp.push	
	stloc.s		16		; exp$35086
; Line 298
	ldstr		$StringLiteralTok$??_C@_1DE@HBCBCFHM@e?b?$FLX0nSX?$IK?$JO?$IIhy?30?G0?$PM0?$LPi?$BM?$HN?$CCN?90k0?$KI0?i0?$PM0Lvzu?$BP0W0?$HO0W0_0?$AC?$AA?$AA@
	ldloc.s		16		; exp$35086
	newobj		??0WordDicException@WordDic@@$$FQ$AAM@P$AAVString@System@@P$AAVException@3@@Z
	stloc.s		14		; tmpWordDicException$35087
; Line 299
	ldloc.s		14		; tmpWordDicException$35087
	ldc.i4		31304		; i32 0x7a48
	stfld		?ErrorCode@WordDicException@WordDic@@3HA
; Line 300
	ldloc.s		14		; tmpWordDicException$35087
	ldc.i.1		1		; i32 0x1
	stfld		?ErrorCode2@WordDicException@WordDic@@3HA
; Line 301
	ldloc.s		14		; tmpWordDicException$35087
	throw.u2	
$LN48@WordGrpLoa@2:
	leave.s		$LN39@WordGrpLoa@2
$LN39@WordGrpLoa@2:
	nop		
$LN66@WordGrpLoa@2:
$LN67@WordGrpLoa@2:
; Line 307
	ldarg.1				; inWordGrp$
	call		?getWordID@WDWordGrp@WordDic@@$$FQ$AAMHXZ
	ldnull		0		; i32 0x0
	ldc.i.0		0		; i32 0x0
	call		?Int32ToArray@FJIFuncs@FJIsam@@$$FSMP$01AEHP$01AEH@Z
	stloc.s		6		; tmpWordID$
; Line 311
	ldarg.0				; this$
	ldfld		?WordFileB@Form1@WordDic@@3P$AAVFIsam@FJIsam@@$AA
	ldloc.s		6		; tmpWordID$
	ldc.i.2		2		; i32 0x2
	call		?ReadRecord@FIsam@FJIsam@@$$FQ$AAMP$AAVDataRecord@2@P$01AEH@Z
	stloc.0				; tmpRecord$
; Line 312
	ldloc.0				; tmpRecord$
	brtrue.s	$LN25@WordGrpLoa@2
; Line 315
	ldstr		$StringLiteralTok$??_C@_1CM@LJDKJAOM@SX?$IK?$JO?$AAI?$AAD?$AA?3?$AA?$HL?$AA0?$AA?$HN?$AA?50nSX?$IK?$JO0L?$IJ?$IL0d0K0?$IK0?$HO0?$FL0?$JD0?$AC?$AA?$AA@
	ldarg.1				; inWordGrp$
	call		?getWordID@WDWordGrp@WordDic@@$$FQ$AAMHXZ
	box		$TypeTok$110E4080$
	call		?Format@String@System@@$$FSMP$AAV12@P$AAV12@P$AAVObject@2@@Z
	newobj		??0WordDicException@WordDic@@$$FQ$AAM@P$AAVString@System@@@Z
	stloc.s		13		; tmpWordDicException$35091
; Line 316
	ldloc.s		13		; tmpWordDicException$35091
	ldc.i4		31304		; i32 0x7a48
	stfld		?ErrorCode@WordDicException@WordDic@@3HA
; Line 317
	ldloc.s		13		; tmpWordDicException$35091
	ldc.i.2		2		; i32 0x2
	stfld		?ErrorCode2@WordDicException@WordDic@@3HA
; Line 318
	ldloc.s		13		; tmpWordDicException$35091
	throw.u2	
$LN25@WordGrpLoa@2:
; Line 320
	ldloc.0				; tmpRecord$
	newobj		??0WDWord@WDDatas@@$$FQ$AAM@P$AAVDataRecord@FJIsam@@@Z
	stloc.s		5		; tmpWord$
; Line 321
	ldarg.1				; inWordGrp$
	ldloc.s		5		; tmpWord$
	ldc.i.0		0		; u8 0x0
	call		?addWord@WDWordGrp@WordDic@@$$FQ$AAMXP$AAVWDWord@WDDatas@@_N@Z
$LL24@WordGrpLoa@2:
; Line 327
	ldloc.s		5		; tmpWord$
	callvirt	?getRecord@WDWord@WDDatas@@$$FU$AAMP$AAVDataRecord@FJIsam@@XZ
	call		?getEachKeyFlg@DataRecord@FJIsam@@$$FQ$AAMEXZ
	brfalse.s	$LN21@WordGrpLoa@2
	ldloc.s		5		; tmpWord$
	callvirt	?getRecord@WDWord@WDDatas@@$$FU$AAMP$AAVDataRecord@FJIsam@@XZ
	call		?getEachKeyFlg@DataRecord@FJIsam@@$$FQ$AAMEXZ
	ldc.i.3		3		; u8 0x3
	beq.s		$LN21@WordGrpLoa@2
; Line 332
	ldarg.0				; this$
	ldfld		?WordFileB@Form1@WordDic@@3P$AAVFIsam@FJIsam@@$AA
	ldloc.0				; tmpRecord$
	call		?NextRecord@FIsam@FJIsam@@$$FQ$AAMP$AAVDataRecord@2@P$AAV32@@Z
	stloc.0				; tmpRecord$
; Line 333
	ldloc.0				; tmpRecord$
	brtrue.s	$LN20@WordGrpLoa@2
; Line 336
	ldstr		$StringLiteralTok$??_C@_1DC@NOHOGBMJ@SX?$IK?$JO?$AAI?$AAD?$AA?3?$AA?$HL?$AA0?$AA?$HN?$AA?50nQh0f0nSX?$IK?$JO0L?$IK?$KN0?$HP?$IP?$LM0?$IB0?$HO0?$FL0?$JD0?$AC?$AA?$AA@
	ldarg.1				; inWordGrp$
	call		?getWordID@WDWordGrp@WordDic@@$$FQ$AAMHXZ
	box		$TypeTok$110E4080$
	call		?Format@String@System@@$$FSMP$AAV12@P$AAV12@P$AAVObject@2@@Z
	newobj		??0WordDicException@WordDic@@$$FQ$AAM@P$AAVString@System@@@Z
	stloc.s		12		; tmpWordDicException$35100
; Line 337
	ldloc.s		12		; tmpWordDicException$35100
	ldc.i4		31304		; i32 0x7a48
	stfld		?ErrorCode@WordDicException@WordDic@@3HA
; Line 338
	ldloc.s		12		; tmpWordDicException$35100
	ldc.i.3		3		; i32 0x3
	stfld		?ErrorCode2@WordDicException@WordDic@@3HA
; Line 339
	ldloc.s		12		; tmpWordDicException$35100
	throw.u2	
$LN20@WordGrpLoa@2:
; Line 341
	ldloc.0				; tmpRecord$
	newobj		??0WDWord@WDDatas@@$$FQ$AAM@P$AAVDataRecord@FJIsam@@@Z
	stloc.s		5		; tmpWord$
; Line 342
	ldarg.1				; inWordGrp$
	ldloc.s		5		; tmpWord$
	ldc.i.0		0		; u8 0x0
	call		?addWord@WDWordGrp@WordDic@@$$FQ$AAMXP$AAVWDWord@WDDatas@@_N@Z
; Line 343
	br.s		$LL24@WordGrpLoa@2
$LN21@WordGrpLoa@2:
; Line 347
	ldarg.0				; this$
	ldfld		?MeanFileB@Form1@WordDic@@3P$AAVFIsam@FJIsam@@$AA
	ldloc.s		6		; tmpWordID$
	ldc.i.1		1		; i32 0x1
	call		?ReadRecord@FIsam@FJIsam@@$$FQ$AAMP$AAVDataRecord@2@P$01AEH@Z
	stloc.0				; tmpRecord$
; Line 348
	ldloc.0				; tmpRecord$
	brtrue.s	$LN19@WordGrpLoa@2
; Line 351
	ldstr		$StringLiteralTok$??_C@_1CM@JOBLJECL@SX?$IK?$JO?$AAI?$AAD?$AA?3?$AA?$HL?$AA0?$AA?$HN?$AA?50na?$APTs0L?$IJ?$IL0d0K0?$IK0?$HO0?$FL0?$JD0?$AC?$AA?$AA@
	ldarg.1				; inWordGrp$
	call		?getWordID@WDWordGrp@WordDic@@$$FQ$AAMHXZ
	box		$TypeTok$110E4080$
	call		?Format@String@System@@$$FSMP$AAV12@P$AAV12@P$AAVObject@2@@Z
	newobj		??0WordDicException@WordDic@@$$FQ$AAM@P$AAVString@System@@@Z
	stloc.s		11		; tmpWordDicException$35104
; Line 352
	ldloc.s		11		; tmpWordDicException$35104
	ldc.i4		31304		; i32 0x7a48
	stfld		?ErrorCode@WordDicException@WordDic@@3HA
; Line 353
	ldloc.s		11		; tmpWordDicException$35104
	ldc.i.4		4		; i32 0x4
	stfld		?ErrorCode2@WordDicException@WordDic@@3HA
; Line 354
	ldloc.s		11		; tmpWordDicException$35104
	throw.u2	
$LN19@WordGrpLoa@2:
; Line 356
	ldloc.0				; tmpRecord$
	newobj		??0WDMean@WDDatas@@$$FQ$AAM@P$AAVDataRecord@FJIsam@@@Z
	stloc.s		4		; tmpMean$
; Line 357
	ldarg.1				; inWordGrp$
	ldloc.s		4		; tmpMean$
	ldc.i.0		0		; u8 0x0
	ldc.i.0		0		; i32 0x0
	call		?addMean@WDWordGrp@WordDic@@$$FQ$AAMXP$AAVWDMean@WDDatas@@_NH@Z
$LL18@WordGrpLoa@2:
; Line 363
	ldloc.s		4		; tmpMean$
	callvirt	?getRecord@WDMean@WDDatas@@$$FU$AAMP$AAVDataRecord@FJIsam@@XZ
	call		?getEachKeyFlg@DataRecord@FJIsam@@$$FQ$AAMEXZ
	brfalse.s	$LN15@WordGrpLoa@2
	ldloc.s		4		; tmpMean$
	callvirt	?getRecord@WDMean@WDDatas@@$$FU$AAMP$AAVDataRecord@FJIsam@@XZ
	call		?getEachKeyFlg@DataRecord@FJIsam@@$$FQ$AAMEXZ
	ldc.i.3		3		; u8 0x3
	beq.s		$LN15@WordGrpLoa@2
; Line 368
	ldarg.0				; this$
	ldfld		?MeanFileB@Form1@WordDic@@3P$AAVFIsam@FJIsam@@$AA
	ldloc.0				; tmpRecord$
	call		?NextRecord@FIsam@FJIsam@@$$FQ$AAMP$AAVDataRecord@2@P$AAV32@@Z
	stloc.0				; tmpRecord$
; Line 369
	ldloc.0				; tmpRecord$
	brtrue.s	$LN14@WordGrpLoa@2
; Line 372
	ldstr		$StringLiteralTok$??_C@_1DC@PJFPGFAO@SX?$IK?$JO?$AAI?$AAD?$AA?3?$AA?$HL?$AA0?$AA?$HN?$AA?50nQh0f0na?$APTs0L?$IK?$KN0?$HP?$IP?$LM0?$IB0?$HO0?$FL0?$JD0?$AC?$AA?$AA@
	ldarg.1				; inWordGrp$
	call		?getWordID@WDWordGrp@WordDic@@$$FQ$AAMHXZ
	box		$TypeTok$110E4080$
	call		?Format@String@System@@$$FSMP$AAV12@P$AAV12@P$AAVObject@2@@Z
	newobj		??0WordDicException@WordDic@@$$FQ$AAM@P$AAVString@System@@@Z
	stloc.s		10		; tmpWordDicException$35113
; Line 373
	ldloc.s		10		; tmpWordDicException$35113
	ldc.i4		31304		; i32 0x7a48
	stfld		?ErrorCode@WordDicException@WordDic@@3HA
; Line 374
	ldloc.s		10		; tmpWordDicException$35113
	ldc.i.5		5		; i32 0x5
	stfld		?ErrorCode2@WordDicException@WordDic@@3HA
; Line 375
	ldloc.s		10		; tmpWordDicException$35113
	throw.u2	
$LN14@WordGrpLoa@2:
; Line 377
	ldloc.0				; tmpRecord$
	newobj		??0WDMean@WDDatas@@$$FQ$AAM@P$AAVDataRecord@FJIsam@@@Z
	stloc.s		4		; tmpMean$
; Line 378
	ldarg.1				; inWordGrp$
	ldloc.s		4		; tmpMean$
	ldc.i.0		0		; u8 0x0
	ldc.i.0		0		; i32 0x0
	call		?addMean@WDWordGrp@WordDic@@$$FQ$AAMXP$AAVWDMean@WDDatas@@_NH@Z
; Line 379
	br.s		$LL18@WordGrpLoa@2
$LN15@WordGrpLoa@2:
; Line 383
	ldarg.0				; this$
	ldfld		?TransFileB@Form1@WordDic@@3P$AAVFIsam@FJIsam@@$AA
	ldloc.s		6		; tmpWordID$
	ldc.i.1		1		; i32 0x1
	call		?ReadRecord@FIsam@FJIsam@@$$FQ$AAMP$AAVDataRecord@2@P$01AEH@Z
	stloc.0				; tmpRecord$
; Line 384
	ldloc.0				; tmpRecord$
	brfalse		$LN9@WordGrpLoa@2
; Line 386
	ldloc.0				; tmpRecord$
	newobj		??0WDTrans@WDDatas@@$$FQ$AAM@P$AAVDataRecord@FJIsam@@@Z
	stloc.3				; tmpTrans$
; Line 387
	ldarg.1				; inWordGrp$
	ldloc.3				; tmpTrans$
	call		?addTrans@WDWordGrp@WordDic@@$$FQ$AAMXP$AAVWDTrans@WDDatas@@@Z
$LL12@WordGrpLoa@2:
; Line 393
	ldloc.3				; tmpTrans$
	callvirt	?getRecord@WDTrans@WDDatas@@$$FU$AAMP$AAVDataRecord@FJIsam@@XZ
	call		?getEachKeyFlg@DataRecord@FJIsam@@$$FQ$AAMEXZ
	brfalse.s	$LN9@WordGrpLoa@2
	ldloc.3				; tmpTrans$
	callvirt	?getRecord@WDTrans@WDDatas@@$$FU$AAMP$AAVDataRecord@FJIsam@@XZ
	call		?getEachKeyFlg@DataRecord@FJIsam@@$$FQ$AAMEXZ
	ldc.i.3		3		; u8 0x3
	beq.s		$LN9@WordGrpLoa@2
; Line 398
	ldarg.0				; this$
	ldfld		?TransFileB@Form1@WordDic@@3P$AAVFIsam@FJIsam@@$AA
	ldloc.0				; tmpRecord$
	call		?NextRecord@FIsam@FJIsam@@$$FQ$AAMP$AAVDataRecord@2@P$AAV32@@Z
	stloc.0				; tmpRecord$
; Line 399
	ldloc.0				; tmpRecord$
	brtrue.s	$LN8@WordGrpLoa@2
; Line 402
	ldstr		$StringLiteralTok$??_C@_1DC@NOHOGBMJ@SX?$IK?$JO?$AAI?$AAD?$AA?3?$AA?$HL?$AA0?$AA?$HN?$AA?50nQh0f0nSX?$IK?$JO0L?$IK?$KN0?$HP?$IP?$LM0?$IB0?$HO0?$FL0?$JD0?$AC?$AA?$AA@
	ldarg.1				; inWordGrp$
	call		?getWordID@WDWordGrp@WordDic@@$$FQ$AAMHXZ
	box		$TypeTok$110E4080$
	call		?Format@String@System@@$$FSMP$AAV12@P$AAV12@P$AAVObject@2@@Z
	newobj		??0WordDicException@WordDic@@$$FQ$AAM@P$AAVString@System@@@Z
	stloc.s		9		; tmpWordDicException$35124
; Line 403
	ldloc.s		9		; tmpWordDicException$35124
	ldc.i4		31304		; i32 0x7a48
	stfld		?ErrorCode@WordDicException@WordDic@@3HA
; Line 404
	ldloc.s		9		; tmpWordDicException$35124
	ldc.i.6		6		; i32 0x6
	stfld		?ErrorCode2@WordDicException@WordDic@@3HA
; Line 405
	ldloc.s		9		; tmpWordDicException$35124
	throw.u2	
$LN8@WordGrpLoa@2:
; Line 407
	ldloc.0				; tmpRecord$
	newobj		??0WDTrans@WDDatas@@$$FQ$AAM@P$AAVDataRecord@FJIsam@@@Z
	stloc.3				; tmpTrans$
; Line 408
	ldarg.1				; inWordGrp$
	ldloc.3				; tmpTrans$
	call		?addTrans@WDWordGrp@WordDic@@$$FQ$AAMXP$AAVWDTrans@WDDatas@@@Z
; Line 410
	br.s		$LL12@WordGrpLoa@2
$LN9@WordGrpLoa@2:
; Line 415
	ldarg.0				; this$
	ldfld		?RelationFileB@Form1@WordDic@@3P$AAVFIsam@FJIsam@@$AA
	ldloc.s		6		; tmpWordID$
	ldc.i.1		1		; i32 0x1
	call		?ReadRecord@FIsam@FJIsam@@$$FQ$AAMP$AAVDataRecord@2@P$01AEH@Z
	stloc.0				; tmpRecord$
; Line 416
	ldloc.0				; tmpRecord$
	brfalse		$LN3@WordGrpLoa@2
; Line 418
	ldloc.0				; tmpRecord$
	newobj		??0WDRelation@WDDatas@@$$FQ$AAM@P$AAVDataRecord@FJIsam@@@Z
	stloc.2				; tmpRelation$
; Line 419
	ldarg.1				; inWordGrp$
	ldloc.2				; tmpRelation$
	call		?addRelation@WDWordGrp@WordDic@@$$FQ$AAMXP$AAVWDRelation@WDDatas@@@Z
$LL6@WordGrpLoa@2:
; Line 425
	ldloc.2				; tmpRelation$
	callvirt	?getRecord@WDRelation@WDDatas@@$$FU$AAMP$AAVDataRecord@FJIsam@@XZ
	call		?getEachKeyFlg@DataRecord@FJIsam@@$$FQ$AAMEXZ
	brfalse.s	$LN3@WordGrpLoa@2
	ldloc.2				; tmpRelation$
	callvirt	?getRecord@WDRelation@WDDatas@@$$FU$AAMP$AAVDataRecord@FJIsam@@XZ
	call		?getEachKeyFlg@DataRecord@FJIsam@@$$FQ$AAMEXZ
	ldc.i.3		3		; u8 0x3
	beq.s		$LN3@WordGrpLoa@2
; Line 430
	ldarg.0				; this$
	ldfld		?RelationFileB@Form1@WordDic@@3P$AAVFIsam@FJIsam@@$AA
	ldloc.0				; tmpRecord$
	call		?NextRecord@FIsam@FJIsam@@$$FQ$AAMP$AAVDataRecord@2@P$AAV32@@Z
	stloc.0				; tmpRecord$
; Line 431
	ldloc.0				; tmpRecord$
	brtrue.s	$LN2@WordGrpLoa@2
; Line 434
	ldstr		$StringLiteralTok$??_C@_1DC@NOHOGBMJ@SX?$IK?$JO?$AAI?$AAD?$AA?3?$AA?$HL?$AA0?$AA?$HN?$AA?50nQh0f0nSX?$IK?$JO0L?$IK?$KN0?$HP?$IP?$LM0?$IB0?$HO0?$FL0?$JD0?$AC?$AA?$AA@
	ldarg.1				; inWordGrp$
	call		?getWordID@WDWordGrp@WordDic@@$$FQ$AAMHXZ
	box		$TypeTok$110E4080$
	call		?Format@String@System@@$$FSMP$AAV12@P$AAV12@P$AAVObject@2@@Z
	newobj		??0WordDicException@WordDic@@$$FQ$AAM@P$AAVString@System@@@Z
	stloc.s		8		; tmpWordDicException$35135
; Line 435
	ldloc.s		8		; tmpWordDicException$35135
	ldc.i4		31304		; i32 0x7a48
	stfld		?ErrorCode@WordDicException@WordDic@@3HA
; Line 436
	ldloc.s		8		; tmpWordDicException$35135
	ldc.i.7		7		; i32 0x7
	stfld		?ErrorCode2@WordDicException@WordDic@@3HA
; Line 437
	ldloc.s		8		; tmpWordDicException$35135
	throw.u2	
$LN2@WordGrpLoa@2:
; Line 439
	ldloc.0				; tmpRecord$
	newobj		??0WDRelation@WDDatas@@$$FQ$AAM@P$AAVDataRecord@FJIsam@@@Z
	stloc.2				; tmpRelation$
; Line 440
	ldarg.1				; inWordGrp$
	ldloc.2				; tmpRelation$
	call		?addRelation@WDWordGrp@WordDic@@$$FQ$AAMXP$AAVWDRelation@WDDatas@@@Z
; Line 441
	br.s		$LL6@WordGrpLoa@2
$LN3@WordGrpLoa@2:
	leave.s		$LN42@WordGrpLoa@2
__catch$?WordGrpLoadB@Form1@WordDic@@$$FA$AAMXP$AAVWDWordGrp@2@@Z$2:
; Line 444
	imp.push	
	stloc.s		15		; exp$35138
; Line 445
	ldstr		$StringLiteralTok$??_C@_1CO@GDGGFGE@SX?$IK?$JO0?$LA0?k0?$PM0?W0ni?$BM?$HN?$CCN?90k0?$KI0?i0?$PM0Lvzu?$BP0W0?$HO0W0_0?$AC?$AA?$AA@
	ldloc.s		15		; exp$35138
	newobj		??0WordDicException@WordDic@@$$FQ$AAM@P$AAVString@System@@P$AAVException@3@@Z
	stloc.s		7		; tmpWordDicException$35139
; Line 446
	ldloc.s		7		; tmpWordDicException$35139
	ldc.i4		31304		; i32 0x7a48
	stfld		?ErrorCode@WordDicException@WordDic@@3HA
; Line 447
	ldloc.s		7		; tmpWordDicException$35139
	ldc.i.8		8		; i32 0x8
	stfld		?ErrorCode2@WordDicException@WordDic@@3HA
; Line 448
	ldloc.s		7		; tmpWordDicException$35139
	throw.u2	
$LN52@WordGrpLoa@2:
	leave.s		$LN42@WordGrpLoa@2
$LN42@WordGrpLoa@2:
	br.s		$LN50@WordGrpLoa@2
$LN51@WordGrpLoa@2:
; Line 451
	leave.s		__tryend$?WordGrpLoadB@Form1@WordDic@@$$FA$AAMXP$AAVWDWordGrp@2@@Z$4
$LN50@WordGrpLoa@2:
	leave.s		__tryend$?WordGrpLoadB@Form1@WordDic@@$$FA$AAMXP$AAVWDWordGrp@2@@Z$4
__catch$?WordGrpLoadB@Form1@WordDic@@$$FA$AAMXP$AAVWDWordGrp@2@@Z$3:
; Line 453
	endfinally	
__tryend$?WordGrpLoadB@Form1@WordDic@@$$FA$AAMXP$AAVWDWordGrp@2@@Z$4:
; Line 455
	ret		
 .end ?WordGrpLoadB@Form1@WordDic@@$$FA$AAMXP$AAVWDWordGrp@2@@Z ; WordDic::Form1::WordGrpLoadB
;	.proc.end.void
; Function compile flags: /Ogtp
	.text
	.comdat	any, ?<Dispose>@WDConfig@WordDic@@$$FM$AAMX_N@Z
.global	?<Dispose>@WDConfig@WordDic@@$$FM$AAMX_N@Z	; WordDic::WDConfig::<Dispose>
?<Dispose>@WDConfig@WordDic@@$$FM$AAMX_N@Z:		; WordDic::WDConfig::<Dispose>
;	.proc.def	D:V(I)

; Function Header:
; max stack depth = 2
; function size = 27 bytes
; local varsig tk = 0x0 
; Exception Information:
; 1 handlers, each consisting of filtered handlers

;	.formal.mptr 0,"this$" SIG: Optional C Binding Modifier(token:0x7370B5).class (token:0x7370B8)
;	.formal.u1 1,"disposing$" SIG: bool

;	.proc.beg
	ldarg.1				; disposing$
	brfalse.s	$LN3@
$LN13@:
	ldarg.0				; this$
	call		??1WDConfig@WordDic@@$$FA$AAM@XZ
$LN2@:
	leave.s		$LN12@
$LN7@:
	ldarg.0				; this$
	ldc.i.1		1		; u8 0x1
	call		?<Dispose>@Form@Forms@Windows@System@@$$FM$AAMX_N@Z
$LN9@:
	endfinally	
$LN3@:
	ldarg.0				; this$
	ldc.i.0		0		; u8 0x0
	call		?<Dispose>@Form@Forms@Windows@System@@$$FM$AAMX_N@Z
$LN12@:
	ret		
 .end ?<Dispose>@WDConfig@WordDic@@$$FM$AAMX_N@Z	; WordDic::WDConfig::<Dispose>
;	.proc.end.void
.global	?components@WDVerDialog@WordDic@@3P$AAUIContainer@ComponentModel@System@@$AA ; WordDic::WDVerDialog::components
	.bss
.local	$T36712,0
.local	?components@WDVerDialog@WordDic@@3P$AAUIContainer@ComponentModel@System@@$AA,4 ; WordDic::WDVerDialog::components
; Function compile flags: /Ogtp
	.text
	.comdat	any, ??1WDVerDialog@WordDic@@$$FA$AAM@XZ
.global	??1WDVerDialog@WordDic@@$$FA$AAM@XZ		; WordDic::WDVerDialog::~WDVerDialog
??1WDVerDialog@WordDic@@$$FA$AAM@XZ:			; WordDic::WDVerDialog::~WDVerDialog
;	.proc.def	D:V()

; Function Header:
; max stack depth = 1
; function size = 17 bytes
; local varsig tk = 0x11000004 
; Exception Information:
; 0 handlers, each consisting of filtered handlers

;	.formal.mptr 0,"this$" SIG: Optional C Binding Modifier(token:0x2FC31B1).class (token:0x2FC31B4)
;	.local.u4 0,"$T36711" SIG: class (token:0x2FB2F91)

;	.proc.beg
; File c:\users\amotoo\documents\myproject\worddicbt\worddic\wdverdialog.h
; Line 45
	ldarg.0				; this$
	ldfld		?components@WDVerDialog@WordDic@@3P$AAUIContainer@ComponentModel@System@@$AA
	stloc.0				; $T36711
	ldloc.0				; $T36711
	brfalse.s	$LN4@WDVerDialo
; Line 47
	ldloc.0				; $T36711
	callvirt	?<Dispose>@IDisposable@System@@$$FU$AAMXXZ
$LN4@WDVerDialo:
; Line 49
	ret		
 .end ??1WDVerDialog@WordDic@@$$FA$AAM@XZ		; WordDic::WDVerDialog::~WDVerDialog
;	.proc.end.void
.global	?labelCopyRight@WDVerDialog@WordDic@@3P$AAVLabel@Forms@Windows@System@@$AA ; WordDic::WDVerDialog::labelCopyRight
.global	?labelVersion@WDVerDialog@WordDic@@3P$AAVLabel@Forms@Windows@System@@$AA ; WordDic::WDVerDialog::labelVersion
.global	?labelWordDic@WDVerDialog@WordDic@@3P$AAVLabel@Forms@Windows@System@@$AA ; WordDic::WDVerDialog::labelWordDic
.global	?pictureBoxIcon@WDVerDialog@WordDic@@3P$AAVPictureBox@Forms@Windows@System@@$AA ; WordDic::WDVerDialog::pictureBoxIcon
.global	?buttonOK@WDVerDialog@WordDic@@3P$AAVButton@Forms@Windows@System@@$AA ; WordDic::WDVerDialog::buttonOK
	.bss
.local	$T36714,0
.local	$StringLiteralTok$??_C@_1BO@KAJFOHLM@0S0h0p0n?$IP?$JOQx0?$AA0?P0?$PM0?$LI0?g0?s?$GA?EX1?$AA?$AA@,4
.local	$StringLiteralTok$??_C@_1BI@KDEIBIDA@?$AAW?$AAD?$AAV?$AAe?$AAr?$AAD?$AAi?$AAa?$AAl?$AAo?$AAg?$AA?$AA@,4
.local	$StringLiteralTok$??_C@_1DM@IPJEHKGP@?$AAC?$AAo?$AAp?$AAy?$AAR?$AAi?$AAg?$AAh?$AAt?$AA?$CI?$AAc?$AA?$CJ0?$AA?$AA2?$AA0?$AA0?$AA7?$AA?9?$AA2?$AA0?$AA1?$AA00?$AA?$IF?dN?$JF0?$AAQC?$JG?D0?$AA?$AA?$AA@,4
.local	$StringLiteralTok$??_C@_1BO@GLOBCFBK@?$AAl?$AAa?$AAb?$AAe?$AAl?$AAC?$AAo?$AAp?$AAy?$AAR?$AAi?$AAg?$AAh?$AAt?$AA?$AA@,4
.local	$StringLiteralTok$??_C@_1BK@HAKFPKDN@?$AAV?$AAe?$AAr?$AA?4?$AA?5?$AA1?$AA?4?$AA0?$AA?4?$AA3?$AA?4?$AA0?$AA?$AA@,4
.local	$StringLiteralTok$??_C@_1BK@FPFECBC@?$AAl?$AAa?$AAb?$AAe?$AAl?$AAV?$AAe?$AAr?$AAs?$AAi?$AAo?$AAn?$AA?$AA@,4
.local	$StringLiteralTok$??_C@_1O@BGDGBKKO@0S0h0p0n?$IP?$JOQx?$AA?$AA@,4
.local	$StringLiteralTok$??_C@_1BK@PKJINPMO@?$AAl?$AAa?$AAb?$AAe?$AAl?$AAW?$AAo?$AAr?$AAd?$AAD?$AAi?$AAc?$AA?$AA@,4
.local	$StringLiteralTok$??_C@_1BO@LPDIHMJA@?$AAp?$AAi?$AAc?$AAt?$AAu?$AAr?$AAe?$AAB?$AAo?$AAx?$AAI?$AAc?$AAo?$AAn?$AA?$AA@,4
.local	$StringLiteralTok$??_C@_1DI@GMDJKOMP@?$AAp?$AAi?$AAc?$AAt?$AAu?$AAr?$AAe?$AAB?$AAo?$AAx?$AAI?$AAc?$AAo?$AAn?$AA?4?$AAI?$AAn?$AAi?$AAt?$AAi?$AAa?$AAl?$AAI?$AAm?$AAa?$AAg?$AAe?$AA?$AA@,4
.local	$TypeTok$1133D0F0$,4
.local	$StringLiteralTok$??_C@_1DO@BFJKMPGH@?$AAp?$AAi?$AAc?$AAt?$AAu?$AAr?$AAe?$AAB?$AAo?$AAx?$AAI?$AAc?$AAo?$AAn?$AA?4?$AAB?$AAa?$AAc?$AAk?$AAg?$AAr?$AAo?$AAu?$AAn?$AAd?$AAI?$AAm?$AAa?$AAg?$AAe?$AA?$AA@,4
.local	?labelCopyRight@WDVerDialog@WordDic@@3P$AAVLabel@Forms@Windows@System@@$AA,4 ; WordDic::WDVerDialog::labelCopyRight
.local	?labelVersion@WDVerDialog@WordDic@@3P$AAVLabel@Forms@Windows@System@@$AA,4 ; WordDic::WDVerDialog::labelVersion
.local	?labelWordDic@WDVerDialog@WordDic@@3P$AAVLabel@Forms@Windows@System@@$AA,4 ; WordDic::WDVerDialog::labelWordDic
.local	?pictureBoxIcon@WDVerDialog@WordDic@@3P$AAVPictureBox@Forms@Windows@System@@$AA,4 ; WordDic::WDVerDialog::pictureBoxIcon
.local	?buttonOK@WDVerDialog@WordDic@@3P$AAVButton@Forms@Windows@System@@$AA,4 ; WordDic::WDVerDialog::buttonOK
.local	$TypeTok$115FEF00$,4
; Function compile flags: /Ogtp
	.text
	.comdat	any, ?InitializeComponent@WDVerDialog@WordDic@@$$FA$AAMXXZ
.global	?InitializeComponent@WDVerDialog@WordDic@@$$FA$AAMXXZ ; WordDic::WDVerDialog::InitializeComponent
?InitializeComponent@WDVerDialog@WordDic@@$$FA$AAMXXZ:	; WordDic::WDVerDialog::InitializeComponent
;	.proc.def	D:V()

; Function Header:
; max stack depth = 3
; function size = 966 bytes
; local varsig tk = 0x11000005 
; Exception Information:
; 0 handlers, each consisting of filtered handlers

;	.formal.mptr 0,"this$" SIG: Optional C Binding Modifier(token:0x2FC31B1).class (token:0x2FC31B4)
;	.local.mb8   1,"$S42$" SIG: valueType (token:0x736091)
;	.local.mb8   2,"$S41$" SIG: valueType (token:0x73733D)
;	.local.mb8   3,"$S40$" SIG: valueType (token:0x736091)
;	.local.mb8   4,"$S39$" SIG: valueType (token:0x737085)
;	.local.mb8   5,"$S38$" SIG: valueType (token:0x736091)
;	.local.mb8   6,"$S37$" SIG: valueType (token:0x737085)
;	.local.mb8   7,"$S36$" SIG: valueType (token:0x736091)
;	.local.mb8   8,"$S35$" SIG: valueType (token:0x737085)
;	.local.mb8   9,"$S34$" SIG: valueType (token:0x736091)
;	.local.mb8   10,"$S33$" SIG: valueType (token:0x737085)
;	.local.mb8   11,"$S32$" SIG: valueType (token:0x736091)
;	.local.mb8   12,"$S31$" SIG: valueType (token:0x737085)
;	.local.mptr 0,"resources$" SIG: class (token:0x738D1D)

;	.proc.beg
; Line 76
	ldtoken		$TypeTok$115FEF00$
	call		?GetTypeFromHandle@Type@System@@$$FSMP$AAV12@VRuntimeTypeHandle@2@@Z
	newobj		??0ComponentResourceManager@ComponentModel@System@@$$FQ$AAM@P$AAVType@2@@Z
	stloc.0				; resources$
; Line 77
	ldarg.0				; this$
	newobj		??0Button@Forms@Windows@System@@$$FQ$AAM@XZ
	stfld		?buttonOK@WDVerDialog@WordDic@@3P$AAVButton@Forms@Windows@System@@$AA
; Line 78
	ldarg.0				; this$
	newobj		??0PictureBox@Forms@Windows@System@@$$FQ$AAM@XZ
	stfld		?pictureBoxIcon@WDVerDialog@WordDic@@3P$AAVPictureBox@Forms@Windows@System@@$AA
; Line 79
	ldarg.0				; this$
	newobj		??0Label@Forms@Windows@System@@$$FQ$AAM@XZ
	stfld		?labelWordDic@WDVerDialog@WordDic@@3P$AAVLabel@Forms@Windows@System@@$AA
; Line 80
	ldarg.0				; this$
	newobj		??0Label@Forms@Windows@System@@$$FQ$AAM@XZ
	stfld		?labelVersion@WDVerDialog@WordDic@@3P$AAVLabel@Forms@Windows@System@@$AA
; Line 81
	ldarg.0				; this$
	newobj		??0Label@Forms@Windows@System@@$$FQ$AAM@XZ
	stfld		?labelCopyRight@WDVerDialog@WordDic@@3P$AAVLabel@Forms@Windows@System@@$AA
; Line 82
	ldarg.0				; this$
	ldfld		?pictureBoxIcon@WDVerDialog@WordDic@@3P$AAVPictureBox@Forms@Windows@System@@$AA
	callvirt	?BeginInit@ISupportInitialize@ComponentModel@System@@$$FU$AAMXXZ
; Line 83
	ldarg.0				; this$
	call		?SuspendLayout@Control@Forms@Windows@System@@$$FQ$AAMXXZ
; Line 87
	ldloca.s	12		; $S31$
	ldc.i4.s	117		; i32 0x75
	ldc.i4.s	121		; i32 0x79
	call		??0Point@Drawing@System@@$$FQ$CAM@HH@Z
	ldarg.0				; this$
	ldfld		?buttonOK@WDVerDialog@WordDic@@3P$AAVButton@Forms@Windows@System@@$AA
	ldloc.s		12		; $S31$
	call		?set@Location@Control@Forms@Windows@System@@$$FQ$AAMXVPoint@Drawing@5@@Z
; Line 88
	ldarg.0				; this$
	ldfld		?buttonOK@WDVerDialog@WordDic@@3P$AAVButton@Forms@Windows@System@@$AA
	ldstr		$StringLiteralTok$??_C@_1BC@FMNNPBEK@?$AAb?$AAu?$AAt?$AAt?$AAo?$AAn?$AAO?$AAK?$AA?$AA@
	call		?set@Name@Control@Forms@Windows@System@@$$FQ$AAMXP$AAVString@5@@Z
; Line 89
	ldloca.s	11		; $S32$
	ldc.i4.s	75		; i32 0x4b
	ldc.i4.s	23		; i32 0x17
	call		??0Size@Drawing@System@@$$FQ$CAM@HH@Z
	ldarg.0				; this$
	ldfld		?buttonOK@WDVerDialog@WordDic@@3P$AAVButton@Forms@Windows@System@@$AA
	ldloc.s		11		; $S32$
	call		?set@Size@Control@Forms@Windows@System@@$$FQ$AAMXV1Drawing@5@@Z
; Line 90
	ldarg.0				; this$
	ldfld		?buttonOK@WDVerDialog@WordDic@@3P$AAVButton@Forms@Windows@System@@$AA
	ldc.i.0		0		; i32 0x0
	call		?set@TabIndex@Control@Forms@Windows@System@@$$FQ$AAMXH@Z
; Line 91
	ldarg.0				; this$
	ldfld		?buttonOK@WDVerDialog@WordDic@@3P$AAVButton@Forms@Windows@System@@$AA
	ldstr		$StringLiteralTok$??_C@_15PMCGDJNJ@?$AAO?$AAK?$AA?$AA@
	callvirt	?set@Text@ButtonBase@Forms@Windows@System@@$$FU$AAMXP$AAVString@5@@Z
; Line 92
	ldarg.0				; this$
	ldfld		?buttonOK@WDVerDialog@WordDic@@3P$AAVButton@Forms@Windows@System@@$AA
	ldc.i.1		1		; u8 0x1
	call		?set@UseVisualStyleBackColor@ButtonBase@Forms@Windows@System@@$$FQ$AAMX_N@Z
; Line 93
	ldarg.0				; this$
	ldfld		?buttonOK@WDVerDialog@WordDic@@3P$AAVButton@Forms@Windows@System@@$AA
	ldarg.0				; this$
	ldftn		?buttonOK_Click@WDVerDialog@WordDic@@$$FA$AAMXP$AAVObject@System@@P$AAVEventArgs@4@@Z
	newobj		??0EventHandler@System@@$$FQ$AAM@P$AAVObject@1@VIntPtr@1@@Z
	call		?add@Click@Control@Forms@Windows@System@@$$FQ$AAMXP$AAVEventHandler@5@@Z
; Line 97
	ldarg.0				; this$
	ldfld		?pictureBoxIcon@WDVerDialog@WordDic@@3P$AAVPictureBox@Forms@Windows@System@@$AA
	ldloc.0				; resources$
	ldstr		$StringLiteralTok$??_C@_1DO@BFJKMPGH@?$AAp?$AAi?$AAc?$AAt?$AAu?$AAr?$AAe?$AAB?$AAo?$AAx?$AAI?$AAc?$AAo?$AAn?$AA?4?$AAB?$AAa?$AAc?$AAk?$AAg?$AAr?$AAo?$AAu?$AAn?$AAd?$AAI?$AAm?$AAa?$AAg?$AAe?$AA?$AA@
	callvirt	?GetObject@ResourceManager@Resources@System@@$$FU$AAMP$AAVObject@3@P$AAVString@3@@Z
	castClass	$TypeTok$1133D0F0$
	callvirt	?set@BackgroundImage@Control@Forms@Windows@System@@$$FU$AAMXP$AAVImage@Drawing@5@@Z
; Line 98
	ldarg.0				; this$
	ldfld		?pictureBoxIcon@WDVerDialog@WordDic@@3P$AAVPictureBox@Forms@Windows@System@@$AA
	ldc.i.4		4		; i32 0x4
	callvirt	?set@BackgroundImageLayout@Control@Forms@Windows@System@@$$FU$AAMXW4ImageLayout@345@@Z
; Line 99
	ldarg.0				; this$
	ldfld		?pictureBoxIcon@WDVerDialog@WordDic@@3P$AAVPictureBox@Forms@Windows@System@@$AA
	ldloc.0				; resources$
	ldstr		$StringLiteralTok$??_C@_1DI@GMDJKOMP@?$AAp?$AAi?$AAc?$AAt?$AAu?$AAr?$AAe?$AAB?$AAo?$AAx?$AAI?$AAc?$AAo?$AAn?$AA?4?$AAI?$AAn?$AAi?$AAt?$AAi?$AAa?$AAl?$AAI?$AAm?$AAa?$AAg?$AAe?$AA?$AA@
	callvirt	?GetObject@ResourceManager@Resources@System@@$$FU$AAMP$AAVObject@3@P$AAVString@3@@Z
	castClass	$TypeTok$1133D0F0$
	call		?set@InitialImage@PictureBox@Forms@Windows@System@@$$FQ$AAMXP$AAVImage@Drawing@5@@Z
; Line 100
	ldloca.s	10		; $S33$
	ldc.i4.s	12		; i32 0xc
	ldc.i4.s	25		; i32 0x19
	call		??0Point@Drawing@System@@$$FQ$CAM@HH@Z
	ldarg.0				; this$
	ldfld		?pictureBoxIcon@WDVerDialog@WordDic@@3P$AAVPictureBox@Forms@Windows@System@@$AA
	ldloc.s		10		; $S33$
	call		?set@Location@Control@Forms@Windows@System@@$$FQ$AAMXVPoint@Drawing@5@@Z
; Line 101
	ldarg.0				; this$
	ldfld		?pictureBoxIcon@WDVerDialog@WordDic@@3P$AAVPictureBox@Forms@Windows@System@@$AA
	ldstr		$StringLiteralTok$??_C@_1BO@LPDIHMJA@?$AAp?$AAi?$AAc?$AAt?$AAu?$AAr?$AAe?$AAB?$AAo?$AAx?$AAI?$AAc?$AAo?$AAn?$AA?$AA@
	call		?set@Name@Control@Forms@Windows@System@@$$FQ$AAMXP$AAVString@5@@Z
; Line 102
	ldloca.s	9		; $S34$
	ldc.i4.s	64		; i32 0x40
	ldc.i4.s	59		; i32 0x3b
	call		??0Size@Drawing@System@@$$FQ$CAM@HH@Z
	ldarg.0				; this$
	ldfld		?pictureBoxIcon@WDVerDialog@WordDic@@3P$AAVPictureBox@Forms@Windows@System@@$AA
	ldloc.s		9		; $S34$
	call		?set@Size@Control@Forms@Windows@System@@$$FQ$AAMXV1Drawing@5@@Z
; Line 103
	ldarg.0				; this$
	ldfld		?pictureBoxIcon@WDVerDialog@WordDic@@3P$AAVPictureBox@Forms@Windows@System@@$AA
	ldc.i.2		2		; i32 0x2
	call		?set@SizeMode@PictureBox@Forms@Windows@System@@$$FQ$AAMXW4PictureBoxSizeMode@345@@Z
; Line 104
	ldarg.0				; this$
	ldfld		?pictureBoxIcon@WDVerDialog@WordDic@@3P$AAVPictureBox@Forms@Windows@System@@$AA
	ldc.i.1		1		; i32 0x1
	call		?set@TabIndex@PictureBox@Forms@Windows@System@@$$FQ$AAMXH@Z
; Line 105
	ldarg.0				; this$
	ldfld		?pictureBoxIcon@WDVerDialog@WordDic@@3P$AAVPictureBox@Forms@Windows@System@@$AA
	ldc.i.0		0		; u8 0x0
	call		?set@TabStop@PictureBox@Forms@Windows@System@@$$FQ$AAMX_N@Z
; Line 109
	ldarg.0				; this$
	ldfld		?labelWordDic@WDVerDialog@WordDic@@3P$AAVLabel@Forms@Windows@System@@$AA
	ldc.i.1		1		; u8 0x1
	callvirt	?set@AutoSize@Label@Forms@Windows@System@@$$FU$AAMX_N@Z
; Line 110
	ldloca.s	8		; $S35$
	ldc.i4.s	82		; i32 0x52
	ldc.i4.s	25		; i32 0x19
	call		??0Point@Drawing@System@@$$FQ$CAM@HH@Z
	ldarg.0				; this$
	ldfld		?labelWordDic@WDVerDialog@WordDic@@3P$AAVLabel@Forms@Windows@System@@$AA
	ldloc.s		8		; $S35$
	call		?set@Location@Control@Forms@Windows@System@@$$FQ$AAMXVPoint@Drawing@5@@Z
; Line 111
	ldarg.0				; this$
	ldfld		?labelWordDic@WDVerDialog@WordDic@@3P$AAVLabel@Forms@Windows@System@@$AA
	ldstr		$StringLiteralTok$??_C@_1BK@PKJINPMO@?$AAl?$AAa?$AAb?$AAe?$AAl?$AAW?$AAo?$AAr?$AAd?$AAD?$AAi?$AAc?$AA?$AA@
	call		?set@Name@Control@Forms@Windows@System@@$$FQ$AAMXP$AAVString@5@@Z
; Line 112
	ldloca.s	7		; $S36$
	ldc.i4.s	65		; i32 0x41
	ldc.i4.s	12		; i32 0xc
	call		??0Size@Drawing@System@@$$FQ$CAM@HH@Z
	ldarg.0				; this$
	ldfld		?labelWordDic@WDVerDialog@WordDic@@3P$AAVLabel@Forms@Windows@System@@$AA
	ldloc.s		7		; $S36$
	call		?set@Size@Control@Forms@Windows@System@@$$FQ$AAMXV1Drawing@5@@Z
; Line 113
	ldarg.0				; this$
	ldfld		?labelWordDic@WDVerDialog@WordDic@@3P$AAVLabel@Forms@Windows@System@@$AA
	ldc.i.2		2		; i32 0x2
	call		?set@TabIndex@Control@Forms@Windows@System@@$$FQ$AAMXH@Z
; Line 114
	ldarg.0				; this$
	ldfld		?labelWordDic@WDVerDialog@WordDic@@3P$AAVLabel@Forms@Windows@System@@$AA
	ldstr		$StringLiteralTok$??_C@_1O@BGDGBKKO@0S0h0p0n?$IP?$JOQx?$AA?$AA@
	callvirt	?set@Text@Label@Forms@Windows@System@@$$FU$AAMXP$AAVString@5@@Z
; Line 118
	ldarg.0				; this$
	ldfld		?labelVersion@WDVerDialog@WordDic@@3P$AAVLabel@Forms@Windows@System@@$AA
	ldc.i.1		1		; u8 0x1
	callvirt	?set@AutoSize@Label@Forms@Windows@System@@$$FU$AAMX_N@Z
; Line 119
	ldloca.s	6		; $S37$
	ldc.i4.s	82		; i32 0x52
	ldc.i4.s	47		; i32 0x2f
	call		??0Point@Drawing@System@@$$FQ$CAM@HH@Z
	ldarg.0				; this$
	ldfld		?labelVersion@WDVerDialog@WordDic@@3P$AAVLabel@Forms@Windows@System@@$AA
	ldloc.s		6		; $S37$
	call		?set@Location@Control@Forms@Windows@System@@$$FQ$AAMXVPoint@Drawing@5@@Z
; Line 120
	ldarg.0				; this$
	ldfld		?labelVersion@WDVerDialog@WordDic@@3P$AAVLabel@Forms@Windows@System@@$AA
	ldstr		$StringLiteralTok$??_C@_1BK@FPFECBC@?$AAl?$AAa?$AAb?$AAe?$AAl?$AAV?$AAe?$AAr?$AAs?$AAi?$AAo?$AAn?$AA?$AA@
	call		?set@Name@Control@Forms@Windows@System@@$$FQ$AAMXP$AAVString@5@@Z
; Line 121
	ldloca.s	5		; $S38$
	ldc.i4.s	59		; i32 0x3b
	ldc.i4.s	12		; i32 0xc
	call		??0Size@Drawing@System@@$$FQ$CAM@HH@Z
	ldarg.0				; this$
	ldfld		?labelVersion@WDVerDialog@WordDic@@3P$AAVLabel@Forms@Windows@System@@$AA
	ldloc.s		5		; $S38$
	call		?set@Size@Control@Forms@Windows@System@@$$FQ$AAMXV1Drawing@5@@Z
; Line 122
	ldarg.0				; this$
	ldfld		?labelVersion@WDVerDialog@WordDic@@3P$AAVLabel@Forms@Windows@System@@$AA
	ldc.i.3		3		; i32 0x3
	call		?set@TabIndex@Control@Forms@Windows@System@@$$FQ$AAMXH@Z
; Line 123
	ldarg.0				; this$
	ldfld		?labelVersion@WDVerDialog@WordDic@@3P$AAVLabel@Forms@Windows@System@@$AA
	ldstr		$StringLiteralTok$??_C@_1BK@HAKFPKDN@?$AAV?$AAe?$AAr?$AA?4?$AA?5?$AA1?$AA?4?$AA0?$AA?4?$AA3?$AA?4?$AA0?$AA?$AA@
	callvirt	?set@Text@Label@Forms@Windows@System@@$$FU$AAMXP$AAVString@5@@Z
; Line 127
	ldarg.0				; this$
	ldfld		?labelCopyRight@WDVerDialog@WordDic@@3P$AAVLabel@Forms@Windows@System@@$AA
	ldc.i.1		1		; u8 0x1
	callvirt	?set@AutoSize@Label@Forms@Windows@System@@$$FU$AAMX_N@Z
; Line 128
	ldloca.s	4		; $S39$
	ldc.i4.s	82		; i32 0x52
	ldc.i4.s	63		; i32 0x3f
	call		??0Point@Drawing@System@@$$FQ$CAM@HH@Z
	ldarg.0				; this$
	ldfld		?labelCopyRight@WDVerDialog@WordDic@@3P$AAVLabel@Forms@Windows@System@@$AA
	ldloc.s		4		; $S39$
	call		?set@Location@Control@Forms@Windows@System@@$$FQ$AAMXVPoint@Drawing@5@@Z
; Line 129
	ldarg.0				; this$
	ldfld		?labelCopyRight@WDVerDialog@WordDic@@3P$AAVLabel@Forms@Windows@System@@$AA
	ldstr		$StringLiteralTok$??_C@_1BO@GLOBCFBK@?$AAl?$AAa?$AAb?$AAe?$AAl?$AAC?$AAo?$AAp?$AAy?$AAR?$AAi?$AAg?$AAh?$AAt?$AA?$AA@
	call		?set@Name@Control@Forms@Windows@System@@$$FQ$AAMXP$AAVString@5@@Z
; Line 130
	ldloca.s	3		; $S40$
	ldc.i4		206		; i32 0xce
	ldc.i4.s	12		; i32 0xc
	call		??0Size@Drawing@System@@$$FQ$CAM@HH@Z
	ldarg.0				; this$
	ldfld		?labelCopyRight@WDVerDialog@WordDic@@3P$AAVLabel@Forms@Windows@System@@$AA
	ldloc.3				; $S40$
	call		?set@Size@Control@Forms@Windows@System@@$$FQ$AAMXV1Drawing@5@@Z
; Line 131
	ldarg.0				; this$
	ldfld		?labelCopyRight@WDVerDialog@WordDic@@3P$AAVLabel@Forms@Windows@System@@$AA
	ldc.i.4		4		; i32 0x4
	call		?set@TabIndex@Control@Forms@Windows@System@@$$FQ$AAMXH@Z
; Line 132
	ldarg.0				; this$
	ldfld		?labelCopyRight@WDVerDialog@WordDic@@3P$AAVLabel@Forms@Windows@System@@$AA
	ldstr		$StringLiteralTok$??_C@_1DM@IPJEHKGP@?$AAC?$AAo?$AAp?$AAy?$AAR?$AAi?$AAg?$AAh?$AAt?$AA?$CI?$AAc?$AA?$CJ0?$AA?$AA2?$AA0?$AA0?$AA7?$AA?9?$AA2?$AA0?$AA1?$AA00?$AA?$IF?dN?$JF0?$AAQC?$JG?D0?$AA?$AA?$AA@
	callvirt	?set@Text@Label@Forms@Windows@System@@$$FU$AAMXP$AAVString@5@@Z
; Line 136
	ldarg.0				; this$
	dup		
	ldfld		?buttonOK@WDVerDialog@WordDic@@3P$AAVButton@Forms@Windows@System@@$AA
	call		?set@AcceptButton@Form@Forms@Windows@System@@$$FQ$AAMXP$AAUIButtonControl@345@@Z
; Line 137
	ldarg.0				; this$
	ldc.i4.s	18		; i32 0x12
	call		?set@AccessibleRole@Control@Forms@Windows@System@@$$FQ$AAMXW41345@@Z
; Line 138
	ldloca.s	2		; $S41$
	ldc.r4		6.000000
	ldc.r4		12.000000
	call		??0SizeF@Drawing@System@@$$FQ$CAM@MM@Z
	ldarg.0				; this$
	ldloc.2				; $S41$
	call		?set@AutoScaleDimensions@ContainerControl@Forms@Windows@System@@$$FQ$AAMXVSizeF@Drawing@5@@Z
; Line 139
	ldarg.0				; this$
	ldc.i.1		1		; i32 0x1
	call		?set@AutoScaleMode@ContainerControl@Forms@Windows@System@@$$FQ$AAMXW41345@@Z
; Line 140
	ldloca.s	1		; $S42$
	ldc.i4		304		; i32 0x130
	ldc.i4		156		; i32 0x9c
	call		??0Size@Drawing@System@@$$FQ$CAM@HH@Z
	ldarg.0				; this$
	ldloc.1				; $S42$
	call		?set@ClientSize@Form@Forms@Windows@System@@$$FQ$AAMXVSize@Drawing@5@@Z
; Line 141
	ldarg.0				; this$
	call		?get@Controls@Control@Forms@Windows@System@@$$FQ$AAMP$AAVControlCollection@2345@XZ
	ldarg.0				; this$
	ldfld		?labelCopyRight@WDVerDialog@WordDic@@3P$AAVLabel@Forms@Windows@System@@$AA
	callvirt	?Add@ControlCollection@Control@Forms@Windows@System@@$$FU$AAMXP$AAV2345@@Z
; Line 142
	ldarg.0				; this$
	call		?get@Controls@Control@Forms@Windows@System@@$$FQ$AAMP$AAVControlCollection@2345@XZ
	ldarg.0				; this$
	ldfld		?labelVersion@WDVerDialog@WordDic@@3P$AAVLabel@Forms@Windows@System@@$AA
	callvirt	?Add@ControlCollection@Control@Forms@Windows@System@@$$FU$AAMXP$AAV2345@@Z
; Line 143
	ldarg.0				; this$
	call		?get@Controls@Control@Forms@Windows@System@@$$FQ$AAMP$AAVControlCollection@2345@XZ
	ldarg.0				; this$
	ldfld		?labelWordDic@WDVerDialog@WordDic@@3P$AAVLabel@Forms@Windows@System@@$AA
	callvirt	?Add@ControlCollection@Control@Forms@Windows@System@@$$FU$AAMXP$AAV2345@@Z
; Line 144
	ldarg.0				; this$
	call		?get@Controls@Control@Forms@Windows@System@@$$FQ$AAMP$AAVControlCollection@2345@XZ
	ldarg.0				; this$
	ldfld		?pictureBoxIcon@WDVerDialog@WordDic@@3P$AAVPictureBox@Forms@Windows@System@@$AA
	callvirt	?Add@ControlCollection@Control@Forms@Windows@System@@$$FU$AAMXP$AAV2345@@Z
; Line 145
	ldarg.0				; this$
	call		?get@Controls@Control@Forms@Windows@System@@$$FQ$AAMP$AAVControlCollection@2345@XZ
	ldarg.0				; this$
	ldfld		?buttonOK@WDVerDialog@WordDic@@3P$AAVButton@Forms@Windows@System@@$AA
	callvirt	?Add@ControlCollection@Control@Forms@Windows@System@@$$FU$AAMXP$AAV2345@@Z
; Line 146
	ldarg.0				; this$
	ldc.i.3		3		; i32 0x3
	call		?set@FormBorderStyle@Form@Forms@Windows@System@@$$FQ$AAMXW41345@@Z
; Line 147
	ldarg.0				; this$
	ldloc.0				; resources$
	ldstr		$StringLiteralTok$??_C@_1BG@GPPJDCEN@?$AA$?$AAt?$AAh?$AAi?$AAs?$AA?4?$AAI?$AAc?$AAo?$AAn?$AA?$AA@
	callvirt	?GetObject@ResourceManager@Resources@System@@$$FU$AAMP$AAVObject@3@P$AAVString@3@@Z
	castClass	$TypeTok$1133D2B8$
	call		?set@Icon@Form@Forms@Windows@System@@$$FQ$AAMXP$AAV1Drawing@5@@Z
; Line 148
	ldarg.0				; this$
	ldc.i.0		0		; u8 0x0
	call		?set@MaximizeBox@Form@Forms@Windows@System@@$$FQ$AAMX_N@Z
; Line 149
	ldarg.0				; this$
	ldc.i.0		0		; u8 0x0
	call		?set@MinimizeBox@Form@Forms@Windows@System@@$$FQ$AAMX_N@Z
; Line 150
	ldarg.0				; this$
	ldstr		$StringLiteralTok$??_C@_1BI@KDEIBIDA@?$AAW?$AAD?$AAV?$AAe?$AAr?$AAD?$AAi?$AAa?$AAl?$AAo?$AAg?$AA?$AA@
	call		?set@Name@Control@Forms@Windows@System@@$$FQ$AAMXP$AAVString@5@@Z
; Line 151
	ldarg.0				; this$
	ldc.i.1		1		; u8 0x1
	callvirt	?set@RightToLeftLayout@Form@Forms@Windows@System@@$$FU$AAMX_N@Z
; Line 152
	ldarg.0				; this$
	ldc.i.0		0		; u8 0x0
	call		?set@ShowInTaskbar@Form@Forms@Windows@System@@$$FQ$AAMX_N@Z
; Line 153
	ldarg.0				; this$
	ldc.i.2		2		; i32 0x2
	call		?set@SizeGripStyle@Form@Forms@Windows@System@@$$FQ$AAMXW41345@@Z
; Line 154
	ldarg.0				; this$
	ldstr		$StringLiteralTok$??_C@_1BO@KAJFOHLM@0S0h0p0n?$IP?$JOQx0?$AA0?P0?$PM0?$LI0?g0?s?$GA?EX1?$AA?$AA@
	callvirt	?set@Text@Form@Forms@Windows@System@@$$FU$AAMXP$AAVString@5@@Z
; Line 155
	ldarg.0				; this$
	ldfld		?pictureBoxIcon@WDVerDialog@WordDic@@3P$AAVPictureBox@Forms@Windows@System@@$AA
	callvirt	?EndInit@ISupportInitialize@ComponentModel@System@@$$FU$AAMXXZ
; Line 156
	ldarg.0				; this$
	ldc.i.0		0		; u8 0x0
	call		?ResumeLayout@Control@Forms@Windows@System@@$$FQ$AAMX_N@Z
; Line 157
	ldarg.0				; this$
	call		?PerformLayout@Control@Forms@Windows@System@@$$FQ$AAMXXZ
; Line 159
	ret		
 .end ?InitializeComponent@WDVerDialog@WordDic@@$$FA$AAMXXZ ; WordDic::WDVerDialog::InitializeComponent
;	.proc.end.void
; Function compile flags: /Ogtp
	.text
	.comdat	any, ?<Dispose>@WDVerDialog@WordDic@@$$FM$AAMX_N@Z
.global	?<Dispose>@WDVerDialog@WordDic@@$$FM$AAMX_N@Z	; WordDic::WDVerDialog::<Dispose>
?<Dispose>@WDVerDialog@WordDic@@$$FM$AAMX_N@Z:		; WordDic::WDVerDialog::<Dispose>
;	.proc.def	D:V(I)

; Function Header:
; max stack depth = 2
; function size = 27 bytes
; local varsig tk = 0x0 
; Exception Information:
; 1 handlers, each consisting of filtered handlers

;	.formal.mptr 0,"this$" SIG: Optional C Binding Modifier(token:0x2FC31B1).class (token:0x2FC31B4)
;	.formal.u1 1,"disposing$" SIG: bool

;	.proc.beg
	ldarg.1				; disposing$
	brfalse.s	$LN3@
$LN13@:
	ldarg.0				; this$
	call		??1WDVerDialog@WordDic@@$$FA$AAM@XZ
$LN2@:
	leave.s		$LN12@
$LN7@:
	ldarg.0				; this$
	ldc.i.1		1		; u8 0x1
	call		?<Dispose>@Form@Forms@Windows@System@@$$FM$AAMX_N@Z
$LN9@:
	endfinally	
$LN3@:
	ldarg.0				; this$
	ldc.i.0		0		; u8 0x0
	call		?<Dispose>@Form@Forms@Windows@System@@$$FM$AAMX_N@Z
$LN12@:
	ret		
 .end ?<Dispose>@WDVerDialog@WordDic@@$$FM$AAMX_N@Z	; WordDic::WDVerDialog::<Dispose>
;	.proc.end.void
; Function compile flags: /Ogtp
	.text
	.comdat	any, ??0WordDicCfg@WordDic@@$$FQ$AAM@XZ
.global	??0WordDicCfg@WordDic@@$$FQ$AAM@XZ		; WordDic::WordDicCfg::WordDicCfg
??0WordDicCfg@WordDic@@$$FQ$AAM@XZ:			; WordDic::WordDicCfg::WordDicCfg
;	.proc.def	D:V()

; Function Header:
; max stack depth = 1
; function size = 7 bytes
; local varsig tk = 0x0 
; Exception Information:
; 0 handlers, each consisting of filtered handlers

;	.formal.mptr 0,"this$" SIG: Optional C Binding Modifier(token:0x2FB8819).class (token:0x2FB881C)

;	.proc.beg
	ldarg.0				; this$
	call		??0Object@System@@$$FQ$AAM@XZ
	ret		
 .end ??0WordDicCfg@WordDic@@$$FQ$AAM@XZ		; WordDic::WordDicCfg::WordDicCfg
;	.proc.end.void
; Function compile flags: /Ogtp
	.text
	.comdat	any, ??0WDWordComparer@WordDic@@$$FQ$AAM@XZ
.global	??0WDWordComparer@WordDic@@$$FQ$AAM@XZ		; WordDic::WDWordComparer::WDWordComparer
??0WDWordComparer@WordDic@@$$FQ$AAM@XZ:			; WordDic::WDWordComparer::WDWordComparer
;	.proc.def	D:V()

; Function Header:
; max stack depth = 1
; function size = 7 bytes
; local varsig tk = 0x0 
; Exception Information:
; 0 handlers, each consisting of filtered handlers

;	.formal.mptr 0,"this$" SIG: Optional C Binding Modifier(token:0x73B6A9).class (token:0x73B6AC)

;	.proc.beg
	ldarg.0				; this$
	call		??0Object@System@@$$FQ$AAM@XZ
	ret		
 .end ??0WDWordComparer@WordDic@@$$FQ$AAM@XZ		; WordDic::WDWordComparer::WDWordComparer
;	.proc.end.void
; Function compile flags: /Ogtp
	.text
	.comdat	any, ??0WDMeanComparer@WordDic@@$$FQ$AAM@XZ
.global	??0WDMeanComparer@WordDic@@$$FQ$AAM@XZ		; WordDic::WDMeanComparer::WDMeanComparer
??0WDMeanComparer@WordDic@@$$FQ$AAM@XZ:			; WordDic::WDMeanComparer::WDMeanComparer
;	.proc.def	D:V()

; Function Header:
; max stack depth = 1
; function size = 7 bytes
; local varsig tk = 0x0 
; Exception Information:
; 0 handlers, each consisting of filtered handlers

;	.formal.mptr 0,"this$" SIG: Optional C Binding Modifier(token:0x738B65).class (token:0x738B68)

;	.proc.beg
	ldarg.0				; this$
	call		??0Object@System@@$$FQ$AAM@XZ
	ret		
 .end ??0WDMeanComparer@WordDic@@$$FQ$AAM@XZ		; WordDic::WDMeanComparer::WDMeanComparer
;	.proc.end.void
; Function compile flags: /Ogtp
	.text
	.comdat	any, ??0WDTransComparer@WordDic@@$$FQ$AAM@XZ
.global	??0WDTransComparer@WordDic@@$$FQ$AAM@XZ		; WordDic::WDTransComparer::WDTransComparer
??0WDTransComparer@WordDic@@$$FQ$AAM@XZ:		; WordDic::WDTransComparer::WDTransComparer
;	.proc.def	D:V()

; Function Header:
; max stack depth = 1
; function size = 7 bytes
; local varsig tk = 0x0 
; Exception Information:
; 0 handlers, each consisting of filtered handlers

;	.formal.mptr 0,"this$" SIG: Optional C Binding Modifier(token:0x73596D).class (token:0x735970)

;	.proc.beg
	ldarg.0				; this$
	call		??0Object@System@@$$FQ$AAM@XZ
	ret		
 .end ??0WDTransComparer@WordDic@@$$FQ$AAM@XZ		; WordDic::WDTransComparer::WDTransComparer
;	.proc.end.void
; Function compile flags: /Ogtp
	.text
	.comdat	any, ??0WDRelationComparer@WordDic@@$$FQ$AAM@XZ
.global	??0WDRelationComparer@WordDic@@$$FQ$AAM@XZ	; WordDic::WDRelationComparer::WDRelationComparer
??0WDRelationComparer@WordDic@@$$FQ$AAM@XZ:		; WordDic::WDRelationComparer::WDRelationComparer
;	.proc.def	D:V()

; Function Header:
; max stack depth = 1
; function size = 7 bytes
; local varsig tk = 0x0 
; Exception Information:
; 0 handlers, each consisting of filtered handlers

;	.formal.mptr 0,"this$" SIG: Optional C Binding Modifier(token:0x2FC24B9).class (token:0x2FC24BC)

;	.proc.beg
	ldarg.0				; this$
	call		??0Object@System@@$$FQ$AAM@XZ
	ret		
 .end ??0WDRelationComparer@WordDic@@$$FQ$AAM@XZ	; WordDic::WDRelationComparer::WDRelationComparer
;	.proc.end.void
; Function compile flags: /Ogtp
	.text
	.comdat	any, ?<Dispose>@WDWordGrp@WordDic@@$$FM$AAMX_N@Z
.global	?<Dispose>@WDWordGrp@WordDic@@$$FM$AAMX_N@Z	; WordDic::WDWordGrp::<Dispose>
?<Dispose>@WDWordGrp@WordDic@@$$FM$AAMX_N@Z:		; WordDic::WDWordGrp::<Dispose>
;	.proc.def	D:V(I)

; Function Header:
; max stack depth = 1
; function size = 18 bytes
; local varsig tk = 0x0 
; Exception Information:
; 0 handlers, each consisting of filtered handlers

;	.formal.mptr 0,"this$" SIG: Optional C Binding Modifier(token:0x2FB8E65).class (token:0x2FB8E68)
;	.formal.u1 1,"disposing$" SIG: bool

;	.proc.beg
	ldarg.1				; disposing$
	brfalse.s	$LN2@
	ldarg.0				; this$
	call		??1WDWordGrp@WordDic@@$$FA$AAM@XZ
	br.s		$LN1@
$LN2@:
	ldarg.0				; this$
	call		?<Finalize>@Object@System@@$$FM$AAMXXZ
$LN1@:
	ret		
 .end ?<Dispose>@WDWordGrp@WordDic@@$$FM$AAMX_N@Z	; WordDic::WDWordGrp::<Dispose>
;	.proc.end.void
.global	?WDRelationComp@WDWordGrp@WordDic@@0P$AAVWDRelationComparer@2@$AA ; WordDic::WDWordGrp::WDRelationComp
.global	?WDTransComp@WDWordGrp@WordDic@@0P$AAVWDTransComparer@2@$AA ; WordDic::WDWordGrp::WDTransComp
.global	?WDMeanComp@WDWordGrp@WordDic@@0P$AAVWDMeanComparer@2@$AA ; WordDic::WDWordGrp::WDMeanComp
.global	?WDWordComp@WDWordGrp@WordDic@@0P$AAVWDWordComparer@2@$AA ; WordDic::WDWordGrp::WDWordComp
	.bss
.local	?WDRelationComp@WDWordGrp@WordDic@@0P$AAVWDRelationComparer@2@$AA,4 ; WordDic::WDWordGrp::WDRelationComp
.local	?WDTransComp@WDWordGrp@WordDic@@0P$AAVWDTransComparer@2@$AA,4 ; WordDic::WDWordGrp::WDTransComp
.local	?WDMeanComp@WDWordGrp@WordDic@@0P$AAVWDMeanComparer@2@$AA,4 ; WordDic::WDWordGrp::WDMeanComp
.local	?WDWordComp@WDWordGrp@WordDic@@0P$AAVWDWordComparer@2@$AA,4 ; WordDic::WDWordGrp::WDWordComp
; Function compile flags: /Ogtp
	.text
	.comdat	any, ?.cctor@WDWordGrp@WordDic@@$$FSMXXZ
.global	?.cctor@WDWordGrp@WordDic@@$$FSMXXZ		; ?.cctor@WDWordGrp@WordDic@@$$FSMXXZ
?.cctor@WDWordGrp@WordDic@@$$FSMXXZ:			; ?.cctor@WDWordGrp@WordDic@@$$FSMXXZ
;	.proc.def	D:V()

; Function Header:
; max stack depth = 1
; function size = 25 bytes
; local varsig tk = 0x0 
; Exception Information:
; 0 handlers, each consisting of filtered handlers


;	.proc.beg
	ldnull		0		; i32 0x0
	stsfld		?WDWordComp@WDWordGrp@WordDic@@0P$AAVWDWordComparer@2@$AA
	ldnull		0		; i32 0x0
	stsfld		?WDMeanComp@WDWordGrp@WordDic@@0P$AAVWDMeanComparer@2@$AA
	ldnull		0		; i32 0x0
	stsfld		?WDTransComp@WDWordGrp@WordDic@@0P$AAVWDTransComparer@2@$AA
	ldnull		0		; i32 0x0
	stsfld		?WDRelationComp@WDWordGrp@WordDic@@0P$AAVWDRelationComparer@2@$AA
	ret		
 .end ?.cctor@WDWordGrp@WordDic@@$$FSMXXZ		; ?.cctor@WDWordGrp@WordDic@@$$FSMXXZ
;	.proc.end.void
; Function compile flags: /Ogtp
	.text
	.comdat	any, ??0WDWordSchListComparer@WordDic@@$$FQ$AAM@XZ
.global	??0WDWordSchListComparer@WordDic@@$$FQ$AAM@XZ	; WordDic::WDWordSchListComparer::WDWordSchListComparer
??0WDWordSchListComparer@WordDic@@$$FQ$AAM@XZ:		; WordDic::WDWordSchListComparer::WDWordSchListComparer
;	.proc.def	D:V()

; Function Header:
; max stack depth = 1
; function size = 7 bytes
; local varsig tk = 0x0 
; Exception Information:
; 0 handlers, each consisting of filtered handlers

;	.formal.mptr 0,"this$" SIG: Optional C Binding Modifier(token:0x2FC2279).class (token:0x2FC227C)

;	.proc.beg
	ldarg.0				; this$
	call		??0Object@System@@$$FQ$AAM@XZ
	ret		
 .end ??0WDWordSchListComparer@WordDic@@$$FQ$AAM@XZ	; WordDic::WDWordSchListComparer::WDWordSchListComparer
;	.proc.end.void
.global	?schGrp@WDWordSchListComparer@WordDic@@2HA	; WordDic::WDWordSchListComparer::schGrp
.global	?schWord@WDWordSchListComparer@WordDic@@2HA	; WordDic::WDWordSchListComparer::schWord
	.bss
.local	?schGrp@WDWordSchListComparer@WordDic@@2HA,4	; WordDic::WDWordSchListComparer::schGrp
.local	?schWord@WDWordSchListComparer@WordDic@@2HA,4	; WordDic::WDWordSchListComparer::schWord
; Function compile flags: /Ogtp
	.text
	.comdat	any, ?.cctor@WDWordSchListComparer@WordDic@@$$FSMXXZ
.global	?.cctor@WDWordSchListComparer@WordDic@@$$FSMXXZ	; ?.cctor@WDWordSchListComparer@WordDic@@$$FSMXXZ
?.cctor@WDWordSchListComparer@WordDic@@$$FSMXXZ:	; ?.cctor@WDWordSchListComparer@WordDic@@$$FSMXXZ
;	.proc.def	D:V()

; Function Header:
; max stack depth = 1
; function size = 13 bytes
; local varsig tk = 0x0 
; Exception Information:
; 0 handlers, each consisting of filtered handlers


;	.proc.beg
	ldc.i.0		0		; i32 0x0
	stsfld		?schWord@WDWordSchListComparer@WordDic@@2HA
	ldc.i.1		1		; i32 0x1
	stsfld		?schGrp@WDWordSchListComparer@WordDic@@2HA
	ret		
 .end ?.cctor@WDWordSchListComparer@WordDic@@$$FSMXXZ	; ?.cctor@WDWordSchListComparer@WordDic@@$$FSMXXZ
;	.proc.end.void
; Function compile flags: /Ogtp
	.text
	.comdat	any, ?<Dispose>@Form1@WordDic@@$$FM$AAMX_N@Z
.global	?<Dispose>@Form1@WordDic@@$$FM$AAMX_N@Z		; WordDic::Form1::<Dispose>
?<Dispose>@Form1@WordDic@@$$FM$AAMX_N@Z:		; WordDic::Form1::<Dispose>
;	.proc.def	D:V(I)

; Function Header:
; max stack depth = 2
; function size = 27 bytes
; local varsig tk = 0x0 
; Exception Information:
; 1 handlers, each consisting of filtered handlers

;	.formal.mptr 0,"this$" SIG: Optional C Binding Modifier(token:0x749271).class (token:0x749274)
;	.formal.u1 1,"disposing$" SIG: bool

;	.proc.beg
	ldarg.1				; disposing$
	brfalse.s	$LN3@
$LN13@:
	ldarg.0				; this$
	call		??1Form1@WordDic@@$$FA$AAM@XZ
$LN2@:
	leave.s		$LN12@
$LN7@:
	ldarg.0				; this$
	ldc.i.1		1		; u8 0x1
	call		?<Dispose>@Form@Forms@Windows@System@@$$FM$AAMX_N@Z
$LN9@:
	endfinally	
$LN3@:
	ldarg.0				; this$
	ldc.i.0		0		; u8 0x0
	call		?<Dispose>@Form@Forms@Windows@System@@$$FM$AAMX_N@Z
$LN12@:
	ret		
 .end ?<Dispose>@Form1@WordDic@@$$FM$AAMX_N@Z		; WordDic::Form1::<Dispose>
;	.proc.end.void
	.bss
.local	$T36783,0
.local	$StringLiteralTok$??_C@_1BI@LJPGHHMA@?$AA?$CI?$HP?$PL?$IK3?$IK?$JO0LN?$ANf?$AO0g0Y0?$AC?$AA?$CJ?$AA?$AA@,4
.local	$StringLiteralTok$??_C@_1CG@NFJJHPKL@?$HP?$PL?$IK3?$IK?$JOi?$BM?$HN?$CCfB0k0?$KI0?i0?$PM0Lvzu?$BP0W0?$HO0W0_0?$AC?$AA?$AA@,4
.local	$StringLiteralTok$??_C@_1BG@PJGFPFKC@?$HP?$PL?$IK3?$AAI?$AAD0LN?$ANkc0g0Y0?$AC?$AA?$AA@,4
; Function compile flags: /Ogtp
	.text
	.comdat	noduplicate, ?getTransWordA@Form1@WordDic@@$$FA$AAMP$AAVString@System@@H@Z
.global	?getTransWordA@Form1@WordDic@@$$FA$AAMP$AAVString@System@@H@Z ; WordDic::Form1::getTransWordA
?getTransWordA@Form1@WordDic@@$$FA$AAMP$AAVString@System@@H@Z: ; WordDic::Form1::getTransWordA
;	.proc.def	D:P(I)

; Function Header:
; max stack depth = 4
; function size = 373 bytes
; local varsig tk = 0x11000006 
; Exception Information:
; 3 handlers, each consisting of filtered handlers

;	.formal.mptr 0,"this$" SIG: Optional C Binding Modifier(token:0x749271).class (token:0x749274)
;	.formal.i4 1,"inWordID$" SIG: i4
;	.local.mptr 4,"tmpWordDicException$36312" SIG: class (token:0x74161D)
;	.local.mptr 8,"exp$36311" SIG: class (token:0x2FC21ED)
;	.local.mptr 12,"$T36310" SIG: class (token:0x2FB9919)
;	.local.mptr 13,"$T36309" SIG: class (token:0x7389E5)
;	.local.mptr 14,"$T36308" SIG: class (token:0x2FB9919)
;	.local.mptr 15,"$T36307" SIG: class (token:0x741A49)
;	.local.mptr 2,"tmpOldRecord$" SIG: class (token:0x741A49)
;	.local.mptr 9,"tmpWordID$" SIG: szarray (token:0x749C75)
;	.local.mptr 5,"tmpWordDicException$36294" SIG: class (token:0x74161D)
;	.local.mptr 10,"exp$36293" SIG: class (token:0x2FC21ED)
;	.local.mptr 11,"$T36781" SIG: string
;	.local.mptr 3,"tmpWDWordGrp$36290" SIG: class (token:0x73BD75)
;	.local.mb16  16,"$S52$36285" SIG: genericInst (token:0x1000048) <class (token:0x2FB7C36)>
;	.local.mptr 6,"tmpWordDicException$36281" SIG: class (token:0x74161D)
;	.local.mptr 7,"rtString$" SIG: string
;	.local.mptr 1,"tmpRecord$" SIG: class (token:0x741A49)
;	.local.mptr 0,"tmpWord$" SIG: class (token:0x7389E5)

;	.proc.beg
; File c:\users\amotoo\documents\myproject\worddicbt\worddic\worddicdisp.cpp
; Line 1250
	ldnull		0		; i32 0x0
	stloc.0				; tmpWord$
	ldnull		0		; i32 0x0
	stloc.1				; tmpRecord$
	ldnull		0		; i32 0x0
	stloc.s		7		; rtString$
; Line 1257
	ldarg.1				; inWordID$
	ldc.i.0		0		; i32 0x0
	bgt.s		$LN16@getTransWo
; Line 1259
	ldstr		$StringLiteralTok$??_C@_1BG@PJGFPFKC@?$HP?$PL?$IK3?$AAI?$AAD0LN?$ANkc0g0Y0?$AC?$AA?$AA@
	newobj		??0WordDicException@WordDic@@$$FQ$AAM@P$AAVString@System@@@Z
	stloc.s		6		; tmpWordDicException$36281
; Line 1260
	ldloc.s		6		; tmpWordDicException$36281
	ldc.i4		31307		; i32 0x7a4b
	stfld		?ErrorCode@WordDicException@WordDic@@3HA
; Line 1261
	ldloc.s		6		; tmpWordDicException$36281
	ldc.i.1		1		; i32 0x1
	stfld		?ErrorCode2@WordDicException@WordDic@@3HA
; Line 1262
	ldloc.s		6		; tmpWordDicException$36281
	throw.u2	
$LN16@getTransWo:
	nop		
$LN51@getTransWo:
; Line 1268
	ldarg.0				; this$
	ldfld		?ReadedWordList@Form1@WordDic@@3P$AAV?$List@P$AAVWDWordGrp@WordDic@@@Generic@Collections@System@@$AA
	call		?GetEnumerator@?$List@P$AAVWDWordGrp@WordDic@@@Generic@Collections@System@@$$FQ$AAM?AVEnumerator@1234@XZ
	stloc.s		16		; $S52$36285
$LL14@getTransWo:
	ldloca.s	16		; $S52$36285
	call		?MoveNext@Enumerator@?$List@P$AAVWDWordGrp@WordDic@@@Generic@Collections@System@@$$FU$CAM_NXZ
	brfalse.s	$LN13@getTransWo
	ldloca.s	16		; $S52$36285
	call		?get@Current@Enumerator@?$List@P$AAVWDWordGrp@WordDic@@@Generic@Collections@System@@$$FU$CAMP$AAVWDWordGrp@WordDic@@XZ
	stloc.3				; tmpWDWordGrp$36290
; Line 1271
	ldloc.3				; tmpWDWordGrp$36290
	call		?getWordID@WDWordGrp@WordDic@@$$FQ$AAMHXZ
	ldarg.1				; inWordID$
	bne.un.s	$LN12@getTransWo
	ldloc.3				; tmpWDWordGrp$36290
	call		?getSchLang@WDWordGrp@WordDic@@$$FQ$AAMHXZ
	ldc.i.2		2		; i32 0x2
	bne.un.s	$LN12@getTransWo
; Line 1273
	ldloc.3				; tmpWDWordGrp$36290
	call		?getBaseWord@WDWordGrp@WordDic@@$$FQ$AAMP$AAVWDWord@WDDatas@@XZ
	stloc.0				; tmpWord$
; Line 1275
	ldloc.0				; tmpWord$
	brtrue.s	$LN11@getTransWo
; Line 1277
	ldloc.3				; tmpWDWordGrp$36290
	ldc.i.0		0		; i32 0x0
	call		?getWord@WDWordGrp@WordDic@@$$FQ$AAMP$AAVWDWord@WDDatas@@H@Z
	stloc.0				; tmpWord$
$LN11@getTransWo:
; Line 1280
	ldloc.0				; tmpWord$
	ldnull		0		; i32 0x0
	call		?getWord@WDWord@WDDatas@@$$FQ$AAMP$AAVString@System@@P$AAV34@@Z
; Line 1338
	stloc.s		11		; $T36781
	leave		$LN54@getTransWo
$LN12@getTransWo:
; Line 1283
	br.s		$LL14@getTransWo
$LN13@getTransWo:
	leave.s		$LN27@getTransWo
__catch$?getTransWordA@Form1@WordDic@@$$FA$AAMP$AAVString@System@@H@Z$0:
; Line 1285
	imp.push	
	stloc.s		10		; exp$36293
; Line 1286
	ldstr		$StringLiteralTok$??_C@_1CG@NFJJHPKL@?$HP?$PL?$IK3?$IK?$JOi?$BM?$HN?$CCfB0k0?$KI0?i0?$PM0Lvzu?$BP0W0?$HO0W0_0?$AC?$AA?$AA@
	ldloc.s		10		; exp$36293
	newobj		??0WordDicException@WordDic@@$$FQ$AAM@P$AAVString@System@@P$AAVException@3@@Z
	stloc.s		5		; tmpWordDicException$36294
; Line 1287
	ldloc.s		5		; tmpWordDicException$36294
	ldc.i4		31307		; i32 0x7a4b
	stfld		?ErrorCode@WordDicException@WordDic@@3HA
; Line 1288
	ldloc.s		5		; tmpWordDicException$36294
	ldc.i.2		2		; i32 0x2
	stfld		?ErrorCode2@WordDicException@WordDic@@3HA
; Line 1289
	ldloc.s		5		; tmpWordDicException$36294
	throw.u2	
$LN36@getTransWo:
	leave.s		$LN27@getTransWo
$LN27@getTransWo:
	nop		
$LN52@getTransWo:
$LN53@getTransWo:
; Line 1296
	ldarg.1				; inWordID$
	ldnull		0		; i32 0x0
	ldc.i.0		0		; i32 0x0
	call		?Int32ToArray@FJIFuncs@FJIsam@@$$FSMP$01AEHP$01AEH@Z
	stloc.s		9		; tmpWordID$
; Line 1297
	ldarg.0				; this$
	ldfld		?WordFileB@Form1@WordDic@@3P$AAVFIsam@FJIsam@@$AA
	ldloc.s		9		; tmpWordID$
	ldc.i.2		2		; i32 0x2
	call		?ReadRecord@FIsam@FJIsam@@$$FQ$AAMP$AAVDataRecord@2@P$01AEH@Z
	stloc.1				; tmpRecord$
$LL9@getTransWo:
; Line 1300
	ldloc.1				; tmpRecord$
	brtrue.s	$LN7@getTransWo
; Line 1302
	ldstr		$StringLiteralTok$??_C@_1BI@LJPGHHMA@?$AA?$CI?$HP?$PL?$IK3?$IK?$JO0LN?$ANf?$AO0g0Y0?$AC?$AA?$CJ?$AA?$AA@
	stloc.s		7		; rtString$
; Line 1303
	br.s		$LN4@getTransWo
$LN7@getTransWo:
; Line 1306
	ldloc.1				; tmpRecord$
	newobj		??0WDWord@WDDatas@@$$FQ$AAM@P$AAVDataRecord@FJIsam@@@Z
	stloc.0				; tmpWord$
; Line 1307
	ldloc.0				; tmpWord$
	call		?getBaseFlg@WDWord@WDDatas@@$$FQ$AAM_NXZ
	ldc.i.1		1		; u8 0x1
	beq.s		$LN4@getTransWo
; Line 1312
	ldloc.1				; tmpRecord$
	call		?getEachKeyFlg@DataRecord@FJIsam@@$$FQ$AAMEXZ
	brfalse.s	$LN4@getTransWo
	ldloc.1				; tmpRecord$
	call		?getEachKeyFlg@DataRecord@FJIsam@@$$FQ$AAMEXZ
	ldc.i.3		3		; u8 0x3
	beq.s		$LN4@getTransWo
; Line 1316
	ldloc.1				; tmpRecord$
	stloc.2				; tmpOldRecord$
; Line 1317
	ldarg.0				; this$
	ldfld		?WordFileB@Form1@WordDic@@3P$AAVFIsam@FJIsam@@$AA
	ldloc.1				; tmpRecord$
	call		?NextRecord@FIsam@FJIsam@@$$FQ$AAMP$AAVDataRecord@2@P$AAV32@@Z
	stloc.1				; tmpRecord$
; Line 1318
	ldloc.2				; tmpOldRecord$
	stloc.s		15		; $T36307
	ldloc.2				; tmpOldRecord$
	stloc.s		14		; $T36308
	ldloc.2				; tmpOldRecord$
	brfalse.s	$LN19@getTransWo
	ldloc.2				; tmpOldRecord$
	callvirt	?<Dispose>@IDisposable@System@@$$FU$AAMXXZ
$LN19@getTransWo:
; Line 1319
	ldloc.0				; tmpWord$
	stloc.s		13		; $T36309
	ldloc.0				; tmpWord$
	stloc.s		12		; $T36310
	ldloc.0				; tmpWord$
	brfalse.s	$LN21@getTransWo
	ldloc.0				; tmpWord$
	callvirt	?<Dispose>@IDisposable@System@@$$FU$AAMXXZ
$LN21@getTransWo:
; Line 1320
	br.s		$LL9@getTransWo
$LN4@getTransWo:
; Line 1322
	ldloc.0				; tmpWord$
	ldnull		0		; i32 0x0
	call		?getWord@WDWord@WDDatas@@$$FQ$AAMP$AAVString@System@@P$AAV34@@Z
	stloc.s		7		; rtString$
	leave.s		$LN30@getTransWo
__catch$?getTransWordA@Form1@WordDic@@$$FA$AAMP$AAVString@System@@H@Z$2:
; Line 1324
	imp.push	
	stloc.s		8		; exp$36311
; Line 1325
	ldstr		$StringLiteralTok$??_C@_1CG@NFJJHPKL@?$HP?$PL?$IK3?$IK?$JOi?$BM?$HN?$CCfB0k0?$KI0?i0?$PM0Lvzu?$BP0W0?$HO0W0_0?$AC?$AA?$AA@
	ldloc.s		8		; exp$36311
	newobj		??0WordDicException@WordDic@@$$FQ$AAM@P$AAVString@System@@P$AAVException@3@@Z
	stloc.s		4		; tmpWordDicException$36312
; Line 1326
	ldloc.s		4		; tmpWordDicException$36312
	ldc.i4		31307		; i32 0x7a4b
	stfld		?ErrorCode@WordDicException@WordDic@@3HA
; Line 1327
	ldloc.s		4		; tmpWordDicException$36312
	ldc.i.3		3		; i32 0x3
	stfld		?ErrorCode2@WordDicException@WordDic@@3HA
; Line 1328
	ldloc.s		4		; tmpWordDicException$36312
	throw.u2	
$LN40@getTransWo:
	leave.s		$LN30@getTransWo
$LN30@getTransWo:
	br.s		$LN38@getTransWo
$LN39@getTransWo:
; Line 1330
	leave.s		__tryend$?getTransWordA@Form1@WordDic@@$$FA$AAMP$AAVString@System@@H@Z$4
$LN38@getTransWo:
	leave.s		__tryend$?getTransWordA@Form1@WordDic@@$$FA$AAMP$AAVString@System@@H@Z$4
__catch$?getTransWordA@Form1@WordDic@@$$FA$AAMP$AAVString@System@@H@Z$3:
; Line 1332
	ldloc.0				; tmpWord$
	brfalse.s	$LN23@getTransWo
	ldloc.0				; tmpWord$
	callvirt	?<Dispose>@IDisposable@System@@$$FU$AAMXXZ
$LN23@getTransWo:
; Line 1333
	ldloc.1				; tmpRecord$
	brfalse.s	$LN25@getTransWo
	ldloc.1				; tmpRecord$
	callvirt	?<Dispose>@IDisposable@System@@$$FU$AAMXXZ
$LN25@getTransWo:
; Line 1334
	endfinally	
__tryend$?getTransWordA@Form1@WordDic@@$$FA$AAMP$AAVString@System@@H@Z$4:
; Line 1336
	ldloc.s		7		; rtString$
	ret		
$LN54@getTransWo:
; Line 1338
	ldloc.s		11		; $T36781
	ret		
 .end ?getTransWordA@Form1@WordDic@@$$FA$AAMP$AAVString@System@@H@Z ; WordDic::Form1::getTransWordA
;	.proc.end.mptr
	.bss
.local	$T36825,0
; Function compile flags: /Ogtp
	.text
	.comdat	noduplicate, ?getTransWordB@Form1@WordDic@@$$FA$AAMP$AAVString@System@@H@Z
.global	?getTransWordB@Form1@WordDic@@$$FA$AAMP$AAVString@System@@H@Z ; WordDic::Form1::getTransWordB
?getTransWordB@Form1@WordDic@@$$FA$AAMP$AAVString@System@@H@Z: ; WordDic::Form1::getTransWordB
;	.proc.def	D:P(I)

; Function Header:
; max stack depth = 4
; function size = 373 bytes
; local varsig tk = 0x11000006 
; Exception Information:
; 3 handlers, each consisting of filtered handlers

;	.formal.mptr 0,"this$" SIG: Optional C Binding Modifier(token:0x749271).class (token:0x749274)
;	.formal.i4 1,"inWordID$" SIG: i4
;	.local.mptr 4,"tmpWordDicException$36360" SIG: class (token:0x74161D)
;	.local.mptr 8,"exp$36359" SIG: class (token:0x2FC21ED)
;	.local.mptr 12,"$T36358" SIG: class (token:0x2FB9919)
;	.local.mptr 13,"$T36357" SIG: class (token:0x7389E5)
;	.local.mptr 14,"$T36356" SIG: class (token:0x2FB9919)
;	.local.mptr 15,"$T36355" SIG: class (token:0x741A49)
;	.local.mptr 2,"tmpOldRecord$" SIG: class (token:0x741A49)
;	.local.mptr 9,"tmpWordID$" SIG: szarray (token:0x749C75)
;	.local.mptr 5,"tmpWordDicException$36344" SIG: class (token:0x74161D)
;	.local.mptr 10,"exp$36343" SIG: class (token:0x2FC21ED)
;	.local.mptr 11,"$T36823" SIG: string
;	.local.mptr 3,"tmpWDWordGrp$36340" SIG: class (token:0x73BD75)
;	.local.mb16  16,"$S53$36335" SIG: genericInst (token:0x1000048) <class (token:0x2FB7C36)>
;	.local.mptr 6,"tmpWordDicException$36332" SIG: class (token:0x74161D)
;	.local.mptr 7,"rtString$" SIG: string
;	.local.mptr 1,"tmpRecord$" SIG: class (token:0x741A49)
;	.local.mptr 0,"tmpWord$" SIG: class (token:0x7389E5)

;	.proc.beg
; Line 1341
	ldnull		0		; i32 0x0
	stloc.0				; tmpWord$
	ldnull		0		; i32 0x0
	stloc.1				; tmpRecord$
	ldnull		0		; i32 0x0
	stloc.s		7		; rtString$
; Line 1348
	ldarg.1				; inWordID$
	ldc.i.0		0		; i32 0x0
	bgt.s		$LN16@getTransWo@2
; Line 1350
	ldstr		$StringLiteralTok$??_C@_1BG@PJGFPFKC@?$HP?$PL?$IK3?$AAI?$AAD0LN?$ANkc0g0Y0?$AC?$AA?$AA@
	newobj		??0WordDicException@WordDic@@$$FQ$AAM@P$AAVString@System@@@Z
	stloc.s		6		; tmpWordDicException$36332
; Line 1351
	ldloc.s		6		; tmpWordDicException$36332
	ldc.i4		31308		; i32 0x7a4c
	stfld		?ErrorCode@WordDicException@WordDic@@3HA
; Line 1352
	ldloc.s		6		; tmpWordDicException$36332
	ldc.i.1		1		; i32 0x1
	stfld		?ErrorCode2@WordDicException@WordDic@@3HA
; Line 1353
	ldloc.s		6		; tmpWordDicException$36332
	throw.u2	
$LN16@getTransWo@2:
	nop		
$LN51@getTransWo@2:
; Line 1359
	ldarg.0				; this$
	ldfld		?ReadedWordList@Form1@WordDic@@3P$AAV?$List@P$AAVWDWordGrp@WordDic@@@Generic@Collections@System@@$AA
	call		?GetEnumerator@?$List@P$AAVWDWordGrp@WordDic@@@Generic@Collections@System@@$$FQ$AAM?AVEnumerator@1234@XZ
	stloc.s		16		; $S53$36335
$LL14@getTransWo@2:
	ldloca.s	16		; $S53$36335
	call		?MoveNext@Enumerator@?$List@P$AAVWDWordGrp@WordDic@@@Generic@Collections@System@@$$FU$CAM_NXZ
	brfalse.s	$LN13@getTransWo@2
	ldloca.s	16		; $S53$36335
	call		?get@Current@Enumerator@?$List@P$AAVWDWordGrp@WordDic@@@Generic@Collections@System@@$$FU$CAMP$AAVWDWordGrp@WordDic@@XZ
	stloc.3				; tmpWDWordGrp$36340
; Line 1362
	ldloc.3				; tmpWDWordGrp$36340
	call		?getWordID@WDWordGrp@WordDic@@$$FQ$AAMHXZ
	ldarg.1				; inWordID$
	bne.un.s	$LN12@getTransWo@2
	ldloc.3				; tmpWDWordGrp$36340
	call		?getSchLang@WDWordGrp@WordDic@@$$FQ$AAMHXZ
	ldc.i.1		1		; i32 0x1
	bne.un.s	$LN12@getTransWo@2
; Line 1364
	ldloc.3				; tmpWDWordGrp$36340
	call		?getBaseWord@WDWordGrp@WordDic@@$$FQ$AAMP$AAVWDWord@WDDatas@@XZ
	stloc.0				; tmpWord$
; Line 1366
	ldloc.0				; tmpWord$
	brtrue.s	$LN11@getTransWo@2
; Line 1368
	ldloc.3				; tmpWDWordGrp$36340
	ldc.i.0		0		; i32 0x0
	call		?getWord@WDWordGrp@WordDic@@$$FQ$AAMP$AAVWDWord@WDDatas@@H@Z
	stloc.0				; tmpWord$
$LN11@getTransWo@2:
; Line 1371
	ldloc.0				; tmpWord$
	ldnull		0		; i32 0x0
	call		?getWord@WDWord@WDDatas@@$$FQ$AAMP$AAVString@System@@P$AAV34@@Z
; Line 1428
	stloc.s		11		; $T36823
	leave		$LN54@getTransWo@2
$LN12@getTransWo@2:
; Line 1374
	br.s		$LL14@getTransWo@2
$LN13@getTransWo@2:
	leave.s		$LN27@getTransWo@2
__catch$?getTransWordB@Form1@WordDic@@$$FA$AAMP$AAVString@System@@H@Z$0:
; Line 1376
	imp.push	
	stloc.s		10		; exp$36343
; Line 1377
	ldstr		$StringLiteralTok$??_C@_1CG@NFJJHPKL@?$HP?$PL?$IK3?$IK?$JOi?$BM?$HN?$CCfB0k0?$KI0?i0?$PM0Lvzu?$BP0W0?$HO0W0_0?$AC?$AA?$AA@
	ldloc.s		10		; exp$36343
	newobj		??0WordDicException@WordDic@@$$FQ$AAM@P$AAVString@System@@P$AAVException@3@@Z
	stloc.s		5		; tmpWordDicException$36344
; Line 1378
	ldloc.s		5		; tmpWordDicException$36344
	ldc.i4		31308		; i32 0x7a4c
	stfld		?ErrorCode@WordDicException@WordDic@@3HA
; Line 1379
	ldloc.s		5		; tmpWordDicException$36344
	ldc.i.2		2		; i32 0x2
	stfld		?ErrorCode2@WordDicException@WordDic@@3HA
; Line 1380
	ldloc.s		5		; tmpWordDicException$36344
	throw.u2	
$LN36@getTransWo@2:
	leave.s		$LN27@getTransWo@2
$LN27@getTransWo@2:
	nop		
$LN52@getTransWo@2:
$LN53@getTransWo@2:
; Line 1386
	ldarg.1				; inWordID$
	ldnull		0		; i32 0x0
	ldc.i.0		0		; i32 0x0
	call		?Int32ToArray@FJIFuncs@FJIsam@@$$FSMP$01AEHP$01AEH@Z
	stloc.s		9		; tmpWordID$
; Line 1387
	ldarg.0				; this$
	ldfld		?WordFileA@Form1@WordDic@@3P$AAVFIsam@FJIsam@@$AA
	ldloc.s		9		; tmpWordID$
	ldc.i.2		2		; i32 0x2
	call		?ReadRecord@FIsam@FJIsam@@$$FQ$AAMP$AAVDataRecord@2@P$01AEH@Z
	stloc.1				; tmpRecord$
$LL9@getTransWo@2:
; Line 1390
	ldloc.1				; tmpRecord$
	brtrue.s	$LN7@getTransWo@2
; Line 1392
	ldstr		$StringLiteralTok$??_C@_1BI@LJPGHHMA@?$AA?$CI?$HP?$PL?$IK3?$IK?$JO0LN?$ANf?$AO0g0Y0?$AC?$AA?$CJ?$AA?$AA@
	stloc.s		7		; rtString$
; Line 1393
	br.s		$LN4@getTransWo@2
$LN7@getTransWo@2:
; Line 1396
	ldloc.1				; tmpRecord$
	newobj		??0WDWord@WDDatas@@$$FQ$AAM@P$AAVDataRecord@FJIsam@@@Z
	stloc.0				; tmpWord$
; Line 1397
	ldloc.0				; tmpWord$
	call		?getBaseFlg@WDWord@WDDatas@@$$FQ$AAM_NXZ
	ldc.i.1		1		; u8 0x1
	beq.s		$LN4@getTransWo@2
; Line 1402
	ldloc.1				; tmpRecord$
	call		?getEachKeyFlg@DataRecord@FJIsam@@$$FQ$AAMEXZ
	brfalse.s	$LN4@getTransWo@2
	ldloc.1				; tmpRecord$
	call		?getEachKeyFlg@DataRecord@FJIsam@@$$FQ$AAMEXZ
	ldc.i.3		3		; u8 0x3
	beq.s		$LN4@getTransWo@2
; Line 1406
	ldloc.1				; tmpRecord$
	stloc.2				; tmpOldRecord$
; Line 1407
	ldarg.0				; this$
	ldfld		?WordFileA@Form1@WordDic@@3P$AAVFIsam@FJIsam@@$AA
	ldloc.1				; tmpRecord$
	call		?NextRecord@FIsam@FJIsam@@$$FQ$AAMP$AAVDataRecord@2@P$AAV32@@Z
	stloc.1				; tmpRecord$
; Line 1408
	ldloc.2				; tmpOldRecord$
	stloc.s		15		; $T36355
	ldloc.2				; tmpOldRecord$
	stloc.s		14		; $T36356
	ldloc.2				; tmpOldRecord$
	brfalse.s	$LN19@getTransWo@2
	ldloc.2				; tmpOldRecord$
	callvirt	?<Dispose>@IDisposable@System@@$$FU$AAMXXZ
$LN19@getTransWo@2:
; Line 1409
	ldloc.0				; tmpWord$
	stloc.s		13		; $T36357
	ldloc.0				; tmpWord$
	stloc.s		12		; $T36358
	ldloc.0				; tmpWord$
	brfalse.s	$LN21@getTransWo@2
	ldloc.0				; tmpWord$
	callvirt	?<Dispose>@IDisposable@System@@$$FU$AAMXXZ
$LN21@getTransWo@2:
; Line 1410
	br.s		$LL9@getTransWo@2
$LN4@getTransWo@2:
; Line 1412
	ldloc.0				; tmpWord$
	ldnull		0		; i32 0x0
	call		?getWord@WDWord@WDDatas@@$$FQ$AAMP$AAVString@System@@P$AAV34@@Z
	stloc.s		7		; rtString$
	leave.s		$LN30@getTransWo@2
__catch$?getTransWordB@Form1@WordDic@@$$FA$AAMP$AAVString@System@@H@Z$2:
; Line 1414
	imp.push	
	stloc.s		8		; exp$36359
; Line 1415
	ldstr		$StringLiteralTok$??_C@_1CG@NFJJHPKL@?$HP?$PL?$IK3?$IK?$JOi?$BM?$HN?$CCfB0k0?$KI0?i0?$PM0Lvzu?$BP0W0?$HO0W0_0?$AC?$AA?$AA@
	ldloc.s		8		; exp$36359
	newobj		??0WordDicException@WordDic@@$$FQ$AAM@P$AAVString@System@@P$AAVException@3@@Z
	stloc.s		4		; tmpWordDicException$36360
; Line 1416
	ldloc.s		4		; tmpWordDicException$36360
	ldc.i4		31308		; i32 0x7a4c
	stfld		?ErrorCode@WordDicException@WordDic@@3HA
; Line 1417
	ldloc.s		4		; tmpWordDicException$36360
	ldc.i.3		3		; i32 0x3
	stfld		?ErrorCode2@WordDicException@WordDic@@3HA
; Line 1418
	ldloc.s		4		; tmpWordDicException$36360
	throw.u2	
$LN40@getTransWo@2:
	leave.s		$LN30@getTransWo@2
$LN30@getTransWo@2:
	br.s		$LN38@getTransWo@2
$LN39@getTransWo@2:
; Line 1420
	leave.s		__tryend$?getTransWordB@Form1@WordDic@@$$FA$AAMP$AAVString@System@@H@Z$4
$LN38@getTransWo@2:
	leave.s		__tryend$?getTransWordB@Form1@WordDic@@$$FA$AAMP$AAVString@System@@H@Z$4
__catch$?getTransWordB@Form1@WordDic@@$$FA$AAMP$AAVString@System@@H@Z$3:
; Line 1422
	ldloc.0				; tmpWord$
	brfalse.s	$LN23@getTransWo@2
	ldloc.0				; tmpWord$
	callvirt	?<Dispose>@IDisposable@System@@$$FU$AAMXXZ
$LN23@getTransWo@2:
; Line 1423
	ldloc.1				; tmpRecord$
	brfalse.s	$LN25@getTransWo@2
	ldloc.1				; tmpRecord$
	callvirt	?<Dispose>@IDisposable@System@@$$FU$AAMXXZ
$LN25@getTransWo@2:
; Line 1424
	endfinally	
__tryend$?getTransWordB@Form1@WordDic@@$$FA$AAMP$AAVString@System@@H@Z$4:
; Line 1426
	ldloc.s		7		; rtString$
	ret		
$LN54@getTransWo@2:
; Line 1428
	ldloc.s		11		; $T36823
	ret		
 .end ?getTransWordB@Form1@WordDic@@$$FA$AAMP$AAVString@System@@H@Z ; WordDic::Form1::getTransWordB
;	.proc.end.mptr
.global	?listBoxWordList@Form1@WordDic@@3P$AAVListBox@Forms@Windows@System@@$AA ; WordDic::Form1::listBoxWordList
	.bss
.local	$T36877,0
.local	$StringLiteralTok$??_C@_1CI@LEEMOEBN@?$AA?5?$JF?$KC?$JA?$CD?$IK?$JOi?$BM?$HN?$CCfB0k0?$KI0?i0?$PM0Lvzu?$BP0W0?$HO0W0_0?$AC?$AA?$AA@,4
.local	$StringLiteralTok$??_C@_1BI@GKBJCKFM@?$AA?$CI?$JF?$KC?$JA?$CD?$IK?$JO0LN?$ANf?$AO0g0Y0?$AC?$AA?$CJ?$AA?$AA@,4
.local	$TypeTok$1162E650$,4
.local	?listBoxWordList@Form1@WordDic@@3P$AAVListBox@Forms@Windows@System@@$AA,4 ; WordDic::Form1::listBoxWordList
.local	$StringLiteralTok$??_C@_1CG@PHOGEDKC@?$JF?$KC?$JA?$CD?$IK?$JOi?$BM?$HN?$CCfB0k0?$KI0?i0?$PM0Lvzu?$BP0W0?$HO0W0_0?$AC?$AA?$AA@,4
.local	$StringLiteralTok$??_C@_1BI@EGNENEHB@?$JF?$KC?$JA?$CD?$IK?$JO?$AAI?$AAD0LN?$ANkc0g0Y0?$AC?$AA?$AA@,4
; Function compile flags: /Ogtp
	.text
	.comdat	noduplicate, ?getRelationWordA@Form1@WordDic@@$$FA$AAMP$AAVString@System@@H@Z
.global	?getRelationWordA@Form1@WordDic@@$$FA$AAMP$AAVString@System@@H@Z ; WordDic::Form1::getRelationWordA
?getRelationWordA@Form1@WordDic@@$$FA$AAMP$AAVString@System@@H@Z: ; WordDic::Form1::getRelationWordA
;	.proc.def	D:P(I)

; Function Header:
; max stack depth = 4
; function size = 530 bytes
; local varsig tk = 0x11000007 
; Exception Information:
; 4 handlers, each consisting of filtered handlers

;	.formal.mptr 0,"this$" SIG: Optional C Binding Modifier(token:0x749271).class (token:0x749274)
;	.formal.i4 1,"inWordID$" SIG: i4
;	.local.mptr 6,"tmpWordDicException$36489" SIG: class (token:0x74161D)
;	.local.mptr 12,"exp$36488" SIG: class (token:0x2FC21ED)
;	.local.mptr 16,"$T36487" SIG: class (token:0x2FB9919)
;	.local.mptr 17,"$T36486" SIG: class (token:0x7389E5)
;	.local.mptr 18,"$T36485" SIG: class (token:0x2FB9919)
;	.local.mptr 19,"$T36484" SIG: class (token:0x741A49)
;	.local.mptr 2,"tmpOldRecord$" SIG: class (token:0x741A49)
;	.local.mptr 13,"tmpWordID$" SIG: szarray (token:0x749C75)
;	.local.mptr 7,"tmpWordDicException$36472" SIG: class (token:0x74161D)
;	.local.mptr 14,"exp$36471" SIG: class (token:0x2FC21ED)
;	.local.mptr 3,"tmpWDWordGrp$36467" SIG: class (token:0x73BD75)
;	.local.i4 4,"i$36397" SIG: i4
;	.local.mptr 8,"tmpWordDicException$36393" SIG: class (token:0x74161D)
;	.local.mptr 15,"exp$36392" SIG: class (token:0x2FC21ED)
;	.local.mptr 9,"$T36875" SIG: string
;	.local.mptr 5,"tmpWDWordGrp$36389" SIG: class (token:0x73BD75)
;	.local.mb16  20,"$S54$36384" SIG: genericInst (token:0x1000048) <class (token:0x2FB7C36)>
;	.local.mptr 10,"tmpWordDicException$36380" SIG: class (token:0x74161D)
;	.local.mptr 11,"rtString$" SIG: string
;	.local.mptr 1,"tmpRecord$" SIG: class (token:0x741A49)
;	.local.mptr 0,"tmpWord$" SIG: class (token:0x7389E5)

;	.proc.beg
; Line 1432
	ldnull		0		; i32 0x0
	stloc.0				; tmpWord$
	ldnull		0		; i32 0x0
	stloc.1				; tmpRecord$
	ldnull		0		; i32 0x0
	stloc.s		11		; rtString$
; Line 1439
	ldarg.1				; inWordID$
	ldc.i.0		0		; i32 0x0
	bgt.s		$LN22@getRelatio
; Line 1441
	ldstr		$StringLiteralTok$??_C@_1BI@EGNENEHB@?$JF?$KC?$JA?$CD?$IK?$JO?$AAI?$AAD0LN?$ANkc0g0Y0?$AC?$AA?$AA@
	newobj		??0WordDicException@WordDic@@$$FQ$AAM@P$AAVString@System@@@Z
	stloc.s		10		; tmpWordDicException$36380
; Line 1442
	ldloc.s		10		; tmpWordDicException$36380
	ldc.i4		31309		; i32 0x7a4d
	stfld		?ErrorCode@WordDicException@WordDic@@3HA
; Line 1443
	ldloc.s		10		; tmpWordDicException$36380
	ldc.i.1		1		; i32 0x1
	stfld		?ErrorCode2@WordDicException@WordDic@@3HA
; Line 1444
	ldloc.s		10		; tmpWordDicException$36380
	throw.u2	
$LN22@getRelatio:
	nop		
$LN66@getRelatio:
; Line 1450
	ldarg.0				; this$
	ldfld		?ReadedWordList@Form1@WordDic@@3P$AAV?$List@P$AAVWDWordGrp@WordDic@@@Generic@Collections@System@@$AA
	call		?GetEnumerator@?$List@P$AAVWDWordGrp@WordDic@@@Generic@Collections@System@@$$FQ$AAM?AVEnumerator@1234@XZ
	stloc.s		20		; $S54$36384
$LL20@getRelatio:
	ldloca.s	20		; $S54$36384
	call		?MoveNext@Enumerator@?$List@P$AAVWDWordGrp@WordDic@@@Generic@Collections@System@@$$FU$CAM_NXZ
	brfalse.s	$LN19@getRelatio
	ldloca.s	20		; $S54$36384
	call		?get@Current@Enumerator@?$List@P$AAVWDWordGrp@WordDic@@@Generic@Collections@System@@$$FU$CAMP$AAVWDWordGrp@WordDic@@XZ
	stloc.s		5		; tmpWDWordGrp$36389
; Line 1453
	ldloc.s		5		; tmpWDWordGrp$36389
	call		?getWordID@WDWordGrp@WordDic@@$$FQ$AAMHXZ
	ldarg.1				; inWordID$
	bne.un.s	$LN18@getRelatio
	ldloc.s		5		; tmpWDWordGrp$36389
	call		?getSchLang@WDWordGrp@WordDic@@$$FQ$AAMHXZ
	ldc.i.1		1		; i32 0x1
	bne.un.s	$LN18@getRelatio
; Line 1455
	ldloc.s		5		; tmpWDWordGrp$36389
	call		?getBaseWord@WDWordGrp@WordDic@@$$FQ$AAMP$AAVWDWord@WDDatas@@XZ
	stloc.0				; tmpWord$
; Line 1457
	ldloc.0				; tmpWord$
	brtrue.s	$LN17@getRelatio
; Line 1459
	ldloc.s		5		; tmpWDWordGrp$36389
	ldc.i.0		0		; i32 0x0
	call		?getWord@WDWordGrp@WordDic@@$$FQ$AAMP$AAVWDWord@WDDatas@@H@Z
	stloc.0				; tmpWord$
$LN17@getRelatio:
; Line 1462
	ldloc.0				; tmpWord$
	ldnull		0		; i32 0x0
	call		?getWord@WDWord@WDDatas@@$$FQ$AAMP$AAVString@System@@P$AAV34@@Z
; Line 1545
	stloc.s		9		; $T36875
	leave		$LN70@getRelatio
$LN18@getRelatio:
; Line 1465
	br.s		$LL20@getRelatio
$LN19@getRelatio:
	leave.s		$LN33@getRelatio
__catch$?getRelationWordA@Form1@WordDic@@$$FA$AAMP$AAVString@System@@H@Z$0:
; Line 1467
	imp.push	
	stloc.s		15		; exp$36392
; Line 1468
	ldstr		$StringLiteralTok$??_C@_1CG@PHOGEDKC@?$JF?$KC?$JA?$CD?$IK?$JOi?$BM?$HN?$CCfB0k0?$KI0?i0?$PM0Lvzu?$BP0W0?$HO0W0_0?$AC?$AA?$AA@
	ldloc.s		15		; exp$36392
	newobj		??0WordDicException@WordDic@@$$FQ$AAM@P$AAVString@System@@P$AAVException@3@@Z
	stloc.s		8		; tmpWordDicException$36393
; Line 1469
	ldloc.s		8		; tmpWordDicException$36393
	ldc.i4		31309		; i32 0x7a4d
	stfld		?ErrorCode@WordDicException@WordDic@@3HA
; Line 1470
	ldloc.s		8		; tmpWordDicException$36393
	ldc.i.2		2		; i32 0x2
	stfld		?ErrorCode2@WordDicException@WordDic@@3HA
; Line 1471
	ldloc.s		8		; tmpWordDicException$36393
	throw.u2	
$LN44@getRelatio:
	leave.s		$LN33@getRelatio
$LN33@getRelatio:
	nop		
$LN67@getRelatio:
; Line 1477
	ldc.i.0		0		; i32 0x0
	stloc.s		4		; i$36397
$LL15@getRelatio:
	ldloc.s		4		; i$36397
	ldarg.0				; this$
	ldfld		?listBoxWordList@Form1@WordDic@@3P$AAVListBox@Forms@Windows@System@@$AA
	call		?get@Items@ListBox@Forms@Windows@System@@$$FQ$AAMP$AAVObjectCollection@2345@XZ
	callvirt	?get@Count@ObjectCollection@ListBox@Forms@Windows@System@@$$FU$AAMHXZ
	bge.s		$LN13@getRelatio
; Line 1479
	ldarg.0				; this$
	ldfld		?listBoxWordList@Form1@WordDic@@3P$AAVListBox@Forms@Windows@System@@$AA
	call		?get@Items@ListBox@Forms@Windows@System@@$$FQ$AAMP$AAVObjectCollection@2345@XZ
	ldloc.s		4		; i$36397
	callvirt	?get@default@ObjectCollection@ListBox@Forms@Windows@System@@$$FU$AAMP$AAVObject@6@H@Z
	castClass	$TypeTok$1162E650$
	stloc.3				; tmpWDWordGrp$36467
; Line 1481
	ldloc.3				; tmpWDWordGrp$36467
	call		?getWordID@WDWordGrp@WordDic@@$$FQ$AAMHXZ
	ldarg.1				; inWordID$
	bne.un.s	$LN12@getRelatio
	ldloc.3				; tmpWDWordGrp$36467
	call		?getSchLang@WDWordGrp@WordDic@@$$FQ$AAMHXZ
	ldc.i.1		1		; i32 0x1
	bne.un.s	$LN12@getRelatio
; Line 1483
	ldloc.3				; tmpWDWordGrp$36467
	call		?getBaseWord@WDWordGrp@WordDic@@$$FQ$AAMP$AAVWDWord@WDDatas@@XZ
	stloc.0				; tmpWord$
; Line 1485
	ldloc.0				; tmpWord$
	brtrue.s	$LN11@getRelatio
; Line 1487
	ldloc.3				; tmpWDWordGrp$36467
	ldc.i.0		0		; i32 0x0
	call		?getWord@WDWordGrp@WordDic@@$$FQ$AAMP$AAVWDWord@WDDatas@@H@Z
	stloc.0				; tmpWord$
$LN11@getRelatio:
; Line 1490
	ldloc.0				; tmpWord$
	ldnull		0		; i32 0x0
	call		?getWord@WDWord@WDDatas@@$$FQ$AAMP$AAVString@System@@P$AAV34@@Z
; Line 1545
	stloc.s		9		; $T36875
	leave		$LN70@getRelatio
$LN12@getRelatio:
; Line 1477
	ldloc.s		4		; i$36397
	ldc.i.1		1		; i32 0x1
	add		
	stloc.s		4		; i$36397
	br.s		$LL15@getRelatio
$LN13@getRelatio:
; Line 1492
	leave.s		$LN35@getRelatio
__catch$?getRelationWordA@Form1@WordDic@@$$FA$AAMP$AAVString@System@@H@Z$2:
; Line 1493
	imp.push	
	stloc.s		14		; exp$36471
; Line 1494
	ldstr		$StringLiteralTok$??_C@_1CG@PHOGEDKC@?$JF?$KC?$JA?$CD?$IK?$JOi?$BM?$HN?$CCfB0k0?$KI0?i0?$PM0Lvzu?$BP0W0?$HO0W0_0?$AC?$AA?$AA@
	ldloc.s		14		; exp$36471
	newobj		??0WordDicException@WordDic@@$$FQ$AAM@P$AAVString@System@@P$AAVException@3@@Z
	stloc.s		7		; tmpWordDicException$36472
; Line 1495
	ldloc.s		7		; tmpWordDicException$36472
	ldc.i4		31309		; i32 0x7a4d
	stfld		?ErrorCode@WordDicException@WordDic@@3HA
; Line 1496
	ldloc.s		7		; tmpWordDicException$36472
	ldc.i.3		3		; i32 0x3
	stfld		?ErrorCode2@WordDicException@WordDic@@3HA
; Line 1497
	ldloc.s		7		; tmpWordDicException$36472
	throw.u2	
$LN48@getRelatio:
	leave.s		$LN35@getRelatio
$LN35@getRelatio:
	nop		
$LN68@getRelatio:
$LN69@getRelatio:
; Line 1503
	ldarg.1				; inWordID$
	ldnull		0		; i32 0x0
	ldc.i.0		0		; i32 0x0
	call		?Int32ToArray@FJIFuncs@FJIsam@@$$FSMP$01AEHP$01AEH@Z
	stloc.s		13		; tmpWordID$
; Line 1504
	ldarg.0				; this$
	ldfld		?WordFileA@Form1@WordDic@@3P$AAVFIsam@FJIsam@@$AA
	ldloc.s		13		; tmpWordID$
	ldc.i.2		2		; i32 0x2
	call		?ReadRecord@FIsam@FJIsam@@$$FQ$AAMP$AAVDataRecord@2@P$01AEH@Z
	stloc.1				; tmpRecord$
$LL9@getRelatio:
; Line 1507
	ldloc.1				; tmpRecord$
	brtrue.s	$LN7@getRelatio
; Line 1509
	ldstr		$StringLiteralTok$??_C@_1BI@GKBJCKFM@?$AA?$CI?$JF?$KC?$JA?$CD?$IK?$JO0LN?$ANf?$AO0g0Y0?$AC?$AA?$CJ?$AA?$AA@
; Line 1545
	stloc.s		9		; $T36875
	leave		$LN70@getRelatio
$LN7@getRelatio:
; Line 1513
	ldloc.1				; tmpRecord$
	newobj		??0WDWord@WDDatas@@$$FQ$AAM@P$AAVDataRecord@FJIsam@@@Z
	stloc.0				; tmpWord$
; Line 1514
	ldloc.0				; tmpWord$
	call		?getBaseFlg@WDWord@WDDatas@@$$FQ$AAM_NXZ
	ldc.i.1		1		; u8 0x1
	beq.s		$LN4@getRelatio
; Line 1519
	ldloc.1				; tmpRecord$
	call		?getEachKeyFlg@DataRecord@FJIsam@@$$FQ$AAMEXZ
	brfalse.s	$LN4@getRelatio
	ldloc.1				; tmpRecord$
	call		?getEachKeyFlg@DataRecord@FJIsam@@$$FQ$AAMEXZ
	ldc.i.3		3		; u8 0x3
	beq.s		$LN4@getRelatio
; Line 1523
	ldloc.1				; tmpRecord$
	stloc.2				; tmpOldRecord$
; Line 1524
	ldarg.0				; this$
	ldfld		?WordFileA@Form1@WordDic@@3P$AAVFIsam@FJIsam@@$AA
	ldloc.1				; tmpRecord$
	call		?NextRecord@FIsam@FJIsam@@$$FQ$AAMP$AAVDataRecord@2@P$AAV32@@Z
	stloc.1				; tmpRecord$
; Line 1525
	ldloc.2				; tmpOldRecord$
	stloc.s		19		; $T36484
	ldloc.2				; tmpOldRecord$
	stloc.s		18		; $T36485
	ldloc.2				; tmpOldRecord$
	brfalse.s	$LN25@getRelatio
	ldloc.2				; tmpOldRecord$
	callvirt	?<Dispose>@IDisposable@System@@$$FU$AAMXXZ
$LN25@getRelatio:
; Line 1526
	ldloc.0				; tmpWord$
	stloc.s		17		; $T36486
	ldloc.0				; tmpWord$
	stloc.s		16		; $T36487
	ldloc.0				; tmpWord$
	brfalse.s	$LN27@getRelatio
	ldloc.0				; tmpWord$
	callvirt	?<Dispose>@IDisposable@System@@$$FU$AAMXXZ
$LN27@getRelatio:
; Line 1527
	br.s		$LL9@getRelatio
$LN4@getRelatio:
; Line 1529
	ldloc.0				; tmpWord$
	ldnull		0		; i32 0x0
	call		?getWord@WDWord@WDDatas@@$$FQ$AAMP$AAVString@System@@P$AAV34@@Z
	stloc.s		11		; rtString$
	leave.s		$LN38@getRelatio
__catch$?getRelationWordA@Form1@WordDic@@$$FA$AAMP$AAVString@System@@H@Z$4:
; Line 1531
	imp.push	
	stloc.s		12		; exp$36488
; Line 1532
	ldstr		$StringLiteralTok$??_C@_1CI@LEEMOEBN@?$AA?5?$JF?$KC?$JA?$CD?$IK?$JOi?$BM?$HN?$CCfB0k0?$KI0?i0?$PM0Lvzu?$BP0W0?$HO0W0_0?$AC?$AA?$AA@
	ldloc.s		12		; exp$36488
	newobj		??0WordDicException@WordDic@@$$FQ$AAM@P$AAVString@System@@P$AAVException@3@@Z
	stloc.s		6		; tmpWordDicException$36489
; Line 1533
	ldloc.s		6		; tmpWordDicException$36489
	ldc.i4		31309		; i32 0x7a4d
	stfld		?ErrorCode@WordDicException@WordDic@@3HA
; Line 1534
	ldloc.s		6		; tmpWordDicException$36489
	ldc.i.4		4		; i32 0x4
	stfld		?ErrorCode2@WordDicException@WordDic@@3HA
; Line 1535
	ldloc.s		6		; tmpWordDicException$36489
	throw.u2	
$LN52@getRelatio:
	leave.s		$LN38@getRelatio
$LN38@getRelatio:
	br.s		$LN50@getRelatio
$LN51@getRelatio:
; Line 1537
	leave.s		__tryend$?getRelationWordA@Form1@WordDic@@$$FA$AAMP$AAVString@System@@H@Z$6
$LN50@getRelatio:
	leave.s		__tryend$?getRelationWordA@Form1@WordDic@@$$FA$AAMP$AAVString@System@@H@Z$6
__catch$?getRelationWordA@Form1@WordDic@@$$FA$AAMP$AAVString@System@@H@Z$5:
; Line 1539
	ldloc.0				; tmpWord$
	brfalse.s	$LN29@getRelatio
	ldloc.0				; tmpWord$
	callvirt	?<Dispose>@IDisposable@System@@$$FU$AAMXXZ
$LN29@getRelatio:
; Line 1540
	ldloc.1				; tmpRecord$
	brfalse.s	$LN31@getRelatio
	ldloc.1				; tmpRecord$
	callvirt	?<Dispose>@IDisposable@System@@$$FU$AAMXXZ
$LN31@getRelatio:
; Line 1541
	endfinally	
__tryend$?getRelationWordA@Form1@WordDic@@$$FA$AAMP$AAVString@System@@H@Z$6:
; Line 1543
	ldloc.s		11		; rtString$
	ret		
$LN70@getRelatio:
; Line 1545
	ldloc.s		9		; $T36875
	ret		
 .end ?getRelationWordA@Form1@WordDic@@$$FA$AAMP$AAVString@System@@H@Z ; WordDic::Form1::getRelationWordA
;	.proc.end.mptr
	.bss
.local	$T36929,0
; Function compile flags: /Ogtp
	.text
	.comdat	noduplicate, ?getRelationWordB@Form1@WordDic@@$$FA$AAMP$AAVString@System@@H@Z
.global	?getRelationWordB@Form1@WordDic@@$$FA$AAMP$AAVString@System@@H@Z ; WordDic::Form1::getRelationWordB
?getRelationWordB@Form1@WordDic@@$$FA$AAMP$AAVString@System@@H@Z: ; WordDic::Form1::getRelationWordB
;	.proc.def	D:P(I)

; Function Header:
; max stack depth = 4
; function size = 527 bytes
; local varsig tk = 0x11000008 
; Exception Information:
; 4 handlers, each consisting of filtered handlers

;	.formal.mptr 0,"this$" SIG: Optional C Binding Modifier(token:0x749271).class (token:0x749274)
;	.formal.i4 1,"inWordID$" SIG: i4
;	.local.mptr 6,"tmpWordDicException$36550" SIG: class (token:0x74161D)
;	.local.mptr 12,"exp$36549" SIG: class (token:0x2FC21ED)
;	.local.mptr 16,"$T36548" SIG: class (token:0x2FB9919)
;	.local.mptr 17,"$T36547" SIG: class (token:0x7389E5)
;	.local.mptr 18,"$T36546" SIG: class (token:0x2FB9919)
;	.local.mptr 19,"$T36545" SIG: class (token:0x741A49)
;	.local.mptr 2,"tmpOldRecord$" SIG: class (token:0x741A49)
;	.local.mptr 13,"tmpWordID$" SIG: szarray (token:0x749C75)
;	.local.mptr 7,"tmpWordDicException$36534" SIG: class (token:0x74161D)
;	.local.mptr 14,"exp$36533" SIG: class (token:0x2FC21ED)
;	.local.mptr 3,"tmpWDWordGrp$36529" SIG: class (token:0x73BD75)
;	.local.i4 4,"i$36525" SIG: i4
;	.local.mptr 8,"tmpWordDicException$36522" SIG: class (token:0x74161D)
;	.local.mptr 15,"exp$36521" SIG: class (token:0x2FC21ED)
;	.local.mptr 11,"$T36927" SIG: string
;	.local.mptr 5,"tmpWDWordGrp$36518" SIG: class (token:0x73BD75)
;	.local.mb16  20,"$S55$36513" SIG: genericInst (token:0x1000048) <class (token:0x2FB7C36)>
;	.local.mptr 9,"tmpWordDicException$36510" SIG: class (token:0x74161D)
;	.local.mptr 10,"rtString$" SIG: string
;	.local.mptr 1,"tmpRecord$" SIG: class (token:0x741A49)
;	.local.mptr 0,"tmpWord$" SIG: class (token:0x7389E5)

;	.proc.beg
; Line 1548
	ldnull		0		; i32 0x0
	stloc.0				; tmpWord$
	ldnull		0		; i32 0x0
	stloc.1				; tmpRecord$
	ldnull		0		; i32 0x0
	stloc.s		10		; rtString$
; Line 1555
	ldarg.1				; inWordID$
	ldc.i.0		0		; i32 0x0
	bgt.s		$LN22@getRelatio@2
; Line 1557
	ldstr		$StringLiteralTok$??_C@_1BI@EGNENEHB@?$JF?$KC?$JA?$CD?$IK?$JO?$AAI?$AAD0LN?$ANkc0g0Y0?$AC?$AA?$AA@
	newobj		??0WordDicException@WordDic@@$$FQ$AAM@P$AAVString@System@@@Z
	stloc.s		9		; tmpWordDicException$36510
; Line 1558
	ldloc.s		9		; tmpWordDicException$36510
	ldc.i4		31310		; i32 0x7a4e
	stfld		?ErrorCode@WordDicException@WordDic@@3HA
; Line 1559
	ldloc.s		9		; tmpWordDicException$36510
	ldc.i.1		1		; i32 0x1
	stfld		?ErrorCode2@WordDicException@WordDic@@3HA
; Line 1560
	ldloc.s		9		; tmpWordDicException$36510
	throw.u2	
$LN22@getRelatio@2:
	nop		
$LN66@getRelatio@2:
; Line 1566
	ldarg.0				; this$
	ldfld		?ReadedWordList@Form1@WordDic@@3P$AAV?$List@P$AAVWDWordGrp@WordDic@@@Generic@Collections@System@@$AA
	call		?GetEnumerator@?$List@P$AAVWDWordGrp@WordDic@@@Generic@Collections@System@@$$FQ$AAM?AVEnumerator@1234@XZ
	stloc.s		20		; $S55$36513
$LL20@getRelatio@2:
	ldloca.s	20		; $S55$36513
	call		?MoveNext@Enumerator@?$List@P$AAVWDWordGrp@WordDic@@@Generic@Collections@System@@$$FU$CAM_NXZ
	brfalse.s	$LN19@getRelatio@2
	ldloca.s	20		; $S55$36513
	call		?get@Current@Enumerator@?$List@P$AAVWDWordGrp@WordDic@@@Generic@Collections@System@@$$FU$CAMP$AAVWDWordGrp@WordDic@@XZ
	stloc.s		5		; tmpWDWordGrp$36518
; Line 1569
	ldloc.s		5		; tmpWDWordGrp$36518
	call		?getWordID@WDWordGrp@WordDic@@$$FQ$AAMHXZ
	ldarg.1				; inWordID$
	bne.un.s	$LN18@getRelatio@2
	ldloc.s		5		; tmpWDWordGrp$36518
	call		?getSchLang@WDWordGrp@WordDic@@$$FQ$AAMHXZ
	ldc.i.2		2		; i32 0x2
	bne.un.s	$LN18@getRelatio@2
; Line 1571
	ldloc.s		5		; tmpWDWordGrp$36518
	call		?getBaseWord@WDWordGrp@WordDic@@$$FQ$AAMP$AAVWDWord@WDDatas@@XZ
	stloc.0				; tmpWord$
; Line 1573
	ldloc.0				; tmpWord$
	brtrue.s	$LN17@getRelatio@2
; Line 1575
	ldloc.s		5		; tmpWDWordGrp$36518
	ldc.i.0		0		; i32 0x0
	call		?getWord@WDWordGrp@WordDic@@$$FQ$AAMP$AAVWDWord@WDDatas@@H@Z
	stloc.0				; tmpWord$
$LN17@getRelatio@2:
; Line 1578
	ldloc.0				; tmpWord$
	ldnull		0		; i32 0x0
	call		?getWord@WDWord@WDDatas@@$$FQ$AAMP$AAVString@System@@P$AAV34@@Z
; Line 1660
	stloc.s		11		; $T36927
	leave		$LN70@getRelatio@2
$LN18@getRelatio@2:
; Line 1581
	br.s		$LL20@getRelatio@2
$LN19@getRelatio@2:
	leave.s		$LN33@getRelatio@2
__catch$?getRelationWordB@Form1@WordDic@@$$FA$AAMP$AAVString@System@@H@Z$0:
; Line 1583
	imp.push	
	stloc.s		15		; exp$36521
; Line 1584
	ldstr		$StringLiteralTok$??_C@_1CG@PHOGEDKC@?$JF?$KC?$JA?$CD?$IK?$JOi?$BM?$HN?$CCfB0k0?$KI0?i0?$PM0Lvzu?$BP0W0?$HO0W0_0?$AC?$AA?$AA@
	ldloc.s		15		; exp$36521
	newobj		??0WordDicException@WordDic@@$$FQ$AAM@P$AAVString@System@@P$AAVException@3@@Z
	stloc.s		8		; tmpWordDicException$36522
; Line 1585
	ldloc.s		8		; tmpWordDicException$36522
	ldc.i4		31310		; i32 0x7a4e
	stfld		?ErrorCode@WordDicException@WordDic@@3HA
; Line 1586
	ldloc.s		8		; tmpWordDicException$36522
	ldc.i.2		2		; i32 0x2
	stfld		?ErrorCode2@WordDicException@WordDic@@3HA
; Line 1587
	ldloc.s		8		; tmpWordDicException$36522
	throw.u2	
$LN44@getRelatio@2:
	leave.s		$LN33@getRelatio@2
$LN33@getRelatio@2:
	nop		
$LN67@getRelatio@2:
; Line 1593
	ldc.i.0		0		; i32 0x0
	stloc.s		4		; i$36525
$LL15@getRelatio@2:
	ldloc.s		4		; i$36525
	ldarg.0				; this$
	ldfld		?listBoxWordList@Form1@WordDic@@3P$AAVListBox@Forms@Windows@System@@$AA
	call		?get@Items@ListBox@Forms@Windows@System@@$$FQ$AAMP$AAVObjectCollection@2345@XZ
	callvirt	?get@Count@ObjectCollection@ListBox@Forms@Windows@System@@$$FU$AAMHXZ
	bge.s		$LN13@getRelatio@2
; Line 1595
	ldarg.0				; this$
	ldfld		?listBoxWordList@Form1@WordDic@@3P$AAVListBox@Forms@Windows@System@@$AA
	call		?get@Items@ListBox@Forms@Windows@System@@$$FQ$AAMP$AAVObjectCollection@2345@XZ
	ldloc.s		4		; i$36525
	callvirt	?get@default@ObjectCollection@ListBox@Forms@Windows@System@@$$FU$AAMP$AAVObject@6@H@Z
	castClass	$TypeTok$1162E650$
	stloc.3				; tmpWDWordGrp$36529
; Line 1597
	ldloc.3				; tmpWDWordGrp$36529
	call		?getWordID@WDWordGrp@WordDic@@$$FQ$AAMHXZ
	ldarg.1				; inWordID$
	bne.un.s	$LN12@getRelatio@2
	ldloc.3				; tmpWDWordGrp$36529
	call		?getSchLang@WDWordGrp@WordDic@@$$FQ$AAMHXZ
	ldc.i.2		2		; i32 0x2
	bne.un.s	$LN12@getRelatio@2
; Line 1599
	ldloc.3				; tmpWDWordGrp$36529
	call		?getBaseWord@WDWordGrp@WordDic@@$$FQ$AAMP$AAVWDWord@WDDatas@@XZ
	stloc.0				; tmpWord$
; Line 1601
	ldloc.0				; tmpWord$
	brtrue.s	$LN11@getRelatio@2
; Line 1603
	ldloc.3				; tmpWDWordGrp$36529
	ldc.i.0		0		; i32 0x0
	call		?getWord@WDWordGrp@WordDic@@$$FQ$AAMP$AAVWDWord@WDDatas@@H@Z
	stloc.0				; tmpWord$
$LN11@getRelatio@2:
; Line 1606
	ldloc.0				; tmpWord$
	ldnull		0		; i32 0x0
	call		?getWord@WDWord@WDDatas@@$$FQ$AAMP$AAVString@System@@P$AAV34@@Z
; Line 1660
	stloc.s		11		; $T36927
	leave		$LN70@getRelatio@2
$LN12@getRelatio@2:
; Line 1593
	ldloc.s		4		; i$36525
	ldc.i.1		1		; i32 0x1
	add		
	stloc.s		4		; i$36525
	br.s		$LL15@getRelatio@2
$LN13@getRelatio@2:
; Line 1608
	leave.s		$LN35@getRelatio@2
__catch$?getRelationWordB@Form1@WordDic@@$$FA$AAMP$AAVString@System@@H@Z$2:
; Line 1609
	imp.push	
	stloc.s		14		; exp$36533
; Line 1610
	ldstr		$StringLiteralTok$??_C@_1CG@PHOGEDKC@?$JF?$KC?$JA?$CD?$IK?$JOi?$BM?$HN?$CCfB0k0?$KI0?i0?$PM0Lvzu?$BP0W0?$HO0W0_0?$AC?$AA?$AA@
	ldloc.s		14		; exp$36533
	newobj		??0WordDicException@WordDic@@$$FQ$AAM@P$AAVString@System@@P$AAVException@3@@Z
	stloc.s		7		; tmpWordDicException$36534
; Line 1611
	ldloc.s		7		; tmpWordDicException$36534
	ldc.i4		31310		; i32 0x7a4e
	stfld		?ErrorCode@WordDicException@WordDic@@3HA
; Line 1612
	ldloc.s		7		; tmpWordDicException$36534
	ldc.i.3		3		; i32 0x3
	stfld		?ErrorCode2@WordDicException@WordDic@@3HA
; Line 1613
	ldloc.s		7		; tmpWordDicException$36534
	throw.u2	
$LN48@getRelatio@2:
	leave.s		$LN35@getRelatio@2
$LN35@getRelatio@2:
	nop		
$LN68@getRelatio@2:
$LN69@getRelatio@2:
; Line 1619
	ldarg.1				; inWordID$
	ldnull		0		; i32 0x0
	ldc.i.0		0		; i32 0x0
	call		?Int32ToArray@FJIFuncs@FJIsam@@$$FSMP$01AEHP$01AEH@Z
	stloc.s		13		; tmpWordID$
; Line 1620
	ldarg.0				; this$
	ldfld		?WordFileB@Form1@WordDic@@3P$AAVFIsam@FJIsam@@$AA
	ldloc.s		13		; tmpWordID$
	ldc.i.2		2		; i32 0x2
	call		?ReadRecord@FIsam@FJIsam@@$$FQ$AAMP$AAVDataRecord@2@P$01AEH@Z
	stloc.1				; tmpRecord$
$LL9@getRelatio@2:
; Line 1623
	ldloc.1				; tmpRecord$
	brtrue.s	$LN7@getRelatio@2
; Line 1625
	ldstr		$StringLiteralTok$??_C@_1BI@GKBJCKFM@?$AA?$CI?$JF?$KC?$JA?$CD?$IK?$JO0LN?$ANf?$AO0g0Y0?$AC?$AA?$CJ?$AA?$AA@
	stloc.s		10		; rtString$
; Line 1626
	br.s		$LN4@getRelatio@2
$LN7@getRelatio@2:
; Line 1629
	ldloc.1				; tmpRecord$
	newobj		??0WDWord@WDDatas@@$$FQ$AAM@P$AAVDataRecord@FJIsam@@@Z
	stloc.0				; tmpWord$
; Line 1630
	ldloc.0				; tmpWord$
	call		?getBaseFlg@WDWord@WDDatas@@$$FQ$AAM_NXZ
	ldc.i.1		1		; u8 0x1
	beq.s		$LN4@getRelatio@2
; Line 1635
	ldloc.1				; tmpRecord$
	call		?getEachKeyFlg@DataRecord@FJIsam@@$$FQ$AAMEXZ
	brfalse.s	$LN4@getRelatio@2
	ldloc.1				; tmpRecord$
	call		?getEachKeyFlg@DataRecord@FJIsam@@$$FQ$AAMEXZ
	ldc.i.3		3		; u8 0x3
	beq.s		$LN4@getRelatio@2
; Line 1639
	ldloc.1				; tmpRecord$
	stloc.2				; tmpOldRecord$
; Line 1640
	ldarg.0				; this$
	ldfld		?WordFileB@Form1@WordDic@@3P$AAVFIsam@FJIsam@@$AA
	ldloc.1				; tmpRecord$
	call		?NextRecord@FIsam@FJIsam@@$$FQ$AAMP$AAVDataRecord@2@P$AAV32@@Z
	stloc.1				; tmpRecord$
; Line 1641
	ldloc.2				; tmpOldRecord$
	stloc.s		19		; $T36545
	ldloc.2				; tmpOldRecord$
	stloc.s		18		; $T36546
	ldloc.2				; tmpOldRecord$
	brfalse.s	$LN25@getRelatio@2
	ldloc.2				; tmpOldRecord$
	callvirt	?<Dispose>@IDisposable@System@@$$FU$AAMXXZ
$LN25@getRelatio@2:
; Line 1642
	ldloc.0				; tmpWord$
	stloc.s		17		; $T36547
	ldloc.0				; tmpWord$
	stloc.s		16		; $T36548
	ldloc.0				; tmpWord$
	brfalse.s	$LN27@getRelatio@2
	ldloc.0				; tmpWord$
	callvirt	?<Dispose>@IDisposable@System@@$$FU$AAMXXZ
$LN27@getRelatio@2:
; Line 1643
	br.s		$LL9@getRelatio@2
$LN4@getRelatio@2:
; Line 1645
	ldloc.0				; tmpWord$
	ldnull		0		; i32 0x0
	call		?getWord@WDWord@WDDatas@@$$FQ$AAMP$AAVString@System@@P$AAV34@@Z
	stloc.s		10		; rtString$
	leave.s		$LN38@getRelatio@2
__catch$?getRelationWordB@Form1@WordDic@@$$FA$AAMP$AAVString@System@@H@Z$4:
; Line 1647
	imp.push	
	stloc.s		12		; exp$36549
; Line 1648
	ldstr		$StringLiteralTok$??_C@_1CI@LEEMOEBN@?$AA?5?$JF?$KC?$JA?$CD?$IK?$JOi?$BM?$HN?$CCfB0k0?$KI0?i0?$PM0Lvzu?$BP0W0?$HO0W0_0?$AC?$AA?$AA@
	ldloc.s		12		; exp$36549
	newobj		??0WordDicException@WordDic@@$$FQ$AAM@P$AAVString@System@@P$AAVException@3@@Z
	stloc.s		6		; tmpWordDicException$36550
; Line 1649
	ldloc.s		6		; tmpWordDicException$36550
	ldc.i4		31310		; i32 0x7a4e
	stfld		?ErrorCode@WordDicException@WordDic@@3HA
; Line 1650
	ldloc.s		6		; tmpWordDicException$36550
	ldc.i.4		4		; i32 0x4
	stfld		?ErrorCode2@WordDicException@WordDic@@3HA
; Line 1651
	ldloc.s		6		; tmpWordDicException$36550
	throw.u2	
$LN52@getRelatio@2:
	leave.s		$LN38@getRelatio@2
$LN38@getRelatio@2:
	br.s		$LN50@getRelatio@2
$LN51@getRelatio@2:
; Line 1653
	leave.s		__tryend$?getRelationWordB@Form1@WordDic@@$$FA$AAMP$AAVString@System@@H@Z$6
$LN50@getRelatio@2:
	leave.s		__tryend$?getRelationWordB@Form1@WordDic@@$$FA$AAMP$AAVString@System@@H@Z$6
__catch$?getRelationWordB@Form1@WordDic@@$$FA$AAMP$AAVString@System@@H@Z$5:
; Line 1655
	ldloc.0				; tmpWord$
	brfalse.s	$LN29@getRelatio@2
	ldloc.0				; tmpWord$
	callvirt	?<Dispose>@IDisposable@System@@$$FU$AAMXXZ
$LN29@getRelatio@2:
; Line 1656
	ldloc.1				; tmpRecord$
	brfalse.s	$LN31@getRelatio@2
	ldloc.1				; tmpRecord$
	callvirt	?<Dispose>@IDisposable@System@@$$FU$AAMXXZ
$LN31@getRelatio@2:
; Line 1657
	endfinally	
__tryend$?getRelationWordB@Form1@WordDic@@$$FA$AAMP$AAVString@System@@H@Z$6:
; Line 1659
	ldloc.s		10		; rtString$
	ret		
$LN70@getRelatio@2:
; Line 1660
	ldloc.s		11		; $T36927
	ret		
 .end ?getRelationWordB@Form1@WordDic@@$$FA$AAMP$AAVString@System@@H@Z ; WordDic::Form1::getRelationWordB
;	.proc.end.mptr
; Function compile flags: /Ogtp
	.text
	.comdat	any, ??0WDConfig@WordDic@@$$FQ$AAM@XZ
.global	??0WDConfig@WordDic@@$$FQ$AAM@XZ		; WordDic::WDConfig::WDConfig
??0WDConfig@WordDic@@$$FQ$AAM@XZ:			; WordDic::WDConfig::WDConfig
;	.proc.def	D:V()

; Function Header:
; max stack depth = 2
; function size = 23 bytes
; local varsig tk = 0x0 
; Exception Information:
; 1 handlers, each consisting of filtered handlers

;	.formal.mptr 0,"this$" SIG: Optional C Binding Modifier(token:0x7370B5).class (token:0x7370B8)

;	.proc.beg
; File c:\users\amotoo\documents\myproject\worddicbt\worddic\wdconfig.h
; Line 33
	ldarg.0				; this$
	call		??0Form@Forms@Windows@System@@$$FQ$AAM@XZ
$LN4@WDConfig@2:
; Line 35
	ldarg.0				; this$
	call		?InitializeComponent@WDConfig@WordDic@@$$FA$AAMXXZ
	leave.s		$LN5@WDConfig@2
$LN6@WDConfig@2:
	ldarg.0				; this$
	ldc.i.1		1		; u8 0x1
	call		?<Dispose>@Form@Forms@Windows@System@@$$FM$AAMX_N@Z
	endfinally	
$LN5@WDConfig@2:
; Line 39
	ret		
 .end ??0WDConfig@WordDic@@$$FQ$AAM@XZ			; WordDic::WDConfig::WDConfig
;	.proc.end.void
; Function compile flags: /Ogtp
	.text
	.comdat	any, ??0WDVerDialog@WordDic@@$$FQ$AAM@XZ
.global	??0WDVerDialog@WordDic@@$$FQ$AAM@XZ		; WordDic::WDVerDialog::WDVerDialog
??0WDVerDialog@WordDic@@$$FQ$AAM@XZ:			; WordDic::WDVerDialog::WDVerDialog
;	.proc.def	D:V()

; Function Header:
; max stack depth = 2
; function size = 23 bytes
; local varsig tk = 0x0 
; Exception Information:
; 1 handlers, each consisting of filtered handlers

;	.formal.mptr 0,"this$" SIG: Optional C Binding Modifier(token:0x2FC31B1).class (token:0x2FC31B4)

;	.proc.beg
; File c:\users\amotoo\documents\myproject\worddicbt\worddic\wdverdialog.h
; Line 31
	ldarg.0				; this$
	call		??0Form@Forms@Windows@System@@$$FQ$AAM@XZ
$LN4@WDVerDialo@2:
; Line 33
	ldarg.0				; this$
	call		?InitializeComponent@WDVerDialog@WordDic@@$$FA$AAMXXZ
	leave.s		$LN5@WDVerDialo@2
$LN6@WDVerDialo@2:
	ldarg.0				; this$
	ldc.i.1		1		; u8 0x1
	call		?<Dispose>@Form@Forms@Windows@System@@$$FM$AAMX_N@Z
	endfinally	
$LN5@WDVerDialo@2:
; Line 37
	ret		
 .end ??0WDVerDialog@WordDic@@$$FQ$AAM@XZ		; WordDic::WDVerDialog::WDVerDialog
;	.proc.end.void
.global	?SegmentListA@Form1@WordDic@@3P$AAV?$List@P$AAVWDSegment@WDDatas@@@Generic@Collections@System@@$AA ; WordDic::Form1::SegmentListA
.global	?XSLTFNameA@WordDicCfg@WordDic@@3P$AAVString@System@@$AA ; WordDic::WordDicCfg::XSLTFNameA
.global	?WDConfigParm@Form1@WordDic@@3P$AAVWordDicCfg@2@$AA ; WordDic::Form1::WDConfigParm
.global	?webBrowserBook@Form1@WordDic@@3P$AAVWebBrowser@Forms@Windows@System@@$AA ; WordDic::Form1::webBrowserBook
	.bss
.local	$T36981,0
.local	$TypeTok$1102D1B0$,4
.local	$StringLiteralTok$??_C@_1CK@PMOGJNC@?$IIhy?30?G0?$PM0?$LPO?2b?$BAfB0k0?$KI0?i0?$PM0Lvzu?$BP0W0?$HO0W0_0?$AC?$AA?$AA@,4
.local	$StringLiteralTok$??_C@_1BA@JOHHMBKK@?$AAP?$AAR?$AAR?$AAE?$AAA?$AAD?$AA2?$AA?$AA@,4
.local	$StringLiteralTok$??_C@_1BA@IMMCGOEE@?$AAP?$AAR?$AAR?$AAE?$AAA?$AAD?$AA1?$AA?$AA@,4
.local	$StringLiteralTok$??_C@_1O@CHEKKCNA@?$AAP?$AAR?$AAW?$AAO?$AAR?$AAD?$AA?$AA@,4
.local	$StringLiteralTok$??_C@_1BE@DDPPOOBK@?$AAP?$AAR?$AAT?$AAI?$AAC?$AAA?$AAL?$AAI?$AAD?$AA?$AA@,4
.local	$StringLiteralTok$??_C@_1BC@DIAOALNJ@?$AAP?$AAR?$AAT?$AAY?$AAP?$AAE?$AAI?$AAD?$AA?$AA@,4
.local	$StringLiteralTok$??_C@_1BA@EFJGKBMD@?$AAP?$AAR?$AAT?$AAI?$AAT?$AAL?$AAE?$AA?$AA@,4
.local	$StringLiteralTok$??_C@_1BA@OGBOHOJD@?$AA?$HL?$AA0?$AA?$HN0?$PL?$AA?$HL?$AA1?$AA?$HN?$AA?$AA@,4
.local	$StringLiteralTok$??_C@_1O@FMCHEDFP@?$AAP?$AAR?$AAI?$AAT?$AAE?$AAM?$AA?$AA@,4
.local	$StringLiteralTok$??_C@_1BE@JGANJCLN@?$AAP?$AAR?$AAA?$AAT?$AAI?$AAC?$AAA?$AAL?$AAS?$AA?$AA@,4
.local	$StringLiteralTok$??_C@_1O@IDNNOHBB@?$AAP?$AAR?$AAT?$AAY?$AAP?$AAE?$AA?$AA@,4
.local	$StringLiteralTok$??_C@_1BA@IDJBDNFD@?$AAP?$AAR?$AAG?$AAR?$AAO?$AAU?$AAP?$AA?$AA@,4
.local	$StringLiteralTok$??_C@_1BG@DILJLNFP@?$AAP?$AAR?$AAG?$AAR?$AAO?$AAU?$AAP?$AAS?$AAE?$AAC?$AA?$AA@,4
.local	$StringLiteralTok$??_C@_17DIJKIHH@?$AAR?$AAE?$AAL?$AA?$AA@,4
.local	$StringLiteralTok$??_C@_1M@BCGNADEG@?$AAA?$AA?4?$AA?$HL?$AA0?$AA?$HN?$AA?$AA@,4
.local	$StringLiteralTok$??_C@_1M@GOOKHCIL@?$AAR?$AAE?$AAL?$AAI?$AAD?$AA?$AA@,4
.local	$StringLiteralTok$??_C@_1BA@PGBMFEGH@?$AAR?$AAE?$AAL?$AAT?$AAY?$AAP?$AAE?$AA?$AA@,4
.local	$StringLiteralTok$??_C@_1M@NBECDHGK@?$AAR?$AAI?$AAT?$AAE?$AAM?$AA?$AA@,4
.local	$StringLiteralTok$??_C@_19GBMLGHCO@?$AAR?$AAE?$AAL?$AAS?$AA?$AA@,4
.local	$StringLiteralTok$??_C@_1BA@BCMFKMLM@?$AAE?$AAX?$AAA?$AAM?$AAP?$AAL?$AAE?$AA?$AA@,4
.local	$StringLiteralTok$??_C@_1M@KPMOEFOH@?$AAM?$AAI?$AAT?$AAE?$AAM?$AA?$AA@,4
.local	$StringLiteralTok$??_C@_1M@LHHKPKI@?$AAM?$AAR?$AAA?$AAN?$AAK?$AA?$AA@,4
.local	?SegmentListA@Form1@WordDic@@3P$AAV?$List@P$AAVWDSegment@WDDatas@@@Generic@Collections@System@@$AA,4 ; WordDic::Form1::SegmentListA
.local	$StringLiteralTok$??_C@_1BA@JNODLMDO@?$AAM?$AAS?$AAP?$AAE?$AAE?$AAC?$AAH?$AA?$AA@,4
.local	$StringLiteralTok$??_C@_1BA@NKMMBKCF@?$AAA?$AAG?$AA?4?$AA?$HL?$AA0?$AA?$HN?$AA?5?$AA?$AA@,4
.local	$StringLiteralTok$??_C@_1BA@HCGLLHJA@?$AAG?$AAR?$AAO?$AAU?$AAP?$AAI?$AAD?$AA?$AA@,4
.local	$StringLiteralTok$??_C@_1M@BKMDHHDN@?$AAG?$AAR?$AAO?$AAU?$AAP?$AA?$AA@,4
.local	$StringLiteralTok$??_C@_1BG@GBHFCLLM@?$AA?$CIR?$AG?$JI?$FOT?$AN0LN?$ANf?$AO0g0Y?$AA?$CJ?$AA?$AA@,4
.local	$StringLiteralTok$??_C@_1M@EFPJKNIG@?$AAG?$AAI?$AAT?$AAE?$AAM?$AA?$AA@,4
.local	$TypeTok$110E4008$,4
.local	$StringLiteralTok$??_C@_1M@PGLAHLF@?$AAT?$AAR?$AAA?$AAN?$AAS?$AA?$AA@,4
.local	$StringLiteralTok$??_C@_1M@GFPDNBLG@?$AAB?$AA?4?$AA?$HL?$AA0?$AA?$HN?$AA?$AA@,4
.local	$StringLiteralTok$??_C@_1BA@FHEJDBO@?$AAT?$AAR?$AAA?$AAN?$AAS?$AAI?$AAD?$AA?$AA@,4
.local	$StringLiteralTok$??_C@_1M@DOHPJCIK@?$AAT?$AAI?$AAT?$AAE?$AAM?$AA?$AA@,4
.local	$StringLiteralTok$??_C@_1BA@LPHIDMED@?$AAT?$AAR?$AAA?$AAN?$AAS?$AAE?$AAS?$AA?$AA@,4
.local	$StringLiteralTok$??_C@_1O@MLINFOEE@?$AAM?$AAE?$AAA?$AAN?$AAN?$AAO?$AA?$AA@,4
.local	$StringLiteralTok$??_C@_19KJIDCBNH@?$AAM?$AAE?$AAA?$AAN?$AA?$AA@,4
.local	$StringLiteralTok$??_C@_1M@FLKIEKEJ@?$AAM?$AAE?$AAA?$AAN?$AAS?$AA?$AA@,4
.local	$StringLiteralTok$??_C@_1BC@HHJEFFNC@?$AAS?$AAU?$AAB?$AAR?$AAE?$AAA?$AAD?$AA2?$AA?$AA@,4
.local	$StringLiteralTok$??_C@_1BC@GFCBPKDM@?$AAS?$AAU?$AAB?$AAR?$AAE?$AAA?$AAD?$AA1?$AA?$AA@,4
.local	$StringLiteralTok$??_C@_1BA@HDGAGPEF@?$AAS?$AAU?$AAB?$AAW?$AAO?$AAR?$AAD?$AA?$AA@,4
.local	$StringLiteralTok$??_C@_1BA@NEINIDBL@?$AAS?$AAU?$AAB?$AAB?$AAA?$AAS?$AAE?$AA?$AA@,4
.local	$StringLiteralTok$??_C@_1BG@KDPHKGLK@?$AAS?$AAU?$AAB?$AAB?$AAA?$AAS?$AAE?$AAG?$AAR?$AAP?$AA?$AA@,4
.local	$StringLiteralTok$??_C@_1M@HCFILME@?$AAR?$AAE?$AAA?$AAD?$AA2?$AA?$AA@,4
.local	$StringLiteralTok$??_C@_1M@BFJACECK@?$AAR?$AAE?$AAA?$AAD?$AA1?$AA?$AA@,4
.local	$StringLiteralTok$??_C@_19OCDALMGP@?$AAW?$AAO?$AAR?$AAD?$AA?$AA@,4
.local	$StringLiteralTok$??_C@_19EFNNFADB@?$AAB?$AAA?$AAS?$AAE?$AA?$AA@,4
.local	$StringLiteralTok$??_C@_1BK@PFEKEJGF@SX?$IK?$JO0?G0?$PM0?$LP0L0B0?$IK0?$HO0?$FL0?$JD0?$AC?$AA?$AA@,4
.local	$StringLiteralTok$??_C@_1M@PJAKMKLD@?$AAW?$AAO?$AAR?$AAD?$AAS?$AA?$AA@,4
.local	?XSLTFNameA@WordDicCfg@WordDic@@3P$AAVString@System@@$AA,4 ; WordDic::WordDicCfg::XSLTFNameA
.local	?WDConfigParm@Form1@WordDic@@3P$AAVWordDicCfg@2@$AA,4 ; WordDic::Form1::WDConfigParm
.local	$StringLiteralTok$??_C@_1DG@BJGCJJAC@?$AAt?$AAy?$AAp?$AAe?$AA?$DN?$AA?$CC?$AAt?$AAe?$AAx?$AAt?$AA?1?$AAx?$AAs?$AAl?$AA?$CC?$AA?5?$AAh?$AAr?$AAe?$AAf?$AA?$DN?$AA?$CC?$AA?$HL?$AA0?$AA?$HN?$AA?$CC?$AA?$AA@,4
.local	$StringLiteralTok$??_C@_1BO@KOLDPIJO@?$AAx?$AAm?$AAl?$AA?9?$AAs?$AAt?$AAy?$AAl?$AAe?$AAs?$AAh?$AAe?$AAe?$AAt?$AA?$AA@,4
.local	$TypeTok$110E4038$,4
.local	$StringLiteralTok$??_C@_1CI@KBFBBMEC@SX?$IK?$JO0?G0?$PM0?$LP?$IIhy?30k0?$KI0?i0?$PM0Lvzu?$BP0W0?$HO0W0_0?$AC?$AA?$AA@,4
.local	?webBrowserBook@Form1@WordDic@@3P$AAVWebBrowser@Forms@Windows@System@@$AA,4 ; WordDic::Form1::webBrowserBook
; Function compile flags: /Ogtp
	.text
	.comdat	noduplicate, ?WordGrpDispA@Form1@WordDic@@$$FA$AAMXP$AAVWDWordGrp@2@@Z
.global	?WordGrpDispA@Form1@WordDic@@$$FA$AAMXP$AAVWDWordGrp@2@@Z ; WordDic::Form1::WordGrpDispA
?WordGrpDispA@Form1@WordDic@@$$FA$AAMXP$AAVWDWordGrp@2@@Z: ; WordDic::Form1::WordGrpDispA
;	.proc.def	D:V(P)

; Function Header:
; max stack depth = 7
; function size = 2186 bytes
; local varsig tk = 0x11000009 
; Exception Information:
; 3 handlers, each consisting of filtered handlers

;	.formal.mptr 0,"this$" SIG: Optional C Binding Modifier(token:0x749271).class (token:0x749274)
;	.formal.mptr 1,"inWordGrp$" SIG: class (token:0x73BD75)
;	.local.mptr 28,"$T36128" SIG: class (token:0x2FB9919)
;	.local.mptr 23,"tmpWordDicException$36111" SIG: class (token:0x74161D)
;	.local.mptr 32,"exp$36110" SIG: class (token:0x2FC21ED)
;	.local.u1 34,"$T36016" SIG: u1
;	.local.i4 35,"$T36014" SIG: i4
;	.local.mptr 29,"oldPrStr$" SIG: string
;	.local.mptr 5,"tmpRdStr$" SIG: string
;	.local.i4 13,"i$35977" SIG: i4
;	.local.i4 30,"tmpReadPattern$35974" SIG: i4
;	.local.i4 36,"$T35968" SIG: i4
;	.local.i4 7,"j$35962" SIG: i4
;	.local.mptr 9,"tmpWDRelation$" SIG: class (token:0x74A0AD)
;	.local.mptr 31,"tmpWDGroupTreeNode$35907" SIG: class (token:0x73B559)
;	.local.i4 10,"i$35903" SIG: i4
;	.local.mptr 14,"tmpGroupIDStr$" SIG: szarray (token:0x2FB9481)
;	.local.mptr 15,"tmpGroupIDLt$" SIG: szarray (token:0x749C75)
;	.local.mptr 16,"tmpGroupIDGt$" SIG: szarray (token:0x749C75)
;	.local.mptr 24,"tmpGroupID$" SIG: szarray (token:0x749C75)
;	.local.i4 37,"$T35889" SIG: i4
;	.local.i4 11,"j$35884" SIG: i4
;	.local.mptr 17,"tmpWDTrans$" SIG: class (token:0x735079)
;	.local.i4 38,"$T35879" SIG: i4
;	.local.mptr 3,"tmpWDMean$" SIG: class (token:0x2FB7E29)
;	.local.i4 18,"i$35873" SIG: i4
;	.local.i4 19,"i$35863" SIG: i4
;	.local.mptr 25,"tmpWordDicException$35855" SIG: class (token:0x74161D)
;	.local.mptr 2,"tmpWDWord$" SIG: class (token:0x7389E5)
;	.local.mptr 4,"tmpWDSubWord$" SIG: class (token:0x7389E5)
;	.local.mptr 39,"tmpGroup$" SIG: szarray (token:0x749C75)
;	.local.mptr 26,"tmpWordDicException$35181" SIG: class (token:0x74161D)
;	.local.mptr 33,"exp$35180" SIG: class (token:0x2FC21ED)
;	.local.i4 6,"oldSex$" SIG: i4
;	.local.i4 8,"oldGramatical$" SIG: i4
;	.local.i4 12,"oldPlurality$" SIG: i4
;	.local.i4 27,"oldPractical$" SIG: i4
;	.local.mptr 1,"tmpPrStr$" SIG: string
;	.local.mptr 20,"tmpGroupName$" SIG: string
;	.local.mptr 21,"tmpEnc$" SIG: class (token:0x2FC2D91)
;	.local.mptr 0,"XmlFStream$" SIG: class (token:0x2FC24E5)
;	.local.mptr 22,"XmlFName$" SIG: string

;	.proc.beg
; File c:\users\amotoo\documents\myproject\worddicbt\worddic\worddicdisp.cpp
; Line 459
	ldnull		0		; i32 0x0
	stloc.s		22		; XmlFName$
	ldnull		0		; i32 0x0
	stloc.0				; XmlFStream$
	ldnull		0		; i32 0x0
	stloc.s		21		; tmpEnc$
	ldnull		0		; i32 0x0
	stloc.s		20		; tmpGroupName$
	ldnull		0		; i32 0x0
	stloc.1				; tmpPrStr$
; Line 476
	ldc.i.-1	-1		; i32 0xffffffff
	stloc.s		27		; oldPractical$
; Line 477
	ldc.i.-1	-1		; i32 0xffffffff
	stloc.s		12		; oldPlurality$
; Line 478
	ldc.i.-1	-1		; i32 0xffffffff
	stloc.s		8		; oldGramatical$
; Line 479
	ldc.i.-1	-1		; i32 0xffffffff
	stloc.s		6		; oldSex$
$LN91@WordGrpDis:
; Line 488
	ldarg.1				; inWordGrp$
	call		?getXMLFname@WDWordGrp@WordDic@@$$FQ$AAMP$AAVString@System@@XZ
	ldnull		0		; i32 0x0
	call		??9String@System@@$$FSM_NP$AAV01@0@Z
	brfalse.s	$LN56@WordGrpDis
; Line 491
	ldarg.0				; this$
	ldfld		?webBrowserBook@Form1@WordDic@@3P$AAVWebBrowser@Forms@Windows@System@@$AA
	ldarg.1				; inWordGrp$
	call		?getXMLFname@WDWordGrp@WordDic@@$$FQ$AAMP$AAVString@System@@XZ
	newobj		??0Uri@System@@$$FQ$AAM@P$AAVString@1@@Z
	call		?set@Url@WebBrowser@Forms@Windows@System@@$$FQ$AAMXP$AAVUri@5@@Z
; Line 493
	leave		__tryend$?WordGrpDispA@Form1@WordDic@@$$FA$AAMXP$AAVWDWordGrp@2@@Z$4
$LN56@WordGrpDis:
	leave.s		$LN64@WordGrpDis
__catch$?WordGrpDispA@Form1@WordDic@@$$FA$AAMXP$AAVWDWordGrp@2@@Z$0:
; Line 496
	imp.push	
	stloc.s		33		; exp$35180
; Line 497
	ldstr		$StringLiteralTok$??_C@_1CI@KBFBBMEC@SX?$IK?$JO0?G0?$PM0?$LP?$IIhy?30k0?$KI0?i0?$PM0Lvzu?$BP0W0?$HO0W0_0?$AC?$AA?$AA@
	ldloc.s		33		; exp$35180
	newobj		??0WordDicException@WordDic@@$$FQ$AAM@P$AAVString@System@@P$AAVException@3@@Z
	stloc.s		26		; tmpWordDicException$35181
; Line 498
	ldloc.s		26		; tmpWordDicException$35181
	ldc.i4		31305		; i32 0x7a49
	stfld		?ErrorCode@WordDicException@WordDic@@3HA
; Line 499
	ldloc.s		26		; tmpWordDicException$35181
	ldc.i.1		1		; i32 0x1
	stfld		?ErrorCode2@WordDicException@WordDic@@3HA
; Line 500
	ldloc.s		26		; tmpWordDicException$35181
	throw.u2	
$LN73@WordGrpDis:
	leave.s		$LN64@WordGrpDis
$LN64@WordGrpDis:
	nop		
$LN92@WordGrpDis:
$LN93@WordGrpDis:
; Line 507
	ldc.i.4		4		; i32 0x4
	newarr		$TypeTok$110E4038$
	stloc.s		39		; tmpGroup$
; Line 509
	ldarg.0				; this$
	call		?getXMLFname@Form1@WordDic@@$$FA$AAMP$AAVString@System@@XZ
	stloc.s		22		; XmlFName$
; Line 511
	ldloc.s		22		; XmlFName$
	call		?get@Unicode@Encoding@Text@System@@$$FSMP$AAV234@XZ
	newobj		??0XmlTextWriter@Xml@System@@$$FQ$AAM@P$AAVString@2@P$AAVEncoding@Text@2@@Z
	stloc.0				; XmlFStream$
; Line 512
	ldloc.0				; XmlFStream$
	ldc.i.1		1		; i32 0x1
	call		?set@Formatting@XmlTextWriter@Xml@System@@$$FQ$AAMXW4134@@Z
; Line 513
	ldloc.0				; XmlFStream$
	ldc.i4.s	34		; u16 0x22
	call		?set@QuoteChar@XmlTextWriter@Xml@System@@$$FQ$AAMX_W@Z
; Line 514
	ldloc.0				; XmlFStream$
	callvirt	?WriteStartDocument@XmlTextWriter@Xml@System@@$$FU$AAMXXZ
; Line 516
	ldloc.0				; XmlFStream$
	ldstr		$StringLiteralTok$??_C@_1BO@KOLDPIJO@?$AAx?$AAm?$AAl?$AA?9?$AAs?$AAt?$AAy?$AAl?$AAe?$AAs?$AAh?$AAe?$AAe?$AAt?$AA?$AA@
	ldstr		$StringLiteralTok$??_C@_1DG@BJGCJJAC@?$AAt?$AAy?$AAp?$AAe?$AA?$DN?$AA?$CC?$AAt?$AAe?$AAx?$AAt?$AA?1?$AAx?$AAs?$AAl?$AA?$CC?$AA?5?$AAh?$AAr?$AAe?$AAf?$AA?$DN?$AA?$CC?$AA?$HL?$AA0?$AA?$HN?$AA?$CC?$AA?$AA@
	ldarg.0				; this$
	ldfld		?WDConfigParm@Form1@WordDic@@3P$AAVWordDicCfg@2@$AA
	ldfld		?XSLTFNameA@WordDicCfg@WordDic@@3P$AAVString@System@@$AA
	call		?Format@String@System@@$$FSMP$AAV12@P$AAV12@P$AAVObject@2@@Z
	callvirt	?WriteProcessingInstruction@XmlTextWriter@Xml@System@@$$FU$AAMXP$AAVString@3@0@Z
; Line 519
	ldloc.0				; XmlFStream$
	ldstr		$StringLiteralTok$??_C@_1M@PJAKMKLD@?$AAW?$AAO?$AAR?$AAD?$AAS?$AA?$AA@
	call		?WriteStartElement@XmlWriter@Xml@System@@$$FQ$AAMXP$AAVString@3@@Z
; Line 523
	ldarg.1				; inWordGrp$
	ldc.i.0		0		; i32 0x0
	call		?getBaseWord@WDWordGrp@WordDic@@$$FQ$AAMP$AAVWDWord@WDDatas@@H@Z
	stloc.s		4		; tmpWDSubWord$
	ldloc.s		4		; tmpWDSubWord$
	stloc.2				; tmpWDWord$
; Line 524
	ldloc.s		4		; tmpWDSubWord$
	brtrue.s	$LN54@WordGrpDis
; Line 526
	ldstr		$StringLiteralTok$??_C@_1BK@PFEKEJGF@SX?$IK?$JO0?G0?$PM0?$LP0L0B0?$IK0?$HO0?$FL0?$JD0?$AC?$AA?$AA@
	newobj		??0WordDicException@WordDic@@$$FQ$AAM@P$AAVString@System@@@Z
	stloc.s		25		; tmpWordDicException$35855
; Line 527
	ldloc.s		25		; tmpWordDicException$35855
	ldc.i4		31305		; i32 0x7a49
	stfld		?ErrorCode@WordDicException@WordDic@@3HA
; Line 528
	ldloc.s		25		; tmpWordDicException$35855
	ldc.i.2		2		; i32 0x2
	stfld		?ErrorCode2@WordDicException@WordDic@@3HA
; Line 529
	ldloc.s		25		; tmpWordDicException$35855
	throw.u2	
$LN54@WordGrpDis:
; Line 532
	ldloc.0				; XmlFStream$
	ldstr		$StringLiteralTok$??_C@_19EFNNFADB@?$AAB?$AAA?$AAS?$AAE?$AA?$AA@
	call		?WriteStartElement@XmlWriter@Xml@System@@$$FQ$AAMXP$AAVString@3@@Z
; Line 533
	ldloc.0				; XmlFStream$
	ldstr		$StringLiteralTok$??_C@_19OCDALMGP@?$AAW?$AAO?$AAR?$AAD?$AA?$AA@
	ldloc.s		4		; tmpWDSubWord$
	ldnull		0		; i32 0x0
	call		?getWord@WDWord@WDDatas@@$$FQ$AAMP$AAVString@System@@P$AAV34@@Z
	call		?WriteElementString@XmlWriter@Xml@System@@$$FQ$AAMXP$AAVString@3@0@Z
; Line 534
	ldloc.0				; XmlFStream$
	ldstr		$StringLiteralTok$??_C@_1M@BFJACECK@?$AAR?$AAE?$AAA?$AAD?$AA1?$AA?$AA@
	ldloc.s		4		; tmpWDSubWord$
	ldnull		0		; i32 0x0
	call		?getRead1@WDWord@WDDatas@@$$FQ$AAMP$AAVString@System@@P$AAV34@@Z
	call		?WriteElementString@XmlWriter@Xml@System@@$$FQ$AAMXP$AAVString@3@0@Z
; Line 535
	ldloc.0				; XmlFStream$
	ldstr		$StringLiteralTok$??_C@_1M@HCFILME@?$AAR?$AAE?$AAA?$AAD?$AA2?$AA?$AA@
	ldloc.s		4		; tmpWDSubWord$
	ldnull		0		; i32 0x0
	call		?getRead2@WDWord@WDDatas@@$$FQ$AAMP$AAVString@System@@P$AAV34@@Z
	call		?WriteElementString@XmlWriter@Xml@System@@$$FQ$AAMXP$AAVString@3@0@Z
; Line 536
	ldloc.0				; XmlFStream$
	callvirt	?WriteEndElement@XmlTextWriter@Xml@System@@$$FU$AAMXXZ
; Line 540
	ldloc.0				; XmlFStream$
	ldstr		$StringLiteralTok$??_C@_1BG@KDPHKGLK@?$AAS?$AAU?$AAB?$AAB?$AAA?$AAS?$AAE?$AAG?$AAR?$AAP?$AA?$AA@
	call		?WriteStartElement@XmlWriter@Xml@System@@$$FQ$AAMXP$AAVString@3@@Z
; Line 541
	ldc.i.1		1		; i32 0x1
	stloc.s		19		; i$35863
$LL53@WordGrpDis:
	ldloc.s		19		; i$35863
	ldarg.1				; inWordGrp$
	call		?getReadPatternCnt@WDWordGrp@WordDic@@$$FQ$AAMHXZ
	bge.s		$LN51@WordGrpDis
; Line 543
	ldarg.1				; inWordGrp$
	ldloc.s		19		; i$35863
	call		?getBaseWord@WDWordGrp@WordDic@@$$FQ$AAMP$AAVWDWord@WDDatas@@H@Z
	stloc.s		4		; tmpWDSubWord$
; Line 546
	ldloc.s		4		; tmpWDSubWord$
	brtrue.s	$LN50@WordGrpDis
; Line 548
	br.s		$LN52@WordGrpDis
$LN50@WordGrpDis:
; Line 551
	ldloc.0				; XmlFStream$
	ldstr		$StringLiteralTok$??_C@_1BA@NEINIDBL@?$AAS?$AAU?$AAB?$AAB?$AAA?$AAS?$AAE?$AA?$AA@
	call		?WriteStartElement@XmlWriter@Xml@System@@$$FQ$AAMXP$AAVString@3@@Z
; Line 552
	ldloc.0				; XmlFStream$
	ldstr		$StringLiteralTok$??_C@_1BA@HDGAGPEF@?$AAS?$AAU?$AAB?$AAW?$AAO?$AAR?$AAD?$AA?$AA@
	ldloc.s		4		; tmpWDSubWord$
	ldnull		0		; i32 0x0
	call		?getWord@WDWord@WDDatas@@$$FQ$AAMP$AAVString@System@@P$AAV34@@Z
	call		?WriteElementString@XmlWriter@Xml@System@@$$FQ$AAMXP$AAVString@3@0@Z
; Line 553
	ldloc.0				; XmlFStream$
	ldstr		$StringLiteralTok$??_C@_1BC@GFCBPKDM@?$AAS?$AAU?$AAB?$AAR?$AAE?$AAA?$AAD?$AA1?$AA?$AA@
	ldloc.s		4		; tmpWDSubWord$
	ldnull		0		; i32 0x0
	call		?getRead1@WDWord@WDDatas@@$$FQ$AAMP$AAVString@System@@P$AAV34@@Z
	call		?WriteElementString@XmlWriter@Xml@System@@$$FQ$AAMXP$AAVString@3@0@Z
; Line 554
	ldloc.0				; XmlFStream$
	ldstr		$StringLiteralTok$??_C@_1BC@HHJEFFNC@?$AAS?$AAU?$AAB?$AAR?$AAE?$AAA?$AAD?$AA2?$AA?$AA@
	ldloc.s		4		; tmpWDSubWord$
	ldnull		0		; i32 0x0
	call		?getRead2@WDWord@WDDatas@@$$FQ$AAMP$AAVString@System@@P$AAV34@@Z
	call		?WriteElementString@XmlWriter@Xml@System@@$$FQ$AAMXP$AAVString@3@0@Z
; Line 555
	ldloc.0				; XmlFStream$
	callvirt	?WriteEndElement@XmlTextWriter@Xml@System@@$$FU$AAMXXZ
$LN52@WordGrpDis:
; Line 541
	ldloc.s		19		; i$35863
	ldc.i.1		1		; i32 0x1
	add		
	stloc.s		19		; i$35863
	br.s		$LL53@WordGrpDis
$LN51@WordGrpDis:
; Line 557
	ldloc.0				; XmlFStream$
	callvirt	?WriteEndElement@XmlTextWriter@Xml@System@@$$FU$AAMXXZ
; Line 560
	ldloc.0				; XmlFStream$
	ldstr		$StringLiteralTok$??_C@_1M@FLKIEKEJ@?$AAM?$AAE?$AAA?$AAN?$AAS?$AA?$AA@
	call		?WriteStartElement@XmlWriter@Xml@System@@$$FQ$AAMXP$AAVString@3@@Z
; Line 562
	ldc.i.0		0		; i32 0x0
	stloc.s		18		; i$35873
$LL49@WordGrpDis:
	ldloc.s		18		; i$35873
	ldarg.1				; inWordGrp$
	call		?getMeanCnt@WDWordGrp@WordDic@@$$FQ$AAMHXZ
	bge		$LN47@WordGrpDis
; Line 564
	ldloc.0				; XmlFStream$
	ldstr		$StringLiteralTok$??_C@_19KJIDCBNH@?$AAM?$AAE?$AAA?$AAN?$AA?$AA@
	call		?WriteStartElement@XmlWriter@Xml@System@@$$FQ$AAMXP$AAVString@3@@Z
; Line 566
	ldarg.1				; inWordGrp$
	ldloc.s		18		; i$35873
	call		?getMean@WDWordGrp@WordDic@@$$FQ$AAMP$AAVWDMean@WDDatas@@H@Z
	stloc.3				; tmpWDMean$
; Line 567
	ldloc.3				; tmpWDMean$
	brtrue.s	$LN46@WordGrpDis
; Line 569
	br		$LN48@WordGrpDis
$LN46@WordGrpDis:
; Line 572
	ldloc.3				; tmpWDMean$
	call		?getMeanNo@WDMean@WDDatas@@$$FQ$AAMHXZ
	stloc.s		38		; $T35879
	ldloc.0				; XmlFStream$
	ldstr		$StringLiteralTok$??_C@_1O@MLINFOEE@?$AAM?$AAE?$AAA?$AAN?$AAN?$AAO?$AA?$AA@
	ldloca.s	38		; $T35879
	call		?ToString@Int32@System@@$$FU$CAMP$AAVString@2@XZ
	call		?WriteAttributeString@XmlWriter@Xml@System@@$$FQ$AAMXP$AAVString@3@0@Z
; Line 575
	ldarg.1				; inWordGrp$
	ldloc.3				; tmpWDMean$
	call		?getMeanNo@WDMean@WDDatas@@$$FQ$AAMHXZ
	call		?getTransNo@WDWordGrp@WordDic@@$$FQ$AAMP$AAVWDTrans@WDDatas@@H@Z
	stloc.s		17		; tmpWDTrans$
; Line 577
	ldloc.s		17		; tmpWDTrans$
	brfalse		$LN45@WordGrpDis
; Line 580
	ldloc.0				; XmlFStream$
	ldstr		$StringLiteralTok$??_C@_1BA@LPHIDMED@?$AAT?$AAR?$AAA?$AAN?$AAS?$AAE?$AAS?$AA?$AA@
	call		?WriteStartElement@XmlWriter@Xml@System@@$$FQ$AAMXP$AAVString@3@@Z
; Line 582
	ldc.i.0		0		; i32 0x0
	stloc.s		11		; j$35884
$LL44@WordGrpDis:
	ldloc.s		11		; j$35884
	ldloc.s		17		; tmpWDTrans$
	call		?CountTransID@WDTrans@WDDatas@@$$FQ$AAMHXZ
	bge.s		$LN42@WordGrpDis
; Line 585
	ldloc.0				; XmlFStream$
	ldstr		$StringLiteralTok$??_C@_1M@DOHPJCIK@?$AAT?$AAI?$AAT?$AAE?$AAM?$AA?$AA@
	call		?WriteStartElement@XmlWriter@Xml@System@@$$FQ$AAMXP$AAVString@3@@Z
; Line 588
	ldloc.s		17		; tmpWDTrans$
	ldloc.s		11		; j$35884
	call		?getTransID@WDTrans@WDDatas@@$$FQ$AAMHH@Z
	stloc.s		37		; $T35889
	ldloc.0				; XmlFStream$
	ldstr		$StringLiteralTok$??_C@_1BA@FHEJDBO@?$AAT?$AAR?$AAA?$AAN?$AAS?$AAI?$AAD?$AA?$AA@
	ldstr		$StringLiteralTok$??_C@_1M@GFPDNBLG@?$AAB?$AA?4?$AA?$HL?$AA0?$AA?$HN?$AA?$AA@
	ldloca.s	37		; $T35889
	call		?ToString@Int32@System@@$$FU$CAMP$AAVString@2@XZ
	call		?Format@String@System@@$$FSMP$AAV12@P$AAV12@P$AAVObject@2@@Z
	call		?WriteElementString@XmlWriter@Xml@System@@$$FQ$AAMXP$AAVString@3@0@Z
; Line 590
	ldloc.0				; XmlFStream$
	ldstr		$StringLiteralTok$??_C@_1M@PGLAHLF@?$AAT?$AAR?$AAA?$AAN?$AAS?$AA?$AA@
	ldarg.0				; this$
	ldloc.s		17		; tmpWDTrans$
	ldloc.s		11		; j$35884
	call		?getTransID@WDTrans@WDDatas@@$$FQ$AAMHH@Z
	call		?getTransWordA@Form1@WordDic@@$$FA$AAMP$AAVString@System@@H@Z
	call		?WriteElementString@XmlWriter@Xml@System@@$$FQ$AAMXP$AAVString@3@0@Z
; Line 593
	ldloc.0				; XmlFStream$
	callvirt	?WriteEndElement@XmlTextWriter@Xml@System@@$$FU$AAMXXZ
; Line 582
	ldloc.s		11		; j$35884
	ldc.i.1		1		; i32 0x1
	add		
	stloc.s		11		; j$35884
	br.s		$LL44@WordGrpDis
$LN42@WordGrpDis:
; Line 597
	ldloc.0				; XmlFStream$
	callvirt	?WriteEndElement@XmlTextWriter@Xml@System@@$$FU$AAMXXZ
$LN45@WordGrpDis:
; Line 601
	ldc.i.4		4		; i32 0x4
	newarr		$TypeTok$110E4038$
	stloc.s		24		; tmpGroupID$
; Line 602
	ldc.i.2		2		; i32 0x2
	newarr		$TypeTok$110E4038$
	stloc.s		16		; tmpGroupIDGt$
; Line 603
	ldc.i.2		2		; i32 0x2
	newarr		$TypeTok$110E4038$
	stloc.s		15		; tmpGroupIDLt$
; Line 604
	call		?get@ASCII@Encoding@Text@System@@$$FSMP$AAV234@XZ
	stloc.s		21		; tmpEnc$
; Line 605
	ldc.i.4		4		; i32 0x4
	newarr		$TypeTok$110E4008$
	stloc.s		14		; tmpGroupIDStr$
; Line 608
	ldloc.0				; XmlFStream$
	ldstr		$StringLiteralTok$??_C@_1M@EFPJKNIG@?$AAG?$AAI?$AAT?$AAE?$AAM?$AA?$AA@
	call		?WriteStartElement@XmlWriter@Xml@System@@$$FQ$AAMXP$AAVString@3@@Z
; Line 610
	ldc.i.0		0		; i32 0x0
	stloc.s		10		; i$35903
$LL41@WordGrpDis:
	ldloc.s		10		; i$35903
	ldloc.3				; tmpWDMean$
	call		?MeanGroupCount@WDMean@WDDatas@@$$FQ$AAMHXZ
	bge		$LN39@WordGrpDis
; Line 612
	ldloc.3				; tmpWDMean$
	ldloc.s		10		; i$35903
	ldloc.s		16		; tmpGroupIDGt$
	call		?getGroupGt@WDMean@WDDatas@@$$FQ$AAMP$01AEHP$01AE@Z
	stloc.s		16		; tmpGroupIDGt$
; Line 613
	ldloc.3				; tmpWDMean$
	ldloc.s		10		; i$35903
	ldloc.s		15		; tmpGroupIDLt$
	call		?getGroupLt@WDMean@WDDatas@@$$FQ$AAMP$01AEHP$01AE@Z
	stloc.s		15		; tmpGroupIDLt$
; Line 614
	ldloc.s		16		; tmpGroupIDGt$
	ldloc.s		24		; tmpGroupID$
	ldc.i.2		2		; i32 0x2
	call		?Copy@Array@System@@$$FSMXP$AAV12@0H@Z
; Line 615
	ldloc.s		15		; tmpGroupIDLt$
	ldc.i.0		0		; i32 0x0
	ldloc.s		24		; tmpGroupID$
	ldc.i.2		2		; i32 0x2
	ldc.i.2		2		; i32 0x2
	call		?Copy@Array@System@@$$FSMXP$AAV12@H0HH@Z
; Line 616
	ldloc.s		21		; tmpEnc$
	ldloc.s		24		; tmpGroupID$
	callvirt	?GetChars@Encoding@Text@System@@$$FU$AAMP$01A_WP$01AE@Z
	stloc.s		14		; tmpGroupIDStr$
; Line 618
	ldarg.0				; this$
	ldloc.s		16		; tmpGroupIDGt$
	ldloc.s		15		; tmpGroupIDLt$
	call		?getGroup@Form1@WordDic@@$$FA$AAMP$AAVWDGroupTreeNode@2@P$01AE0@Z
	stloc.s		31		; tmpWDGroupTreeNode$35907
; Line 620
	ldloc.s		31		; tmpWDGroupTreeNode$35907
	brfalse.s	$LN38@WordGrpDis
; Line 622
	ldloc.s		31		; tmpWDGroupTreeNode$35907
	ldnull		0		; i32 0x0
	call		?getName@WDGroupTreeNode@WordDic@@$$FQ$AAMP$AAVString@System@@P$AAV34@@Z
	stloc.s		20		; tmpGroupName$
; Line 623
	br.s		$LN37@WordGrpDis
$LN38@WordGrpDis:
; Line 624
	ldstr		$StringLiteralTok$??_C@_1BG@GBHFCLLM@?$AA?$CIR?$AG?$JI?$FOT?$AN0LN?$ANf?$AO0g0Y?$AA?$CJ?$AA?$AA@
	stloc.s		20		; tmpGroupName$
$LN37@WordGrpDis:
; Line 627
	ldloc.0				; XmlFStream$
	ldstr		$StringLiteralTok$??_C@_1M@BKMDHHDN@?$AAG?$AAR?$AAO?$AAU?$AAP?$AA?$AA@
	call		?WriteStartElement@XmlWriter@Xml@System@@$$FQ$AAMXP$AAVString@3@@Z
; Line 629
	ldloc.0				; XmlFStream$
	ldstr		$StringLiteralTok$??_C@_1BA@HCGLLHJA@?$AAG?$AAR?$AAO?$AAU?$AAP?$AAI?$AAD?$AA?$AA@
	ldstr		$StringLiteralTok$??_C@_1BA@NKMMBKCF@?$AAA?$AAG?$AA?4?$AA?$HL?$AA0?$AA?$HN?$AA?5?$AA?$AA@
	ldloc.s		14		; tmpGroupIDStr$
	newobj		??0String@System@@$$FQ$AAM@P$01A_W@Z
	call		?Format@String@System@@$$FSMP$AAV12@P$AAV12@P$AAVObject@2@@Z
	call		?WriteAttributeString@XmlWriter@Xml@System@@$$FQ$AAMXP$AAVString@3@0@Z
; Line 630
	ldloc.0				; XmlFStream$
	ldloc.s		20		; tmpGroupName$
	callvirt	?WriteString@XmlTextWriter@Xml@System@@$$FU$AAMXP$AAVString@3@@Z
; Line 631
	ldloc.0				; XmlFStream$
	callvirt	?WriteEndElement@XmlTextWriter@Xml@System@@$$FU$AAMXXZ
; Line 633
	ldnull		0		; i32 0x0
	stloc.s		14		; tmpGroupIDStr$
; Line 634
	ldnull		0		; i32 0x0
	stloc.s		14		; tmpGroupIDStr$
; Line 610
	ldloc.s		10		; i$35903
	ldc.i.1		1		; i32 0x1
	add		
	stloc.s		10		; i$35903
	br		$LL41@WordGrpDis
$LN39@WordGrpDis:
; Line 637
	ldloc.0				; XmlFStream$
	callvirt	?WriteEndElement@XmlTextWriter@Xml@System@@$$FU$AAMXXZ
; Line 640
	ldloc.0				; XmlFStream$
	ldstr		$StringLiteralTok$??_C@_1BA@JNODLMDO@?$AAM?$AAS?$AAP?$AAE?$AAE?$AAC?$AAH?$AA?$AA@
	ldarg.0				; this$
	dup		
	ldfld		?SegmentListA@Form1@WordDic@@3P$AAV?$List@P$AAVWDSegment@WDDatas@@@Generic@Collections@System@@$AA
	ldc.i.1		1		; i32 0x1
	ldloc.3				; tmpWDMean$
	call		?getSpeech@WDMean@WDDatas@@$$FQ$AAMEXZ
	call		?getSegment@Form1@WordDic@@$$FA$AAMP$AAVWDSegment@WDDatas@@P$AAV?$List@P$AAVWDSegment@WDDatas@@@Generic@Collections@System@@HH@Z
	ldnull		0		; i32 0x0
	call		?getName@WDSegment@WDDatas@@$$FQ$AAMP$AAVString@System@@P$AAV34@@Z
	call		?WriteElementString@XmlWriter@Xml@System@@$$FQ$AAMXP$AAVString@3@0@Z
; Line 642
	ldloc.0				; XmlFStream$
	ldstr		$StringLiteralTok$??_C@_1M@LHHKPKI@?$AAM?$AAR?$AAA?$AAN?$AAK?$AA?$AA@
	ldarg.0				; this$
	dup		
	ldfld		?SegmentListA@Form1@WordDic@@3P$AAV?$List@P$AAVWDSegment@WDDatas@@@Generic@Collections@System@@$AA
	ldc.i.8		8		; i32 0x8
	ldloc.3				; tmpWDMean$
	call		?getRank@WDMean@WDDatas@@$$FQ$AAMHXZ
	call		?getSegment@Form1@WordDic@@$$FA$AAMP$AAVWDSegment@WDDatas@@P$AAV?$List@P$AAVWDSegment@WDDatas@@@Generic@Collections@System@@HH@Z
	ldnull		0		; i32 0x0
	call		?getName@WDSegment@WDDatas@@$$FQ$AAMP$AAVString@System@@P$AAV34@@Z
	call		?WriteElementString@XmlWriter@Xml@System@@$$FQ$AAMXP$AAVString@3@0@Z
; Line 643
	ldloc.0				; XmlFStream$
	ldstr		$StringLiteralTok$??_C@_1M@KPMOEFOH@?$AAM?$AAI?$AAT?$AAE?$AAM?$AA?$AA@
	ldloc.3				; tmpWDMean$
	ldnull		0		; i32 0x0
	call		?getMean@WDMean@WDDatas@@$$FQ$AAMP$AAVString@System@@P$AAV34@@Z
	call		?WriteElementString@XmlWriter@Xml@System@@$$FQ$AAMXP$AAVString@3@0@Z
; Line 644
	ldloc.0				; XmlFStream$
	ldstr		$StringLiteralTok$??_C@_1BA@BCMFKMLM@?$AAE?$AAX?$AAA?$AAM?$AAP?$AAL?$AAE?$AA?$AA@
	ldloc.3				; tmpWDMean$
	ldnull		0		; i32 0x0
	call		?getExample@WDMean@WDDatas@@$$FQ$AAMP$AAVString@System@@P$AAV34@@Z
	call		?WriteElementString@XmlWriter@Xml@System@@$$FQ$AAMXP$AAVString@3@0@Z
; Line 647
	ldarg.1				; inWordGrp$
	ldloc.3				; tmpWDMean$
	call		?getMeanNo@WDMean@WDDatas@@$$FQ$AAMHXZ
	call		?getRelationNo@WDWordGrp@WordDic@@$$FQ$AAMP$AAVWDRelation@WDDatas@@H@Z
	stloc.s		9		; tmpWDRelation$
; Line 649
	ldloc.s		9		; tmpWDRelation$
	brfalse		$LN36@WordGrpDis
; Line 652
	ldloc.0				; XmlFStream$
	ldstr		$StringLiteralTok$??_C@_19GBMLGHCO@?$AAR?$AAE?$AAL?$AAS?$AA?$AA@
	call		?WriteStartElement@XmlWriter@Xml@System@@$$FQ$AAMXP$AAVString@3@@Z
; Line 654
	ldc.i.0		0		; i32 0x0
	stloc.s		7		; j$35962
$LL35@WordGrpDis:
	ldloc.s		7		; j$35962
	ldloc.s		9		; tmpWDRelation$
	call		?CountRelation@WDRelation@WDDatas@@$$FQ$AAMHXZ
	bge		$LN33@WordGrpDis
; Line 656
	ldloc.0				; XmlFStream$
	ldstr		$StringLiteralTok$??_C@_1M@NBECDHGK@?$AAR?$AAI?$AAT?$AAE?$AAM?$AA?$AA@
	call		?WriteStartElement@XmlWriter@Xml@System@@$$FQ$AAMXP$AAVString@3@@Z
; Line 659
	ldloc.0				; XmlFStream$
	ldstr		$StringLiteralTok$??_C@_1BA@PGBMFEGH@?$AAR?$AAE?$AAL?$AAT?$AAY?$AAP?$AAE?$AA?$AA@
	ldarg.0				; this$
	dup		
	ldfld		?SegmentListA@Form1@WordDic@@3P$AAV?$List@P$AAVWDSegment@WDDatas@@@Generic@Collections@System@@$AA
	ldc.i.7		7		; i32 0x7
	ldloc.s		9		; tmpWDRelation$
	ldloc.s		7		; j$35962
	call		?getRelationType@WDRelation@WDDatas@@$$FQ$AAMHH@Z
	call		?getSegment@Form1@WordDic@@$$FA$AAMP$AAVWDSegment@WDDatas@@P$AAV?$List@P$AAVWDSegment@WDDatas@@@Generic@Collections@System@@HH@Z
	ldnull		0		; i32 0x0
	call		?getName@WDSegment@WDDatas@@$$FQ$AAMP$AAVString@System@@P$AAV34@@Z
	call		?WriteElementString@XmlWriter@Xml@System@@$$FQ$AAMXP$AAVString@3@0@Z
; Line 661
	ldloc.s		9		; tmpWDRelation$
	ldloc.s		7		; j$35962
	call		?getRelationID@WDRelation@WDDatas@@$$FQ$AAMHH@Z
	stloc.s		36		; $T35968
	ldloc.0				; XmlFStream$
	ldstr		$StringLiteralTok$??_C@_1M@GOOKHCIL@?$AAR?$AAE?$AAL?$AAI?$AAD?$AA?$AA@
	ldstr		$StringLiteralTok$??_C@_1M@BCGNADEG@?$AAA?$AA?4?$AA?$HL?$AA0?$AA?$HN?$AA?$AA@
	ldloca.s	36		; $T35968
	call		?ToString@Int32@System@@$$FU$CAMP$AAVString@2@XZ
	call		?Format@String@System@@$$FSMP$AAV12@P$AAV12@P$AAVObject@2@@Z
	call		?WriteElementString@XmlWriter@Xml@System@@$$FQ$AAMXP$AAVString@3@0@Z
; Line 663
	ldloc.0				; XmlFStream$
	ldstr		$StringLiteralTok$??_C@_17DIJKIHH@?$AAR?$AAE?$AAL?$AA?$AA@
	ldarg.0				; this$
	ldloc.s		9		; tmpWDRelation$
	ldloc.s		7		; j$35962
	call		?getRelationID@WDRelation@WDDatas@@$$FQ$AAMHH@Z
	call		?getRelationWordA@Form1@WordDic@@$$FA$AAMP$AAVString@System@@H@Z
	call		?WriteElementString@XmlWriter@Xml@System@@$$FQ$AAMXP$AAVString@3@0@Z
; Line 666
	ldloc.0				; XmlFStream$
	callvirt	?WriteEndElement@XmlTextWriter@Xml@System@@$$FU$AAMXXZ
; Line 654
	ldloc.s		7		; j$35962
	ldc.i.1		1		; i32 0x1
	add		
	stloc.s		7		; j$35962
	br		$LL35@WordGrpDis
$LN33@WordGrpDis:
; Line 670
	ldloc.0				; XmlFStream$
	callvirt	?WriteEndElement@XmlTextWriter@Xml@System@@$$FU$AAMXXZ
$LN36@WordGrpDis:
; Line 674
	ldloc.0				; XmlFStream$
	callvirt	?WriteEndElement@XmlTextWriter@Xml@System@@$$FU$AAMXXZ
$LN48@WordGrpDis:
; Line 562
	ldloc.s		18		; i$35873
	ldc.i.1		1		; i32 0x1
	add		
	stloc.s		18		; i$35873
	br		$LL49@WordGrpDis
$LN47@WordGrpDis:
; Line 678
	ldloc.0				; XmlFStream$
	callvirt	?WriteEndElement@XmlTextWriter@Xml@System@@$$FU$AAMXXZ
; Line 682
	ldloc.0				; XmlFStream$
	ldstr		$StringLiteralTok$??_C@_1BG@DILJLNFP@?$AAP?$AAR?$AAG?$AAR?$AAO?$AAU?$AAP?$AAS?$AAE?$AAC?$AA?$AA@
	call		?WriteStartElement@XmlWriter@Xml@System@@$$FQ$AAMXP$AAVString@3@@Z
; Line 685
	ldloc.0				; XmlFStream$
	ldstr		$StringLiteralTok$??_C@_1BA@IDJBDNFD@?$AAP?$AAR?$AAG?$AAR?$AAO?$AAU?$AAP?$AA?$AA@
	call		?WriteStartElement@XmlWriter@Xml@System@@$$FQ$AAMXP$AAVString@3@@Z
; Line 688
	ldarg.1				; inWordGrp$
	ldc.i.0		0		; i32 0x0
	call		?getWord@WDWordGrp@WordDic@@$$FQ$AAMP$AAVWDWord@WDDatas@@H@Z
	stloc.2				; tmpWDWord$
; Line 689
	ldloc.2				; tmpWDWord$
	call		?getReadPattern@WDWord@WDDatas@@$$FQ$AAMEXZ
	stloc.s		30		; tmpReadPattern$35974
; Line 693
	ldloc.0				; XmlFStream$
	ldstr		$StringLiteralTok$??_C@_1O@IDNNOHBB@?$AAP?$AAR?$AAT?$AAY?$AAP?$AAE?$AA?$AA@
	ldarg.0				; this$
	dup		
	ldfld		?SegmentListA@Form1@WordDic@@3P$AAV?$List@P$AAVWDSegment@WDDatas@@@Generic@Collections@System@@$AA
	ldc.i.6		6		; i32 0x6
	ldloc.2				; tmpWDWord$
	call		?getType@WDWord@WDDatas@@$$FQ$AAMHXZ
	call		?getSegment@Form1@WordDic@@$$FA$AAMP$AAVWDSegment@WDDatas@@P$AAV?$List@P$AAVWDSegment@WDDatas@@@Generic@Collections@System@@HH@Z
	ldnull		0		; i32 0x0
	call		?getName@WDSegment@WDDatas@@$$FQ$AAMP$AAVString@System@@P$AAV34@@Z
	call		?WriteElementString@XmlWriter@Xml@System@@$$FQ$AAMXP$AAVString@3@0@Z
; Line 695
	ldloc.0				; XmlFStream$
	ldstr		$StringLiteralTok$??_C@_1BE@JGANJCLN@?$AAP?$AAR?$AAA?$AAT?$AAI?$AAC?$AAA?$AAL?$AAS?$AA?$AA@
	call		?WriteStartElement@XmlWriter@Xml@System@@$$FQ$AAMXP$AAVString@3@@Z
; Line 698
	ldc.i.0		0		; i32 0x0
	stloc.s		13		; i$35977
$LL32@WordGrpDis:
	ldloc.s		13		; i$35977
	ldarg.1				; inWordGrp$
	call		?getWordCnt@WDWordGrp@WordDic@@$$FQ$AAMHXZ
	bge		$LN30@WordGrpDis
; Line 701
	ldarg.1				; inWordGrp$
	ldloc.s		13		; i$35977
	call		?getWord@WDWordGrp@WordDic@@$$FQ$AAMP$AAVWDWord@WDDatas@@H@Z
	stloc.2				; tmpWDWord$
; Line 702
	ldloc.2				; tmpWDWord$
	brtrue.s	$LN29@WordGrpDis
; Line 704
	br		$LN31@WordGrpDis
$LN29@WordGrpDis:
; Line 706
	ldloc.s		30		; tmpReadPattern$35974
	ldloc.2				; tmpWDWord$
	call		?getReadPattern@WDWord@WDDatas@@$$FQ$AAMEXZ
	beq.s		$LN28@WordGrpDis
; Line 708
	ldloc.2				; tmpWDWord$
	call		?getReadPattern@WDWord@WDDatas@@$$FQ$AAMEXZ
	stloc.s		30		; tmpReadPattern$35974
; Line 710
	ldloc.0				; XmlFStream$
	callvirt	?WriteEndElement@XmlTextWriter@Xml@System@@$$FU$AAMXXZ
; Line 712
	ldloc.0				; XmlFStream$
	callvirt	?WriteEndElement@XmlTextWriter@Xml@System@@$$FU$AAMXXZ
; Line 714
	ldloc.0				; XmlFStream$
	ldstr		$StringLiteralTok$??_C@_1BA@IDJBDNFD@?$AAP?$AAR?$AAG?$AAR?$AAO?$AAU?$AAP?$AA?$AA@
	call		?WriteStartElement@XmlWriter@Xml@System@@$$FQ$AAMXP$AAVString@3@@Z
; Line 717
	ldloc.0				; XmlFStream$
	ldstr		$StringLiteralTok$??_C@_1O@IDNNOHBB@?$AAP?$AAR?$AAT?$AAY?$AAP?$AAE?$AA?$AA@
	ldarg.0				; this$
	dup		
	ldfld		?SegmentListA@Form1@WordDic@@3P$AAV?$List@P$AAVWDSegment@WDDatas@@@Generic@Collections@System@@$AA
	ldc.i.6		6		; i32 0x6
	ldloc.2				; tmpWDWord$
	call		?getType@WDWord@WDDatas@@$$FQ$AAMHXZ
	call		?getSegment@Form1@WordDic@@$$FA$AAMP$AAVWDSegment@WDDatas@@P$AAV?$List@P$AAVWDSegment@WDDatas@@@Generic@Collections@System@@HH@Z
	ldnull		0		; i32 0x0
	call		?getName@WDSegment@WDDatas@@$$FQ$AAMP$AAVString@System@@P$AAV34@@Z
	call		?WriteElementString@XmlWriter@Xml@System@@$$FQ$AAMXP$AAVString@3@0@Z
; Line 719
	ldloc.0				; XmlFStream$
	ldstr		$StringLiteralTok$??_C@_1BE@JGANJCLN@?$AAP?$AAR?$AAA?$AAT?$AAI?$AAC?$AAA?$AAL?$AAS?$AA?$AA@
	call		?WriteStartElement@XmlWriter@Xml@System@@$$FQ$AAMXP$AAVString@3@@Z
$LN28@WordGrpDis:
; Line 723
	ldloc.0				; XmlFStream$
	ldstr		$StringLiteralTok$??_C@_1O@FMCHEDFP@?$AAP?$AAR?$AAI?$AAT?$AAE?$AAM?$AA?$AA@
	call		?WriteStartElement@XmlWriter@Xml@System@@$$FQ$AAMXP$AAVString@3@@Z
; Line 726
	ldloc.s		27		; oldPractical$
	ldloc.2				; tmpWDWord$
	call		?getPractical@WDWord@WDDatas@@$$FQ$AAMEXZ
	beq.s		$LN27@WordGrpDis
; Line 728
	ldloc.2				; tmpWDWord$
	call		?getPractical@WDWord@WDDatas@@$$FQ$AAMEXZ
	stloc.s		27		; oldPractical$
; Line 729
	ldc.i.-1	-1		; i32 0xffffffff
	stloc.s		8		; oldGramatical$
; Line 730
	ldc.i.-1	-1		; i32 0xffffffff
	stloc.s		6		; oldSex$
; Line 731
	ldc.i.-1	-1		; i32 0xffffffff
	stloc.s		12		; oldPlurality$
; Line 732
	ldarg.0				; this$
	dup		
	ldfld		?SegmentListA@Form1@WordDic@@3P$AAV?$List@P$AAVWDSegment@WDDatas@@@Generic@Collections@System@@$AA
	ldc.i.2		2		; i32 0x2
	ldloc.s		27		; oldPractical$
	call		?getSegment@Form1@WordDic@@$$FA$AAMP$AAVWDSegment@WDDatas@@P$AAV?$List@P$AAVWDSegment@WDDatas@@@Generic@Collections@System@@HH@Z
	ldnull		0		; i32 0x0
	call		?getName@WDSegment@WDDatas@@$$FQ$AAMP$AAVString@System@@P$AAV34@@Z
	stloc.1				; tmpPrStr$
$LN27@WordGrpDis:
; Line 735
	ldloc.s		12		; oldPlurality$
	ldloc.2				; tmpWDWord$
	call		?getPlurality@WDWord@WDDatas@@$$FQ$AAMEXZ
	beq.s		$LN21@WordGrpDis
; Line 737
	ldloc.2				; tmpWDWord$
	call		?getPlurality@WDWord@WDDatas@@$$FQ$AAMEXZ
	stloc.s		12		; oldPlurality$
; Line 738
	ldc.i.-1	-1		; i32 0xffffffff
	stloc.s		8		; oldGramatical$
; Line 739
	ldc.i.-1	-1		; i32 0xffffffff
	stloc.s		6		; oldSex$
; Line 741
	ldloc.1				; tmpPrStr$
	ldnull		0		; i32 0x0
	call		??8String@System@@$$FSM_NP$AAV01@0@Z
	brtrue.s	$LN24@WordGrpDis
	ldloc.1				; tmpPrStr$
	call		?get@Length@String@System@@$$FQ$AAMHXZ
	brfalse.s	$LN24@WordGrpDis
; Line 746
	ldarg.0				; this$
	dup		
	ldfld		?SegmentListA@Form1@WordDic@@3P$AAV?$List@P$AAVWDSegment@WDDatas@@@Generic@Collections@System@@$AA
	ldc.i.4		4		; i32 0x4
	ldloc.s		12		; oldPlurality$
	call		?getSegment@Form1@WordDic@@$$FA$AAMP$AAVWDSegment@WDDatas@@P$AAV?$List@P$AAVWDSegment@WDDatas@@@Generic@Collections@System@@HH@Z
	ldnull		0		; i32 0x0
	call		?getName@WDSegment@WDDatas@@$$FQ$AAMP$AAVString@System@@P$AAV34@@Z
	stloc.s		5		; tmpRdStr$
; Line 747
	ldloc.s		5		; tmpRdStr$
	call		?get@Length@String@System@@$$FQ$AAMHXZ
	ldc.i.0		0		; i32 0x0
	ble.s		$LN21@WordGrpDis
; Line 749
	ldloc.1				; tmpPrStr$
	stloc.s		29		; oldPrStr$
; Line 750
	ldstr		$StringLiteralTok$??_C@_1BA@OGBOHOJD@?$AA?$HL?$AA0?$AA?$HN0?$PL?$AA?$HL?$AA1?$AA?$HN?$AA?$AA@
	ldloc.1				; tmpPrStr$
	ldloc.s		5		; tmpRdStr$
	call		?Format@String@System@@$$FSMP$AAV12@P$AAV12@P$AAVObject@2@1@Z
	stloc.1				; tmpPrStr$
	br.s		$LN21@WordGrpDis
$LN24@WordGrpDis:
; Line 743
	ldloc.1				; tmpPrStr$
	ldnull		0		; i32 0x0
	call		??9String@System@@$$FSM_NP$AAV01@0@Z
	pop		
; Line 744
	ldarg.0				; this$
	dup		
	ldfld		?SegmentListA@Form1@WordDic@@3P$AAV?$List@P$AAVWDSegment@WDDatas@@@Generic@Collections@System@@$AA
	ldc.i.4		4		; i32 0x4
	ldloc.s		12		; oldPlurality$
	call		?getSegment@Form1@WordDic@@$$FA$AAMP$AAVWDSegment@WDDatas@@P$AAV?$List@P$AAVWDSegment@WDDatas@@@Generic@Collections@System@@HH@Z
	ldnull		0		; i32 0x0
	call		?getName@WDSegment@WDDatas@@$$FQ$AAMP$AAVString@System@@P$AAV34@@Z
	stloc.1				; tmpPrStr$
$LN21@WordGrpDis:
; Line 758
	ldloc.s		8		; oldGramatical$
	ldloc.2				; tmpWDWord$
	call		?getGramatical@WDWord@WDDatas@@$$FQ$AAMEXZ
	beq.s		$LN15@WordGrpDis
; Line 760
	ldloc.2				; tmpWDWord$
	call		?getGramatical@WDWord@WDDatas@@$$FQ$AAMEXZ
	stloc.s		8		; oldGramatical$
; Line 761
	ldc.i.-1	-1		; i32 0xffffffff
	stloc.s		6		; oldSex$
; Line 763
	ldloc.1				; tmpPrStr$
	ldnull		0		; i32 0x0
	call		??8String@System@@$$FSM_NP$AAV01@0@Z
	brtrue.s	$LN18@WordGrpDis
	ldloc.1				; tmpPrStr$
	call		?get@Length@String@System@@$$FQ$AAMHXZ
	brfalse.s	$LN18@WordGrpDis
; Line 768
	ldarg.0				; this$
	dup		
	ldfld		?SegmentListA@Form1@WordDic@@3P$AAV?$List@P$AAVWDSegment@WDDatas@@@Generic@Collections@System@@$AA
	ldc.i.3		3		; i32 0x3
	ldloc.s		8		; oldGramatical$
	call		?getSegment@Form1@WordDic@@$$FA$AAMP$AAVWDSegment@WDDatas@@P$AAV?$List@P$AAVWDSegment@WDDatas@@@Generic@Collections@System@@HH@Z
	ldnull		0		; i32 0x0
	call		?getName@WDSegment@WDDatas@@$$FQ$AAMP$AAVString@System@@P$AAV34@@Z
	stloc.s		5		; tmpRdStr$
; Line 769
	ldloc.s		5		; tmpRdStr$
	call		?get@Length@String@System@@$$FQ$AAMHXZ
	ldc.i.0		0		; i32 0x0
	ble.s		$LN15@WordGrpDis
; Line 771
	ldloc.1				; tmpPrStr$
	stloc.s		29		; oldPrStr$
; Line 772
	ldstr		$StringLiteralTok$??_C@_1BA@OGBOHOJD@?$AA?$HL?$AA0?$AA?$HN0?$PL?$AA?$HL?$AA1?$AA?$HN?$AA?$AA@
	ldloc.1				; tmpPrStr$
	ldloc.s		5		; tmpRdStr$
	call		?Format@String@System@@$$FSMP$AAV12@P$AAV12@P$AAVObject@2@1@Z
	stloc.1				; tmpPrStr$
	br.s		$LN15@WordGrpDis
$LN18@WordGrpDis:
; Line 765
	ldloc.1				; tmpPrStr$
	ldnull		0		; i32 0x0
	call		??9String@System@@$$FSM_NP$AAV01@0@Z
	pop		
; Line 766
	ldarg.0				; this$
	dup		
	ldfld		?SegmentListA@Form1@WordDic@@3P$AAV?$List@P$AAVWDSegment@WDDatas@@@Generic@Collections@System@@$AA
	ldc.i.3		3		; i32 0x3
	ldloc.s		8		; oldGramatical$
	call		?getSegment@Form1@WordDic@@$$FA$AAMP$AAVWDSegment@WDDatas@@P$AAV?$List@P$AAVWDSegment@WDDatas@@@Generic@Collections@System@@HH@Z
	ldnull		0		; i32 0x0
	call		?getName@WDSegment@WDDatas@@$$FQ$AAMP$AAVString@System@@P$AAV34@@Z
	stloc.1				; tmpPrStr$
$LN15@WordGrpDis:
; Line 779
	ldloc.s		6		; oldSex$
	ldloc.2				; tmpWDWord$
	call		?getSex@WDWord@WDDatas@@$$FQ$AAMEXZ
	beq.s		$LN9@WordGrpDis
; Line 781
	ldloc.2				; tmpWDWord$
	call		?getSex@WDWord@WDDatas@@$$FQ$AAMEXZ
	stloc.s		6		; oldSex$
; Line 783
	ldloc.1				; tmpPrStr$
	ldnull		0		; i32 0x0
	call		??8String@System@@$$FSM_NP$AAV01@0@Z
	brtrue.s	$LN12@WordGrpDis
	ldloc.1				; tmpPrStr$
	call		?get@Length@String@System@@$$FQ$AAMHXZ
	brfalse.s	$LN12@WordGrpDis
; Line 788
	ldarg.0				; this$
	dup		
	ldfld		?SegmentListA@Form1@WordDic@@3P$AAV?$List@P$AAVWDSegment@WDDatas@@@Generic@Collections@System@@$AA
	ldc.i.5		5		; i32 0x5
	ldloc.s		6		; oldSex$
	call		?getSegment@Form1@WordDic@@$$FA$AAMP$AAVWDSegment@WDDatas@@P$AAV?$List@P$AAVWDSegment@WDDatas@@@Generic@Collections@System@@HH@Z
	ldnull		0		; i32 0x0
	call		?getName@WDSegment@WDDatas@@$$FQ$AAMP$AAVString@System@@P$AAV34@@Z
	stloc.s		5		; tmpRdStr$
; Line 789
	ldloc.s		5		; tmpRdStr$
	call		?get@Length@String@System@@$$FQ$AAMHXZ
	ldc.i.0		0		; i32 0x0
	ble.s		$LN9@WordGrpDis
; Line 791
	ldloc.1				; tmpPrStr$
	stloc.s		29		; oldPrStr$
; Line 792
	ldstr		$StringLiteralTok$??_C@_1BA@OGBOHOJD@?$AA?$HL?$AA0?$AA?$HN0?$PL?$AA?$HL?$AA1?$AA?$HN?$AA?$AA@
	ldloc.1				; tmpPrStr$
	ldloc.s		5		; tmpRdStr$
	call		?Format@String@System@@$$FSMP$AAV12@P$AAV12@P$AAVObject@2@1@Z
	stloc.1				; tmpPrStr$
	br.s		$LN9@WordGrpDis
$LN12@WordGrpDis:
; Line 785
	ldloc.1				; tmpPrStr$
	ldnull		0		; i32 0x0
	call		??9String@System@@$$FSM_NP$AAV01@0@Z
	pop		
; Line 786
	ldarg.0				; this$
	dup		
	ldfld		?SegmentListA@Form1@WordDic@@3P$AAV?$List@P$AAVWDSegment@WDDatas@@@Generic@Collections@System@@$AA
	ldc.i.5		5		; i32 0x5
	ldloc.s		6		; oldSex$
	call		?getSegment@Form1@WordDic@@$$FA$AAMP$AAVWDSegment@WDDatas@@P$AAV?$List@P$AAVWDSegment@WDDatas@@@Generic@Collections@System@@HH@Z
	ldnull		0		; i32 0x0
	call		?getName@WDSegment@WDDatas@@$$FQ$AAMP$AAVString@System@@P$AAV34@@Z
	stloc.1				; tmpPrStr$
$LN9@WordGrpDis:
; Line 799
	ldloc.0				; XmlFStream$
	ldstr		$StringLiteralTok$??_C@_1BA@EFJGKBMD@?$AAP?$AAR?$AAT?$AAI?$AAT?$AAL?$AAE?$AA?$AA@
	call		?WriteStartElement@XmlWriter@Xml@System@@$$FQ$AAMXP$AAVString@3@@Z
; Line 801
	ldloc.2				; tmpWDWord$
	call		?getType@WDWord@WDDatas@@$$FQ$AAMHXZ
	stloc.s		35		; $T36014
	ldloc.0				; XmlFStream$
	ldstr		$StringLiteralTok$??_C@_1BC@DIAOALNJ@?$AAP?$AAR?$AAT?$AAY?$AAP?$AAE?$AAI?$AAD?$AA?$AA@
	ldloca.s	35		; $T36014
	call		?ToString@Int32@System@@$$FU$CAMP$AAVString@2@XZ
	call		?WriteAttributeString@XmlWriter@Xml@System@@$$FQ$AAMXP$AAVString@3@0@Z
; Line 803
	ldloc.2				; tmpWDWord$
	call		?getPractical@WDWord@WDDatas@@$$FQ$AAMEXZ
	stloc.s		34		; $T36016
	ldloc.0				; XmlFStream$
	ldstr		$StringLiteralTok$??_C@_1BE@DDPPOOBK@?$AAP?$AAR?$AAT?$AAI?$AAC?$AAA?$AAL?$AAI?$AAD?$AA?$AA@
	ldloca.s	34		; $T36016
	call		?ToString@Byte@System@@$$FU$CAMP$AAVString@2@XZ
	call		?WriteAttributeString@XmlWriter@Xml@System@@$$FQ$AAMXP$AAVString@3@0@Z
; Line 804
	ldloc.0				; XmlFStream$
	ldloc.1				; tmpPrStr$
	callvirt	?WriteString@XmlTextWriter@Xml@System@@$$FU$AAMXP$AAVString@3@@Z
; Line 805
	ldloc.0				; XmlFStream$
	callvirt	?WriteEndElement@XmlTextWriter@Xml@System@@$$FU$AAMXXZ
; Line 807
	ldnull		0		; i32 0x0
	stloc.1				; tmpPrStr$
; Line 809
	ldloc.0				; XmlFStream$
	ldstr		$StringLiteralTok$??_C@_1O@CHEKKCNA@?$AAP?$AAR?$AAW?$AAO?$AAR?$AAD?$AA?$AA@
	ldloc.2				; tmpWDWord$
	ldnull		0		; i32 0x0
	call		?getWord@WDWord@WDDatas@@$$FQ$AAMP$AAVString@System@@P$AAV34@@Z
	call		?WriteElementString@XmlWriter@Xml@System@@$$FQ$AAMXP$AAVString@3@0@Z
; Line 810
	ldloc.0				; XmlFStream$
	ldstr		$StringLiteralTok$??_C@_1BA@IMMCGOEE@?$AAP?$AAR?$AAR?$AAE?$AAA?$AAD?$AA1?$AA?$AA@
	ldloc.2				; tmpWDWord$
	ldnull		0		; i32 0x0
	call		?getRead1@WDWord@WDDatas@@$$FQ$AAMP$AAVString@System@@P$AAV34@@Z
	call		?WriteElementString@XmlWriter@Xml@System@@$$FQ$AAMXP$AAVString@3@0@Z
; Line 811
	ldloc.0				; XmlFStream$
	ldstr		$StringLiteralTok$??_C@_1BA@JOHHMBKK@?$AAP?$AAR?$AAR?$AAE?$AAA?$AAD?$AA2?$AA?$AA@
	ldloc.2				; tmpWDWord$
	ldnull		0		; i32 0x0
	call		?getRead2@WDWord@WDDatas@@$$FQ$AAMP$AAVString@System@@P$AAV34@@Z
	call		?WriteElementString@XmlWriter@Xml@System@@$$FQ$AAMXP$AAVString@3@0@Z
; Line 814
	ldloc.0				; XmlFStream$
	callvirt	?WriteEndElement@XmlTextWriter@Xml@System@@$$FU$AAMXXZ
$LN31@WordGrpDis:
; Line 698
	ldloc.s		13		; i$35977
	ldc.i.1		1		; i32 0x1
	add		
	stloc.s		13		; i$35977
	br		$LL32@WordGrpDis
$LN30@WordGrpDis:
; Line 817
	ldloc.0				; XmlFStream$
	callvirt	?WriteEndElement@XmlTextWriter@Xml@System@@$$FU$AAMXXZ
; Line 819
	ldloc.0				; XmlFStream$
	callvirt	?WriteEndElement@XmlTextWriter@Xml@System@@$$FU$AAMXXZ
; Line 821
	ldloc.0				; XmlFStream$
	callvirt	?WriteEndElement@XmlTextWriter@Xml@System@@$$FU$AAMXXZ
; Line 825
	ldloc.0				; XmlFStream$
	callvirt	?WriteEndElement@XmlTextWriter@Xml@System@@$$FU$AAMXXZ
; Line 826
	ldloc.0				; XmlFStream$
	callvirt	?Flush@XmlTextWriter@Xml@System@@$$FU$AAMXXZ
; Line 827
	ldloc.0				; XmlFStream$
	callvirt	?Close@XmlTextWriter@Xml@System@@$$FU$AAMXXZ
; Line 830
	ldarg.1				; inWordGrp$
	ldloc.s		22		; XmlFName$
	call		?setXMLFname@WDWordGrp@WordDic@@$$FQ$AAMXP$AAVString@System@@@Z
; Line 831
	ldarg.0				; this$
	ldfld		?ReadedWordList@Form1@WordDic@@3P$AAV?$List@P$AAVWDWordGrp@WordDic@@@Generic@Collections@System@@$AA
	ldarg.1				; inWordGrp$
	callvirt	?Add@?$List@P$AAVWDWordGrp@WordDic@@@Generic@Collections@System@@$$FU$AAMXP$AAVWDWordGrp@WordDic@@@Z
; Line 832
	ldarg.0				; this$
	ldfld		?webBrowserBook@Form1@WordDic@@3P$AAVWebBrowser@Forms@Windows@System@@$AA
	ldarg.1				; inWordGrp$
	call		?getXMLFname@WDWordGrp@WordDic@@$$FQ$AAMP$AAVString@System@@XZ
	newobj		??0Uri@System@@$$FQ$AAM@P$AAVString@1@@Z
	call		?set@Url@WebBrowser@Forms@Windows@System@@$$FQ$AAMXP$AAVUri@5@@Z
	leave.s		$LN67@WordGrpDis
__catch$?WordGrpDispA@Form1@WordDic@@$$FA$AAMXP$AAVWDWordGrp@2@@Z$2:
; Line 834
	imp.push	
	stloc.s		32		; exp$36110
; Line 836
	ldstr		$StringLiteralTok$??_C@_1CK@PMOGJNC@?$IIhy?30?G0?$PM0?$LPO?2b?$BAfB0k0?$KI0?i0?$PM0Lvzu?$BP0W0?$HO0W0_0?$AC?$AA?$AA@
	ldloc.s		32		; exp$36110
	newobj		??0WordDicException@WordDic@@$$FQ$AAM@P$AAVString@System@@P$AAVException@3@@Z
	stloc.s		23		; tmpWordDicException$36111
; Line 837
	ldloc.s		23		; tmpWordDicException$36111
	ldc.i4		31305		; i32 0x7a49
	stfld		?ErrorCode@WordDicException@WordDic@@3HA
; Line 838
	ldloc.s		23		; tmpWordDicException$36111
	ldc.i.3		3		; i32 0x3
	stfld		?ErrorCode2@WordDicException@WordDic@@3HA
; Line 839
	ldloc.s		23		; tmpWordDicException$36111
	throw.u2	
$LN77@WordGrpDis:
	leave.s		$LN67@WordGrpDis
$LN67@WordGrpDis:
	br.s		$LN75@WordGrpDis
$LN76@WordGrpDis:
; Line 841
	leave.s		__tryend$?WordGrpDispA@Form1@WordDic@@$$FA$AAMXP$AAVWDWordGrp@2@@Z$4
$LN75@WordGrpDis:
	leave.s		__tryend$?WordGrpDispA@Form1@WordDic@@$$FA$AAMXP$AAVWDWordGrp@2@@Z$4
__catch$?WordGrpDispA@Form1@WordDic@@$$FA$AAMXP$AAVWDWordGrp@2@@Z$3:
; Line 842
	ldloc.s		22		; XmlFName$
	ldnull		0		; i32 0x0
	call		??9String@System@@$$FSM_NP$AAV01@0@Z
	pop		
; Line 843
	ldloc.0				; XmlFStream$
	brfalse.s	$LN60@WordGrpDis
	ldloc.0				; XmlFStream$
	callvirt	?<Dispose>@IDisposable@System@@$$FU$AAMXXZ
$LN60@WordGrpDis:
; Line 844
	ldloc.s		20		; tmpGroupName$
	ldnull		0		; i32 0x0
	call		??9String@System@@$$FSM_NP$AAV01@0@Z
	pop		
; Line 848
	ldloc.s		21		; tmpEnc$
	brfalse.s	$LN62@WordGrpDis
	ldloc.s		21		; tmpEnc$
	isInst		$TypeTok$1102D1B0$
	stloc.s		28		; $T36128
	ldloc.s		28		; $T36128
	brfalse.s	$LN62@WordGrpDis
	ldloc.s		28		; $T36128
	callvirt	?<Dispose>@IDisposable@System@@$$FU$AAMXXZ
$LN62@WordGrpDis:
; Line 850
	endfinally	
__tryend$?WordGrpDispA@Form1@WordDic@@$$FA$AAMXP$AAVWDWordGrp@2@@Z$4:
; Line 852
	ret		
 .end ?WordGrpDispA@Form1@WordDic@@$$FA$AAMXP$AAVWDWordGrp@2@@Z ; WordDic::Form1::WordGrpDispA
;	.proc.end.void
; Function compile flags: /Ogtp
	.text
	.comdat	any, ?<Dispose>@WDWordGrp@WordDic@@$$FU$AAMXXZ
.global	?<Dispose>@WDWordGrp@WordDic@@$$FU$AAMXXZ	; WordDic::WDWordGrp::<Dispose>
?<Dispose>@WDWordGrp@WordDic@@$$FU$AAMXXZ:		; WordDic::WDWordGrp::<Dispose>
;	.proc.def	D:V()

; Function Header:
; max stack depth = 2
; function size = 14 bytes
; local varsig tk = 0x0 
; Exception Information:
; 0 handlers, each consisting of filtered handlers

;	.formal.mptr 0,"this$" SIG: Optional C Binding Modifier(token:0x2FB8E65).class (token:0x2FB8E68)

;	.proc.beg
	ldarg.0				; this$
	ldc.i.1		1		; u8 0x1
	callvirt	?<Dispose>@WDWordGrp@WordDic@@$$FM$AAMX_N@Z
	ldarg.0				; this$
	call		?SuppressFinalize@GC@System@@$$FSMXP$AAVObject@2@@Z
	ret		
 .end ?<Dispose>@WDWordGrp@WordDic@@$$FU$AAMXXZ		; WordDic::WDWordGrp::<Dispose>
;	.proc.end.void
.global	?SegmentListB@Form1@WordDic@@3P$AAV?$List@P$AAVWDSegment@WDDatas@@@Generic@Collections@System@@$AA ; WordDic::Form1::SegmentListB
.global	?XSLTFNameB@WordDicCfg@WordDic@@3P$AAVString@System@@$AA ; WordDic::WordDicCfg::XSLTFNameB
	.bss
.local	$T37020,0
.local	?SegmentListB@Form1@WordDic@@3P$AAV?$List@P$AAVWDSegment@WDDatas@@@Generic@Collections@System@@$AA,4 ; WordDic::Form1::SegmentListB
.local	$StringLiteralTok$??_C@_1BA@PDAEKONH@?$AAB?$AAG?$AA?4?$AA?$HL?$AA0?$AA?$HN?$AA?5?$AA?$AA@,4
.local	?XSLTFNameB@WordDicCfg@WordDic@@3P$AAVString@System@@$AA,4 ; WordDic::WordDicCfg::XSLTFNameB
; Function compile flags: /Ogtp
	.text
	.comdat	noduplicate, ?WordGrpDispB@Form1@WordDic@@$$FA$AAMXP$AAVWDWordGrp@2@@Z
.global	?WordGrpDispB@Form1@WordDic@@$$FA$AAMXP$AAVWDWordGrp@2@@Z ; WordDic::Form1::WordGrpDispB
?WordGrpDispB@Form1@WordDic@@$$FA$AAMXP$AAVWDWordGrp@2@@Z: ; WordDic::Form1::WordGrpDispB
;	.proc.def	D:V(P)

; Function Header:
; max stack depth = 7
; function size = 2183 bytes
; local varsig tk = 0x1100000A 
; Exception Information:
; 3 handlers, each consisting of filtered handlers

;	.formal.mptr 0,"this$" SIG: Optional C Binding Modifier(token:0x749271).class (token:0x749274)
;	.formal.mptr 1,"inWordGrp$" SIG: class (token:0x73BD75)
;	.local.mptr 28,"$T36268" SIG: class (token:0x2FB9919)
;	.local.mptr 24,"tmpWordDicException$36254" SIG: class (token:0x74161D)
;	.local.mptr 32,"exp$36253" SIG: class (token:0x2FC21ED)
;	.local.u1 34,"$T36250" SIG: u1
;	.local.i4 35,"$T36249" SIG: i4
;	.local.mptr 29,"oldPrStr$" SIG: string
;	.local.mptr 4,"tmpRdStr$" SIG: string
;	.local.i4 13,"i$36215" SIG: i4
;	.local.i4 30,"tmpReadPattern$36214" SIG: i4
;	.local.i4 36,"$T36213" SIG: i4
;	.local.i4 6,"j$36209" SIG: i4
;	.local.mptr 8,"tmpWDRelation$" SIG: class (token:0x74A0AD)
;	.local.mptr 31,"tmpWDGroupTreeNode$36203" SIG: class (token:0x73B559)
;	.local.i4 37,"dummy$36202" SIG: i4
;	.local.i4 9,"i$36198" SIG: i4
;	.local.mptr 14,"tmpGroupIDStr$" SIG: szarray (token:0x2FB9481)
;	.local.mptr 15,"tmpGroupIDLt$" SIG: szarray (token:0x749C75)
;	.local.mptr 16,"tmpGroupIDGt$" SIG: szarray (token:0x749C75)
;	.local.mptr 17,"tmpGroupID$" SIG: szarray (token:0x749C75)
;	.local.i4 38,"$T36189" SIG: i4
;	.local.i4 10,"j$36185" SIG: i4
;	.local.mptr 18,"tmpWDTrans$" SIG: class (token:0x735079)
;	.local.i4 39,"$T36183" SIG: i4
;	.local.mptr 3,"tmpWDMean$" SIG: class (token:0x2FB7E29)
;	.local.i4 19,"i$36178" SIG: i4
;	.local.mptr 20,"tmpWDSubWord$" SIG: class (token:0x7389E5)
;	.local.i4 21,"i$36173" SIG: i4
;	.local.mptr 25,"tmpWordDicException$36171" SIG: class (token:0x74161D)
;	.local.mptr 1,"tmpWDWord$" SIG: class (token:0x7389E5)
;	.local.mptr 26,"tmpWordDicException$36166" SIG: class (token:0x74161D)
;	.local.mptr 33,"exp$36165" SIG: class (token:0x2FC21ED)
;	.local.i4 5,"oldSex$" SIG: i4
;	.local.i4 7,"oldGramatical$" SIG: i4
;	.local.i4 11,"oldPlurality$" SIG: i4
;	.local.i4 27,"oldPractical$" SIG: i4
;	.local.mptr 2,"tmpPrStr$" SIG: string
;	.local.mptr 22,"tmpGroupName$" SIG: string
;	.local.mptr 12,"tmpEnc$" SIG: class (token:0x2FC2D91)
;	.local.mptr 0,"XmlFStream$" SIG: class (token:0x2FC24E5)
;	.local.mptr 23,"XmlFName$" SIG: string

;	.proc.beg
; Line 856
	ldnull		0		; i32 0x0
	stloc.s		23		; XmlFName$
	ldnull		0		; i32 0x0
	stloc.0				; XmlFStream$
	ldnull		0		; i32 0x0
	stloc.s		12		; tmpEnc$
	ldnull		0		; i32 0x0
	stloc.s		22		; tmpGroupName$
	ldnull		0		; i32 0x0
	stloc.2				; tmpPrStr$
; Line 876
	ldc.i.-1	-1		; i32 0xffffffff
	stloc.s		27		; oldPractical$
; Line 877
	ldc.i.-1	-1		; i32 0xffffffff
	stloc.s		11		; oldPlurality$
; Line 878
	ldc.i.-1	-1		; i32 0xffffffff
	stloc.s		7		; oldGramatical$
; Line 879
	ldc.i.-1	-1		; i32 0xffffffff
	stloc.s		5		; oldSex$
$LN91@WordGrpDis@2:
; Line 884
	ldarg.1				; inWordGrp$
	call		?getXMLFname@WDWordGrp@WordDic@@$$FQ$AAMP$AAVString@System@@XZ
	ldnull		0		; i32 0x0
	call		??9String@System@@$$FSM_NP$AAV01@0@Z
	brfalse.s	$LN56@WordGrpDis@2
; Line 887
	ldarg.0				; this$
	ldfld		?webBrowserBook@Form1@WordDic@@3P$AAVWebBrowser@Forms@Windows@System@@$AA
	ldarg.1				; inWordGrp$
	call		?getXMLFname@WDWordGrp@WordDic@@$$FQ$AAMP$AAVString@System@@XZ
	newobj		??0Uri@System@@$$FQ$AAM@P$AAVString@1@@Z
	call		?set@Url@WebBrowser@Forms@Windows@System@@$$FQ$AAMXP$AAVUri@5@@Z
; Line 889
	leave		__tryend$?WordGrpDispB@Form1@WordDic@@$$FA$AAMXP$AAVWDWordGrp@2@@Z$4
$LN56@WordGrpDis@2:
	leave.s		$LN64@WordGrpDis@2
__catch$?WordGrpDispB@Form1@WordDic@@$$FA$AAMXP$AAVWDWordGrp@2@@Z$0:
; Line 892
	imp.push	
	stloc.s		33		; exp$36165
; Line 893
	ldstr		$StringLiteralTok$??_C@_1CI@KBFBBMEC@SX?$IK?$JO0?G0?$PM0?$LP?$IIhy?30k0?$KI0?i0?$PM0Lvzu?$BP0W0?$HO0W0_0?$AC?$AA?$AA@
	ldloc.s		33		; exp$36165
	newobj		??0WordDicException@WordDic@@$$FQ$AAM@P$AAVString@System@@P$AAVException@3@@Z
	stloc.s		26		; tmpWordDicException$36166
; Line 894
	ldloc.s		26		; tmpWordDicException$36166
	ldc.i4		31306		; i32 0x7a4a
	stfld		?ErrorCode@WordDicException@WordDic@@3HA
; Line 895
	ldloc.s		26		; tmpWordDicException$36166
	ldc.i.1		1		; i32 0x1
	stfld		?ErrorCode2@WordDicException@WordDic@@3HA
; Line 896
	ldloc.s		26		; tmpWordDicException$36166
	throw.u2	
$LN73@WordGrpDis@2:
	leave.s		$LN64@WordGrpDis@2
$LN64@WordGrpDis@2:
	nop		
$LN92@WordGrpDis@2:
$LN93@WordGrpDis@2:
; Line 903
	ldarg.0				; this$
	call		?getXMLFname@Form1@WordDic@@$$FA$AAMP$AAVString@System@@XZ
	stloc.s		23		; XmlFName$
; Line 905
	ldloc.s		23		; XmlFName$
	call		?get@Unicode@Encoding@Text@System@@$$FSMP$AAV234@XZ
	newobj		??0XmlTextWriter@Xml@System@@$$FQ$AAM@P$AAVString@2@P$AAVEncoding@Text@2@@Z
	stloc.0				; XmlFStream$
; Line 906
	ldloc.0				; XmlFStream$
	ldc.i.1		1		; i32 0x1
	call		?set@Formatting@XmlTextWriter@Xml@System@@$$FQ$AAMXW4134@@Z
; Line 907
	ldloc.0				; XmlFStream$
	ldc.i4.s	34		; u16 0x22
	call		?set@QuoteChar@XmlTextWriter@Xml@System@@$$FQ$AAMX_W@Z
; Line 908
	ldloc.0				; XmlFStream$
	callvirt	?WriteStartDocument@XmlTextWriter@Xml@System@@$$FU$AAMXXZ
; Line 910
	ldloc.0				; XmlFStream$
	ldstr		$StringLiteralTok$??_C@_1BO@KOLDPIJO@?$AAx?$AAm?$AAl?$AA?9?$AAs?$AAt?$AAy?$AAl?$AAe?$AAs?$AAh?$AAe?$AAe?$AAt?$AA?$AA@
	ldstr		$StringLiteralTok$??_C@_1DG@BJGCJJAC@?$AAt?$AAy?$AAp?$AAe?$AA?$DN?$AA?$CC?$AAt?$AAe?$AAx?$AAt?$AA?1?$AAx?$AAs?$AAl?$AA?$CC?$AA?5?$AAh?$AAr?$AAe?$AAf?$AA?$DN?$AA?$CC?$AA?$HL?$AA0?$AA?$HN?$AA?$CC?$AA?$AA@
	ldarg.0				; this$
	ldfld		?WDConfigParm@Form1@WordDic@@3P$AAVWordDicCfg@2@$AA
	ldfld		?XSLTFNameB@WordDicCfg@WordDic@@3P$AAVString@System@@$AA
	call		?Format@String@System@@$$FSMP$AAV12@P$AAV12@P$AAVObject@2@@Z
	callvirt	?WriteProcessingInstruction@XmlTextWriter@Xml@System@@$$FU$AAMXP$AAVString@3@0@Z
; Line 913
	ldloc.0				; XmlFStream$
	ldstr		$StringLiteralTok$??_C@_1M@PJAKMKLD@?$AAW?$AAO?$AAR?$AAD?$AAS?$AA?$AA@
	call		?WriteStartElement@XmlWriter@Xml@System@@$$FQ$AAMXP$AAVString@3@@Z
; Line 917
	ldarg.1				; inWordGrp$
	ldc.i.0		0		; i32 0x0
	call		?getBaseWord@WDWordGrp@WordDic@@$$FQ$AAMP$AAVWDWord@WDDatas@@H@Z
	stloc.1				; tmpWDWord$
; Line 918
	ldloc.1				; tmpWDWord$
	brtrue.s	$LN54@WordGrpDis@2
; Line 920
	ldstr		$StringLiteralTok$??_C@_1BK@PFEKEJGF@SX?$IK?$JO0?G0?$PM0?$LP0L0B0?$IK0?$HO0?$FL0?$JD0?$AC?$AA?$AA@
	newobj		??0WordDicException@WordDic@@$$FQ$AAM@P$AAVString@System@@@Z
	stloc.s		25		; tmpWordDicException$36171
; Line 921
	ldloc.s		25		; tmpWordDicException$36171
	ldc.i4		31306		; i32 0x7a4a
	stfld		?ErrorCode@WordDicException@WordDic@@3HA
; Line 922
	ldloc.s		25		; tmpWordDicException$36171
	ldc.i.2		2		; i32 0x2
	stfld		?ErrorCode2@WordDicException@WordDic@@3HA
; Line 923
	ldloc.s		25		; tmpWordDicException$36171
	throw.u2	
$LN54@WordGrpDis@2:
; Line 925
	ldloc.0				; XmlFStream$
	ldstr		$StringLiteralTok$??_C@_19EFNNFADB@?$AAB?$AAA?$AAS?$AAE?$AA?$AA@
	call		?WriteStartElement@XmlWriter@Xml@System@@$$FQ$AAMXP$AAVString@3@@Z
; Line 926
	ldloc.0				; XmlFStream$
	ldstr		$StringLiteralTok$??_C@_19OCDALMGP@?$AAW?$AAO?$AAR?$AAD?$AA?$AA@
	ldloc.1				; tmpWDWord$
	ldnull		0		; i32 0x0
	call		?getWord@WDWord@WDDatas@@$$FQ$AAMP$AAVString@System@@P$AAV34@@Z
	call		?WriteElementString@XmlWriter@Xml@System@@$$FQ$AAMXP$AAVString@3@0@Z
; Line 927
	ldloc.0				; XmlFStream$
	ldstr		$StringLiteralTok$??_C@_1M@BFJACECK@?$AAR?$AAE?$AAA?$AAD?$AA1?$AA?$AA@
	ldloc.1				; tmpWDWord$
	ldnull		0		; i32 0x0
	call		?getRead1@WDWord@WDDatas@@$$FQ$AAMP$AAVString@System@@P$AAV34@@Z
	call		?WriteElementString@XmlWriter@Xml@System@@$$FQ$AAMXP$AAVString@3@0@Z
; Line 928
	ldloc.0				; XmlFStream$
	ldstr		$StringLiteralTok$??_C@_1M@HCFILME@?$AAR?$AAE?$AAA?$AAD?$AA2?$AA?$AA@
	ldloc.1				; tmpWDWord$
	ldnull		0		; i32 0x0
	call		?getRead2@WDWord@WDDatas@@$$FQ$AAMP$AAVString@System@@P$AAV34@@Z
	call		?WriteElementString@XmlWriter@Xml@System@@$$FQ$AAMXP$AAVString@3@0@Z
; Line 929
	ldloc.0				; XmlFStream$
	callvirt	?WriteEndElement@XmlTextWriter@Xml@System@@$$FU$AAMXXZ
; Line 933
	ldloc.0				; XmlFStream$
	ldstr		$StringLiteralTok$??_C@_1BG@KDPHKGLK@?$AAS?$AAU?$AAB?$AAB?$AAA?$AAS?$AAE?$AAG?$AAR?$AAP?$AA?$AA@
	call		?WriteStartElement@XmlWriter@Xml@System@@$$FQ$AAMXP$AAVString@3@@Z
; Line 934
	ldc.i.1		1		; i32 0x1
	stloc.s		21		; i$36173
$LL53@WordGrpDis@2:
	ldloc.s		21		; i$36173
	ldarg.1				; inWordGrp$
	call		?getReadPatternCnt@WDWordGrp@WordDic@@$$FQ$AAMHXZ
	bge.s		$LN51@WordGrpDis@2
; Line 936
	ldarg.1				; inWordGrp$
	ldloc.s		21		; i$36173
	call		?getBaseWord@WDWordGrp@WordDic@@$$FQ$AAMP$AAVWDWord@WDDatas@@H@Z
	stloc.s		20		; tmpWDSubWord$
; Line 937
	ldloc.s		20		; tmpWDSubWord$
	brtrue.s	$LN50@WordGrpDis@2
; Line 939
	br.s		$LN52@WordGrpDis@2
$LN50@WordGrpDis@2:
; Line 941
	ldloc.0				; XmlFStream$
	ldstr		$StringLiteralTok$??_C@_1BA@NEINIDBL@?$AAS?$AAU?$AAB?$AAB?$AAA?$AAS?$AAE?$AA?$AA@
	call		?WriteStartElement@XmlWriter@Xml@System@@$$FQ$AAMXP$AAVString@3@@Z
; Line 942
	ldloc.0				; XmlFStream$
	ldstr		$StringLiteralTok$??_C@_1BA@HDGAGPEF@?$AAS?$AAU?$AAB?$AAW?$AAO?$AAR?$AAD?$AA?$AA@
	ldloc.s		20		; tmpWDSubWord$
	ldnull		0		; i32 0x0
	call		?getWord@WDWord@WDDatas@@$$FQ$AAMP$AAVString@System@@P$AAV34@@Z
	call		?WriteElementString@XmlWriter@Xml@System@@$$FQ$AAMXP$AAVString@3@0@Z
; Line 943
	ldloc.0				; XmlFStream$
	ldstr		$StringLiteralTok$??_C@_1BC@GFCBPKDM@?$AAS?$AAU?$AAB?$AAR?$AAE?$AAA?$AAD?$AA1?$AA?$AA@
	ldloc.s		20		; tmpWDSubWord$
	ldnull		0		; i32 0x0
	call		?getRead1@WDWord@WDDatas@@$$FQ$AAMP$AAVString@System@@P$AAV34@@Z
	call		?WriteElementString@XmlWriter@Xml@System@@$$FQ$AAMXP$AAVString@3@0@Z
; Line 944
	ldloc.0				; XmlFStream$
	ldstr		$StringLiteralTok$??_C@_1BC@HHJEFFNC@?$AAS?$AAU?$AAB?$AAR?$AAE?$AAA?$AAD?$AA2?$AA?$AA@
	ldloc.s		20		; tmpWDSubWord$
	ldnull		0		; i32 0x0
	call		?getRead2@WDWord@WDDatas@@$$FQ$AAMP$AAVString@System@@P$AAV34@@Z
	call		?WriteElementString@XmlWriter@Xml@System@@$$FQ$AAMXP$AAVString@3@0@Z
; Line 945
	ldloc.0				; XmlFStream$
	callvirt	?WriteEndElement@XmlTextWriter@Xml@System@@$$FU$AAMXXZ
$LN52@WordGrpDis@2:
; Line 934
	ldloc.s		21		; i$36173
	ldc.i.1		1		; i32 0x1
	add		
	stloc.s		21		; i$36173
	br.s		$LL53@WordGrpDis@2
$LN51@WordGrpDis@2:
; Line 947
	ldloc.0				; XmlFStream$
	callvirt	?WriteEndElement@XmlTextWriter@Xml@System@@$$FU$AAMXXZ
; Line 950
	ldloc.0				; XmlFStream$
	ldstr		$StringLiteralTok$??_C@_1M@FLKIEKEJ@?$AAM?$AAE?$AAA?$AAN?$AAS?$AA?$AA@
	call		?WriteStartElement@XmlWriter@Xml@System@@$$FQ$AAMXP$AAVString@3@@Z
; Line 952
	ldc.i.0		0		; i32 0x0
	stloc.s		19		; i$36178
$LL49@WordGrpDis@2:
	ldloc.s		19		; i$36178
	ldarg.1				; inWordGrp$
	call		?getMeanCnt@WDWordGrp@WordDic@@$$FQ$AAMHXZ
	bge		$LN47@WordGrpDis@2
; Line 954
	ldloc.0				; XmlFStream$
	ldstr		$StringLiteralTok$??_C@_19KJIDCBNH@?$AAM?$AAE?$AAA?$AAN?$AA?$AA@
	call		?WriteStartElement@XmlWriter@Xml@System@@$$FQ$AAMXP$AAVString@3@@Z
; Line 956
	ldarg.1				; inWordGrp$
	ldloc.s		19		; i$36178
	call		?getMean@WDWordGrp@WordDic@@$$FQ$AAMP$AAVWDMean@WDDatas@@H@Z
	stloc.3				; tmpWDMean$
; Line 957
	ldloc.3				; tmpWDMean$
	brtrue.s	$LN46@WordGrpDis@2
; Line 959
	br		$LN48@WordGrpDis@2
$LN46@WordGrpDis@2:
; Line 963
	ldloc.3				; tmpWDMean$
	call		?getMeanNo@WDMean@WDDatas@@$$FQ$AAMHXZ
	stloc.s		39		; $T36183
	ldloc.0				; XmlFStream$
	ldstr		$StringLiteralTok$??_C@_1O@MLINFOEE@?$AAM?$AAE?$AAA?$AAN?$AAN?$AAO?$AA?$AA@
	ldloca.s	39		; $T36183
	call		?ToString@Int32@System@@$$FU$CAMP$AAVString@2@XZ
	call		?WriteAttributeString@XmlWriter@Xml@System@@$$FQ$AAMXP$AAVString@3@0@Z
; Line 966
	ldarg.1				; inWordGrp$
	ldloc.3				; tmpWDMean$
	call		?getMeanNo@WDMean@WDDatas@@$$FQ$AAMHXZ
	call		?getTransNo@WDWordGrp@WordDic@@$$FQ$AAMP$AAVWDTrans@WDDatas@@H@Z
	stloc.s		18		; tmpWDTrans$
; Line 968
	ldloc.s		18		; tmpWDTrans$
	brfalse		$LN45@WordGrpDis@2
; Line 971
	ldloc.0				; XmlFStream$
	ldstr		$StringLiteralTok$??_C@_1BA@LPHIDMED@?$AAT?$AAR?$AAA?$AAN?$AAS?$AAE?$AAS?$AA?$AA@
	call		?WriteStartElement@XmlWriter@Xml@System@@$$FQ$AAMXP$AAVString@3@@Z
; Line 973
	ldc.i.0		0		; i32 0x0
	stloc.s		10		; j$36185
$LL44@WordGrpDis@2:
	ldloc.s		10		; j$36185
	ldloc.s		18		; tmpWDTrans$
	call		?CountTransID@WDTrans@WDDatas@@$$FQ$AAMHXZ
	bge.s		$LN42@WordGrpDis@2
; Line 976
	ldloc.0				; XmlFStream$
	ldstr		$StringLiteralTok$??_C@_1M@DOHPJCIK@?$AAT?$AAI?$AAT?$AAE?$AAM?$AA?$AA@
	call		?WriteStartElement@XmlWriter@Xml@System@@$$FQ$AAMXP$AAVString@3@@Z
; Line 979
	ldloc.s		18		; tmpWDTrans$
	ldloc.s		10		; j$36185
	call		?getTransID@WDTrans@WDDatas@@$$FQ$AAMHH@Z
	stloc.s		38		; $T36189
	ldloc.0				; XmlFStream$
	ldstr		$StringLiteralTok$??_C@_1BA@FHEJDBO@?$AAT?$AAR?$AAA?$AAN?$AAS?$AAI?$AAD?$AA?$AA@
	ldstr		$StringLiteralTok$??_C@_1M@BCGNADEG@?$AAA?$AA?4?$AA?$HL?$AA0?$AA?$HN?$AA?$AA@
	ldloca.s	38		; $T36189
	call		?ToString@Int32@System@@$$FU$CAMP$AAVString@2@XZ
	call		?Format@String@System@@$$FSMP$AAV12@P$AAV12@P$AAVObject@2@@Z
	call		?WriteElementString@XmlWriter@Xml@System@@$$FQ$AAMXP$AAVString@3@0@Z
; Line 981
	ldloc.0				; XmlFStream$
	ldstr		$StringLiteralTok$??_C@_1M@PGLAHLF@?$AAT?$AAR?$AAA?$AAN?$AAS?$AA?$AA@
	ldarg.0				; this$
	ldloc.s		18		; tmpWDTrans$
	ldloc.s		10		; j$36185
	call		?getTransID@WDTrans@WDDatas@@$$FQ$AAMHH@Z
	call		?getTransWordB@Form1@WordDic@@$$FA$AAMP$AAVString@System@@H@Z
	call		?WriteElementString@XmlWriter@Xml@System@@$$FQ$AAMXP$AAVString@3@0@Z
; Line 984
	ldloc.0				; XmlFStream$
	callvirt	?WriteEndElement@XmlTextWriter@Xml@System@@$$FU$AAMXXZ
; Line 973
	ldloc.s		10		; j$36185
	ldc.i.1		1		; i32 0x1
	add		
	stloc.s		10		; j$36185
	br.s		$LL44@WordGrpDis@2
$LN42@WordGrpDis@2:
; Line 988
	ldloc.0				; XmlFStream$
	callvirt	?WriteEndElement@XmlTextWriter@Xml@System@@$$FU$AAMXXZ
$LN45@WordGrpDis@2:
; Line 992
	ldc.i.4		4		; i32 0x4
	newarr		$TypeTok$110E4038$
	stloc.s		17		; tmpGroupID$
; Line 993
	ldc.i.2		2		; i32 0x2
	newarr		$TypeTok$110E4038$
	stloc.s		16		; tmpGroupIDGt$
; Line 994
	ldc.i.2		2		; i32 0x2
	newarr		$TypeTok$110E4038$
	stloc.s		15		; tmpGroupIDLt$
; Line 995
	call		?get@ASCII@Encoding@Text@System@@$$FSMP$AAV234@XZ
	stloc.s		12		; tmpEnc$
; Line 996
	ldc.i.4		4		; i32 0x4
	newarr		$TypeTok$110E4008$
	stloc.s		14		; tmpGroupIDStr$
; Line 999
	ldloc.0				; XmlFStream$
	ldstr		$StringLiteralTok$??_C@_1M@EFPJKNIG@?$AAG?$AAI?$AAT?$AAE?$AAM?$AA?$AA@
	call		?WriteStartElement@XmlWriter@Xml@System@@$$FQ$AAMXP$AAVString@3@@Z
; Line 1001
	ldc.i.0		0		; i32 0x0
	stloc.s		9		; i$36198
$LL41@WordGrpDis@2:
	ldloc.s		9		; i$36198
	ldloc.3				; tmpWDMean$
	call		?MeanGroupCount@WDMean@WDDatas@@$$FQ$AAMHXZ
	bge		$LN39@WordGrpDis@2
; Line 1003
	ldloc.3				; tmpWDMean$
	ldloc.s		9		; i$36198
	ldloc.s		16		; tmpGroupIDGt$
	call		?getGroupGt@WDMean@WDDatas@@$$FQ$AAMP$01AEHP$01AE@Z
	stloc.s		16		; tmpGroupIDGt$
; Line 1004
	ldloc.3				; tmpWDMean$
	ldloc.s		9		; i$36198
	ldloc.s		15		; tmpGroupIDLt$
	call		?getGroupLt@WDMean@WDDatas@@$$FQ$AAMP$01AEHP$01AE@Z
	stloc.s		15		; tmpGroupIDLt$
; Line 1005
	ldloc.s		16		; tmpGroupIDGt$
	ldloc.s		17		; tmpGroupID$
	ldc.i.2		2		; i32 0x2
	call		?Copy@Array@System@@$$FSMXP$AAV12@0H@Z
; Line 1006
	ldloc.s		15		; tmpGroupIDLt$
	ldc.i.0		0		; i32 0x0
	ldloc.s		17		; tmpGroupID$
	ldc.i.2		2		; i32 0x2
	ldc.i.2		2		; i32 0x2
	call		?Copy@Array@System@@$$FSMXP$AAV12@H0HH@Z
; Line 1007
	ldloc.s		12		; tmpEnc$
	ldloc.s		17		; tmpGroupID$
	ldc.i.0		0		; i32 0x0
	ldc.i.4		4		; i32 0x4
	callvirt	?GetCharCount@Encoding@Text@System@@$$FU$AAMHP$01AEHH@Z
	stloc.s		37		; dummy$36202
; Line 1008
	ldloc.s		12		; tmpEnc$
	ldloc.s		17		; tmpGroupID$
	callvirt	?GetChars@Encoding@Text@System@@$$FU$AAMP$01A_WP$01AE@Z
	stloc.s		14		; tmpGroupIDStr$
; Line 1010
	ldarg.0				; this$
	ldloc.s		16		; tmpGroupIDGt$
	ldloc.s		15		; tmpGroupIDLt$
	call		?getGroup@Form1@WordDic@@$$FA$AAMP$AAVWDGroupTreeNode@2@P$01AE0@Z
	stloc.s		31		; tmpWDGroupTreeNode$36203
; Line 1012
	ldloc.s		31		; tmpWDGroupTreeNode$36203
	brfalse.s	$LN38@WordGrpDis@2
; Line 1014
	ldloc.s		31		; tmpWDGroupTreeNode$36203
	ldnull		0		; i32 0x0
	call		?getName@WDGroupTreeNode@WordDic@@$$FQ$AAMP$AAVString@System@@P$AAV34@@Z
	stloc.s		22		; tmpGroupName$
; Line 1015
	br.s		$LN37@WordGrpDis@2
$LN38@WordGrpDis@2:
; Line 1016
	ldstr		$StringLiteralTok$??_C@_1BG@GBHFCLLM@?$AA?$CIR?$AG?$JI?$FOT?$AN0LN?$ANf?$AO0g0Y?$AA?$CJ?$AA?$AA@
	stloc.s		22		; tmpGroupName$
$LN37@WordGrpDis@2:
; Line 1019
	ldloc.0				; XmlFStream$
	ldstr		$StringLiteralTok$??_C@_1M@BKMDHHDN@?$AAG?$AAR?$AAO?$AAU?$AAP?$AA?$AA@
	call		?WriteStartElement@XmlWriter@Xml@System@@$$FQ$AAMXP$AAVString@3@@Z
; Line 1021
	ldloc.0				; XmlFStream$
	ldstr		$StringLiteralTok$??_C@_1BA@HCGLLHJA@?$AAG?$AAR?$AAO?$AAU?$AAP?$AAI?$AAD?$AA?$AA@
	ldstr		$StringLiteralTok$??_C@_1BA@PDAEKONH@?$AAB?$AAG?$AA?4?$AA?$HL?$AA0?$AA?$HN?$AA?5?$AA?$AA@
	ldloc.s		14		; tmpGroupIDStr$
	newobj		??0String@System@@$$FQ$AAM@P$01A_W@Z
	call		?Format@String@System@@$$FSMP$AAV12@P$AAV12@P$AAVObject@2@@Z
	call		?WriteAttributeString@XmlWriter@Xml@System@@$$FQ$AAMXP$AAVString@3@0@Z
; Line 1022
	ldloc.0				; XmlFStream$
	ldloc.s		22		; tmpGroupName$
	callvirt	?WriteString@XmlTextWriter@Xml@System@@$$FU$AAMXP$AAVString@3@@Z
; Line 1023
	ldloc.0				; XmlFStream$
	callvirt	?WriteEndElement@XmlTextWriter@Xml@System@@$$FU$AAMXXZ
; Line 1025
	ldnull		0		; i32 0x0
	stloc.s		14		; tmpGroupIDStr$
; Line 1026
	ldnull		0		; i32 0x0
	stloc.s		14		; tmpGroupIDStr$
; Line 1001
	ldloc.s		9		; i$36198
	ldc.i.1		1		; i32 0x1
	add		
	stloc.s		9		; i$36198
	br		$LL41@WordGrpDis@2
$LN39@WordGrpDis@2:
; Line 1028
	ldloc.0				; XmlFStream$
	callvirt	?WriteEndElement@XmlTextWriter@Xml@System@@$$FU$AAMXXZ
; Line 1031
	ldloc.0				; XmlFStream$
	ldstr		$StringLiteralTok$??_C@_1BA@JNODLMDO@?$AAM?$AAS?$AAP?$AAE?$AAE?$AAC?$AAH?$AA?$AA@
	ldarg.0				; this$
	dup		
	ldfld		?SegmentListB@Form1@WordDic@@3P$AAV?$List@P$AAVWDSegment@WDDatas@@@Generic@Collections@System@@$AA
	ldc.i.1		1		; i32 0x1
	ldloc.3				; tmpWDMean$
	call		?getSpeech@WDMean@WDDatas@@$$FQ$AAMEXZ
	call		?getSegment@Form1@WordDic@@$$FA$AAMP$AAVWDSegment@WDDatas@@P$AAV?$List@P$AAVWDSegment@WDDatas@@@Generic@Collections@System@@HH@Z
	ldnull		0		; i32 0x0
	call		?getName@WDSegment@WDDatas@@$$FQ$AAMP$AAVString@System@@P$AAV34@@Z
	call		?WriteElementString@XmlWriter@Xml@System@@$$FQ$AAMXP$AAVString@3@0@Z
; Line 1033
	ldloc.0				; XmlFStream$
	ldstr		$StringLiteralTok$??_C@_1M@LHHKPKI@?$AAM?$AAR?$AAA?$AAN?$AAK?$AA?$AA@
	ldarg.0				; this$
	dup		
	ldfld		?SegmentListB@Form1@WordDic@@3P$AAV?$List@P$AAVWDSegment@WDDatas@@@Generic@Collections@System@@$AA
	ldc.i.8		8		; i32 0x8
	ldloc.3				; tmpWDMean$
	call		?getRank@WDMean@WDDatas@@$$FQ$AAMHXZ
	call		?getSegment@Form1@WordDic@@$$FA$AAMP$AAVWDSegment@WDDatas@@P$AAV?$List@P$AAVWDSegment@WDDatas@@@Generic@Collections@System@@HH@Z
	ldnull		0		; i32 0x0
	call		?getName@WDSegment@WDDatas@@$$FQ$AAMP$AAVString@System@@P$AAV34@@Z
	call		?WriteElementString@XmlWriter@Xml@System@@$$FQ$AAMXP$AAVString@3@0@Z
; Line 1034
	ldloc.0				; XmlFStream$
	ldstr		$StringLiteralTok$??_C@_1M@KPMOEFOH@?$AAM?$AAI?$AAT?$AAE?$AAM?$AA?$AA@
	ldloc.3				; tmpWDMean$
	ldnull		0		; i32 0x0
	call		?getMean@WDMean@WDDatas@@$$FQ$AAMP$AAVString@System@@P$AAV34@@Z
	call		?WriteElementString@XmlWriter@Xml@System@@$$FQ$AAMXP$AAVString@3@0@Z
; Line 1035
	ldloc.0				; XmlFStream$
	ldstr		$StringLiteralTok$??_C@_1BA@BCMFKMLM@?$AAE?$AAX?$AAA?$AAM?$AAP?$AAL?$AAE?$AA?$AA@
	ldloc.3				; tmpWDMean$
	ldnull		0		; i32 0x0
	call		?getExample@WDMean@WDDatas@@$$FQ$AAMP$AAVString@System@@P$AAV34@@Z
	call		?WriteElementString@XmlWriter@Xml@System@@$$FQ$AAMXP$AAVString@3@0@Z
; Line 1038
	ldarg.1				; inWordGrp$
	ldloc.3				; tmpWDMean$
	call		?getMeanNo@WDMean@WDDatas@@$$FQ$AAMHXZ
	call		?getRelationNo@WDWordGrp@WordDic@@$$FQ$AAMP$AAVWDRelation@WDDatas@@H@Z
	stloc.s		8		; tmpWDRelation$
; Line 1040
	ldloc.s		8		; tmpWDRelation$
	brfalse		$LN36@WordGrpDis@2
; Line 1043
	ldloc.0				; XmlFStream$
	ldstr		$StringLiteralTok$??_C@_19GBMLGHCO@?$AAR?$AAE?$AAL?$AAS?$AA?$AA@
	call		?WriteStartElement@XmlWriter@Xml@System@@$$FQ$AAMXP$AAVString@3@@Z
; Line 1045
	ldc.i.0		0		; i32 0x0
	stloc.s		6		; j$36209
$LL35@WordGrpDis@2:
	ldloc.s		6		; j$36209
	ldloc.s		8		; tmpWDRelation$
	call		?CountRelation@WDRelation@WDDatas@@$$FQ$AAMHXZ
	bge		$LN33@WordGrpDis@2
; Line 1047
	ldloc.0				; XmlFStream$
	ldstr		$StringLiteralTok$??_C@_1M@NBECDHGK@?$AAR?$AAI?$AAT?$AAE?$AAM?$AA?$AA@
	call		?WriteStartElement@XmlWriter@Xml@System@@$$FQ$AAMXP$AAVString@3@@Z
; Line 1050
	ldloc.0				; XmlFStream$
	ldstr		$StringLiteralTok$??_C@_1BA@PGBMFEGH@?$AAR?$AAE?$AAL?$AAT?$AAY?$AAP?$AAE?$AA?$AA@
	ldarg.0				; this$
	dup		
	ldfld		?SegmentListB@Form1@WordDic@@3P$AAV?$List@P$AAVWDSegment@WDDatas@@@Generic@Collections@System@@$AA
	ldc.i.7		7		; i32 0x7
	ldloc.s		8		; tmpWDRelation$
	ldloc.s		6		; j$36209
	call		?getRelationType@WDRelation@WDDatas@@$$FQ$AAMHH@Z
	call		?getSegment@Form1@WordDic@@$$FA$AAMP$AAVWDSegment@WDDatas@@P$AAV?$List@P$AAVWDSegment@WDDatas@@@Generic@Collections@System@@HH@Z
	ldnull		0		; i32 0x0
	call		?getName@WDSegment@WDDatas@@$$FQ$AAMP$AAVString@System@@P$AAV34@@Z
	call		?WriteElementString@XmlWriter@Xml@System@@$$FQ$AAMXP$AAVString@3@0@Z
; Line 1052
	ldloc.s		8		; tmpWDRelation$
	ldloc.s		6		; j$36209
	call		?getRelationID@WDRelation@WDDatas@@$$FQ$AAMHH@Z
	stloc.s		36		; $T36213
	ldloc.0				; XmlFStream$
	ldstr		$StringLiteralTok$??_C@_1M@GOOKHCIL@?$AAR?$AAE?$AAL?$AAI?$AAD?$AA?$AA@
	ldstr		$StringLiteralTok$??_C@_1M@GFPDNBLG@?$AAB?$AA?4?$AA?$HL?$AA0?$AA?$HN?$AA?$AA@
	ldloca.s	36		; $T36213
	call		?ToString@Int32@System@@$$FU$CAMP$AAVString@2@XZ
	call		?Format@String@System@@$$FSMP$AAV12@P$AAV12@P$AAVObject@2@@Z
	call		?WriteElementString@XmlWriter@Xml@System@@$$FQ$AAMXP$AAVString@3@0@Z
; Line 1054
	ldloc.0				; XmlFStream$
	ldstr		$StringLiteralTok$??_C@_17DIJKIHH@?$AAR?$AAE?$AAL?$AA?$AA@
	ldarg.0				; this$
	ldloc.s		8		; tmpWDRelation$
	ldloc.s		6		; j$36209
	call		?getRelationID@WDRelation@WDDatas@@$$FQ$AAMHH@Z
	call		?getRelationWordB@Form1@WordDic@@$$FA$AAMP$AAVString@System@@H@Z
	call		?WriteElementString@XmlWriter@Xml@System@@$$FQ$AAMXP$AAVString@3@0@Z
; Line 1057
	ldloc.0				; XmlFStream$
	callvirt	?WriteEndElement@XmlTextWriter@Xml@System@@$$FU$AAMXXZ
; Line 1045
	ldloc.s		6		; j$36209
	ldc.i.1		1		; i32 0x1
	add		
	stloc.s		6		; j$36209
	br		$LL35@WordGrpDis@2
$LN33@WordGrpDis@2:
; Line 1061
	ldloc.0				; XmlFStream$
	callvirt	?WriteEndElement@XmlTextWriter@Xml@System@@$$FU$AAMXXZ
$LN36@WordGrpDis@2:
; Line 1065
	ldloc.0				; XmlFStream$
	callvirt	?WriteEndElement@XmlTextWriter@Xml@System@@$$FU$AAMXXZ
$LN48@WordGrpDis@2:
; Line 952
	ldloc.s		19		; i$36178
	ldc.i.1		1		; i32 0x1
	add		
	stloc.s		19		; i$36178
	br		$LL49@WordGrpDis@2
$LN47@WordGrpDis@2:
; Line 1069
	ldloc.0				; XmlFStream$
	callvirt	?WriteEndElement@XmlTextWriter@Xml@System@@$$FU$AAMXXZ
; Line 1073
	ldloc.0				; XmlFStream$
	ldstr		$StringLiteralTok$??_C@_1BG@DILJLNFP@?$AAP?$AAR?$AAG?$AAR?$AAO?$AAU?$AAP?$AAS?$AAE?$AAC?$AA?$AA@
	call		?WriteStartElement@XmlWriter@Xml@System@@$$FQ$AAMXP$AAVString@3@@Z
; Line 1075
	ldloc.0				; XmlFStream$
	ldstr		$StringLiteralTok$??_C@_1BA@IDJBDNFD@?$AAP?$AAR?$AAG?$AAR?$AAO?$AAU?$AAP?$AA?$AA@
	call		?WriteStartElement@XmlWriter@Xml@System@@$$FQ$AAMXP$AAVString@3@@Z
; Line 1078
	ldarg.1				; inWordGrp$
	ldc.i.0		0		; i32 0x0
	call		?getWord@WDWordGrp@WordDic@@$$FQ$AAMP$AAVWDWord@WDDatas@@H@Z
	stloc.1				; tmpWDWord$
; Line 1079
	ldloc.1				; tmpWDWord$
	call		?getReadPattern@WDWord@WDDatas@@$$FQ$AAMEXZ
	stloc.s		30		; tmpReadPattern$36214
; Line 1083
	ldloc.0				; XmlFStream$
	ldstr		$StringLiteralTok$??_C@_1O@IDNNOHBB@?$AAP?$AAR?$AAT?$AAY?$AAP?$AAE?$AA?$AA@
	ldarg.0				; this$
	dup		
	ldfld		?SegmentListB@Form1@WordDic@@3P$AAV?$List@P$AAVWDSegment@WDDatas@@@Generic@Collections@System@@$AA
	ldc.i.6		6		; i32 0x6
	ldloc.1				; tmpWDWord$
	call		?getType@WDWord@WDDatas@@$$FQ$AAMHXZ
	call		?getSegment@Form1@WordDic@@$$FA$AAMP$AAVWDSegment@WDDatas@@P$AAV?$List@P$AAVWDSegment@WDDatas@@@Generic@Collections@System@@HH@Z
	ldnull		0		; i32 0x0
	call		?getName@WDSegment@WDDatas@@$$FQ$AAMP$AAVString@System@@P$AAV34@@Z
	call		?WriteElementString@XmlWriter@Xml@System@@$$FQ$AAMXP$AAVString@3@0@Z
; Line 1085
	ldloc.0				; XmlFStream$
	ldstr		$StringLiteralTok$??_C@_1BE@JGANJCLN@?$AAP?$AAR?$AAA?$AAT?$AAI?$AAC?$AAA?$AAL?$AAS?$AA?$AA@
	call		?WriteStartElement@XmlWriter@Xml@System@@$$FQ$AAMXP$AAVString@3@@Z
; Line 1088
	ldc.i.0		0		; i32 0x0
	stloc.s		13		; i$36215
$LL32@WordGrpDis@2:
	ldloc.s		13		; i$36215
	ldarg.1				; inWordGrp$
	call		?getWordCnt@WDWordGrp@WordDic@@$$FQ$AAMHXZ
	bge		$LN30@WordGrpDis@2
; Line 1090
	ldarg.1				; inWordGrp$
	ldloc.s		13		; i$36215
	call		?getWord@WDWordGrp@WordDic@@$$FQ$AAMP$AAVWDWord@WDDatas@@H@Z
	stloc.1				; tmpWDWord$
; Line 1091
	ldloc.1				; tmpWDWord$
	brtrue.s	$LN29@WordGrpDis@2
; Line 1093
	br		$LN31@WordGrpDis@2
$LN29@WordGrpDis@2:
; Line 1096
	ldloc.s		30		; tmpReadPattern$36214
	ldloc.1				; tmpWDWord$
	call		?getReadPattern@WDWord@WDDatas@@$$FQ$AAMEXZ
	beq.s		$LN28@WordGrpDis@2
; Line 1098
	ldloc.1				; tmpWDWord$
	call		?getReadPattern@WDWord@WDDatas@@$$FQ$AAMEXZ
	stloc.s		30		; tmpReadPattern$36214
; Line 1100
	ldloc.0				; XmlFStream$
	callvirt	?WriteEndElement@XmlTextWriter@Xml@System@@$$FU$AAMXXZ
; Line 1102
	ldloc.0				; XmlFStream$
	callvirt	?WriteEndElement@XmlTextWriter@Xml@System@@$$FU$AAMXXZ
; Line 1104
	ldloc.0				; XmlFStream$
	ldstr		$StringLiteralTok$??_C@_1BA@IDJBDNFD@?$AAP?$AAR?$AAG?$AAR?$AAO?$AAU?$AAP?$AA?$AA@
	call		?WriteStartElement@XmlWriter@Xml@System@@$$FQ$AAMXP$AAVString@3@@Z
; Line 1107
	ldloc.0				; XmlFStream$
	ldstr		$StringLiteralTok$??_C@_1O@IDNNOHBB@?$AAP?$AAR?$AAT?$AAY?$AAP?$AAE?$AA?$AA@
	ldarg.0				; this$
	dup		
	ldfld		?SegmentListA@Form1@WordDic@@3P$AAV?$List@P$AAVWDSegment@WDDatas@@@Generic@Collections@System@@$AA
	ldc.i.6		6		; i32 0x6
	ldloc.1				; tmpWDWord$
	call		?getType@WDWord@WDDatas@@$$FQ$AAMHXZ
	call		?getSegment@Form1@WordDic@@$$FA$AAMP$AAVWDSegment@WDDatas@@P$AAV?$List@P$AAVWDSegment@WDDatas@@@Generic@Collections@System@@HH@Z
	ldnull		0		; i32 0x0
	call		?getName@WDSegment@WDDatas@@$$FQ$AAMP$AAVString@System@@P$AAV34@@Z
	call		?WriteElementString@XmlWriter@Xml@System@@$$FQ$AAMXP$AAVString@3@0@Z
; Line 1109
	ldloc.0				; XmlFStream$
	ldstr		$StringLiteralTok$??_C@_1BE@JGANJCLN@?$AAP?$AAR?$AAA?$AAT?$AAI?$AAC?$AAA?$AAL?$AAS?$AA?$AA@
	call		?WriteStartElement@XmlWriter@Xml@System@@$$FQ$AAMXP$AAVString@3@@Z
$LN28@WordGrpDis@2:
; Line 1114
	ldloc.0				; XmlFStream$
	ldstr		$StringLiteralTok$??_C@_1O@FMCHEDFP@?$AAP?$AAR?$AAI?$AAT?$AAE?$AAM?$AA?$AA@
	call		?WriteStartElement@XmlWriter@Xml@System@@$$FQ$AAMXP$AAVString@3@@Z
; Line 1117
	ldloc.s		27		; oldPractical$
	ldloc.1				; tmpWDWord$
	call		?getPractical@WDWord@WDDatas@@$$FQ$AAMEXZ
	beq.s		$LN27@WordGrpDis@2
; Line 1119
	ldloc.1				; tmpWDWord$
	call		?getPractical@WDWord@WDDatas@@$$FQ$AAMEXZ
	stloc.s		27		; oldPractical$
; Line 1120
	ldc.i.-1	-1		; i32 0xffffffff
	stloc.s		11		; oldPlurality$
; Line 1121
	ldc.i.-1	-1		; i32 0xffffffff
	stloc.s		7		; oldGramatical$
; Line 1122
	ldc.i.-1	-1		; i32 0xffffffff
	stloc.s		5		; oldSex$
; Line 1123
	ldarg.0				; this$
	dup		
	ldfld		?SegmentListB@Form1@WordDic@@3P$AAV?$List@P$AAVWDSegment@WDDatas@@@Generic@Collections@System@@$AA
	ldc.i.2		2		; i32 0x2
	ldloc.s		27		; oldPractical$
	call		?getSegment@Form1@WordDic@@$$FA$AAMP$AAVWDSegment@WDDatas@@P$AAV?$List@P$AAVWDSegment@WDDatas@@@Generic@Collections@System@@HH@Z
	ldnull		0		; i32 0x0
	call		?getName@WDSegment@WDDatas@@$$FQ$AAMP$AAVString@System@@P$AAV34@@Z
	stloc.2				; tmpPrStr$
$LN27@WordGrpDis@2:
; Line 1126
	ldloc.s		11		; oldPlurality$
	ldloc.1				; tmpWDWord$
	call		?getPlurality@WDWord@WDDatas@@$$FQ$AAMEXZ
	beq.s		$LN21@WordGrpDis@2
; Line 1128
	ldloc.1				; tmpWDWord$
	call		?getPlurality@WDWord@WDDatas@@$$FQ$AAMEXZ
	stloc.s		11		; oldPlurality$
; Line 1129
	ldc.i.-1	-1		; i32 0xffffffff
	stloc.s		7		; oldGramatical$
; Line 1130
	ldc.i.-1	-1		; i32 0xffffffff
	stloc.s		5		; oldSex$
; Line 1132
	ldloc.2				; tmpPrStr$
	ldnull		0		; i32 0x0
	call		??8String@System@@$$FSM_NP$AAV01@0@Z
	brtrue.s	$LN24@WordGrpDis@2
	ldloc.2				; tmpPrStr$
	call		?get@Length@String@System@@$$FQ$AAMHXZ
	brfalse.s	$LN24@WordGrpDis@2
; Line 1137
	ldarg.0				; this$
	dup		
	ldfld		?SegmentListB@Form1@WordDic@@3P$AAV?$List@P$AAVWDSegment@WDDatas@@@Generic@Collections@System@@$AA
	ldc.i.4		4		; i32 0x4
	ldloc.s		11		; oldPlurality$
	call		?getSegment@Form1@WordDic@@$$FA$AAMP$AAVWDSegment@WDDatas@@P$AAV?$List@P$AAVWDSegment@WDDatas@@@Generic@Collections@System@@HH@Z
	ldnull		0		; i32 0x0
	call		?getName@WDSegment@WDDatas@@$$FQ$AAMP$AAVString@System@@P$AAV34@@Z
	stloc.s		4		; tmpRdStr$
; Line 1138
	ldloc.s		4		; tmpRdStr$
	call		?get@Length@String@System@@$$FQ$AAMHXZ
	ldc.i.0		0		; i32 0x0
	ble.s		$LN21@WordGrpDis@2
; Line 1140
	ldloc.2				; tmpPrStr$
	stloc.s		29		; oldPrStr$
; Line 1141
	ldstr		$StringLiteralTok$??_C@_1BA@OGBOHOJD@?$AA?$HL?$AA0?$AA?$HN0?$PL?$AA?$HL?$AA1?$AA?$HN?$AA?$AA@
	ldloc.2				; tmpPrStr$
	ldloc.s		4		; tmpRdStr$
	call		?Format@String@System@@$$FSMP$AAV12@P$AAV12@P$AAVObject@2@1@Z
	stloc.2				; tmpPrStr$
	br.s		$LN21@WordGrpDis@2
$LN24@WordGrpDis@2:
; Line 1134
	ldloc.2				; tmpPrStr$
	ldnull		0		; i32 0x0
	call		??9String@System@@$$FSM_NP$AAV01@0@Z
	pop		
; Line 1135
	ldarg.0				; this$
	dup		
	ldfld		?SegmentListB@Form1@WordDic@@3P$AAV?$List@P$AAVWDSegment@WDDatas@@@Generic@Collections@System@@$AA
	ldc.i.4		4		; i32 0x4
	ldloc.s		11		; oldPlurality$
	call		?getSegment@Form1@WordDic@@$$FA$AAMP$AAVWDSegment@WDDatas@@P$AAV?$List@P$AAVWDSegment@WDDatas@@@Generic@Collections@System@@HH@Z
	ldnull		0		; i32 0x0
	call		?getName@WDSegment@WDDatas@@$$FQ$AAMP$AAVString@System@@P$AAV34@@Z
	stloc.2				; tmpPrStr$
$LN21@WordGrpDis@2:
; Line 1149
	ldloc.s		7		; oldGramatical$
	ldloc.1				; tmpWDWord$
	call		?getGramatical@WDWord@WDDatas@@$$FQ$AAMEXZ
	beq.s		$LN15@WordGrpDis@2
; Line 1151
	ldloc.1				; tmpWDWord$
	call		?getGramatical@WDWord@WDDatas@@$$FQ$AAMEXZ
	stloc.s		7		; oldGramatical$
; Line 1152
	ldc.i.-1	-1		; i32 0xffffffff
	stloc.s		5		; oldSex$
; Line 1154
	ldloc.2				; tmpPrStr$
	ldnull		0		; i32 0x0
	call		??8String@System@@$$FSM_NP$AAV01@0@Z
	brtrue.s	$LN18@WordGrpDis@2
	ldloc.2				; tmpPrStr$
	call		?get@Length@String@System@@$$FQ$AAMHXZ
	brfalse.s	$LN18@WordGrpDis@2
; Line 1159
	ldarg.0				; this$
	dup		
	ldfld		?SegmentListB@Form1@WordDic@@3P$AAV?$List@P$AAVWDSegment@WDDatas@@@Generic@Collections@System@@$AA
	ldc.i.3		3		; i32 0x3
	ldloc.s		7		; oldGramatical$
	call		?getSegment@Form1@WordDic@@$$FA$AAMP$AAVWDSegment@WDDatas@@P$AAV?$List@P$AAVWDSegment@WDDatas@@@Generic@Collections@System@@HH@Z
	ldnull		0		; i32 0x0
	call		?getName@WDSegment@WDDatas@@$$FQ$AAMP$AAVString@System@@P$AAV34@@Z
	stloc.s		4		; tmpRdStr$
; Line 1160
	ldloc.s		4		; tmpRdStr$
	call		?get@Length@String@System@@$$FQ$AAMHXZ
	ldc.i.0		0		; i32 0x0
	ble.s		$LN15@WordGrpDis@2
; Line 1162
	ldloc.2				; tmpPrStr$
	stloc.s		29		; oldPrStr$
; Line 1163
	ldstr		$StringLiteralTok$??_C@_1BA@OGBOHOJD@?$AA?$HL?$AA0?$AA?$HN0?$PL?$AA?$HL?$AA1?$AA?$HN?$AA?$AA@
	ldloc.2				; tmpPrStr$
	ldloc.s		4		; tmpRdStr$
	call		?Format@String@System@@$$FSMP$AAV12@P$AAV12@P$AAVObject@2@1@Z
	stloc.2				; tmpPrStr$
	br.s		$LN15@WordGrpDis@2
$LN18@WordGrpDis@2:
; Line 1156
	ldloc.2				; tmpPrStr$
	ldnull		0		; i32 0x0
	call		??9String@System@@$$FSM_NP$AAV01@0@Z
	pop		
; Line 1157
	ldarg.0				; this$
	dup		
	ldfld		?SegmentListB@Form1@WordDic@@3P$AAV?$List@P$AAVWDSegment@WDDatas@@@Generic@Collections@System@@$AA
	ldc.i.3		3		; i32 0x3
	ldloc.s		7		; oldGramatical$
	call		?getSegment@Form1@WordDic@@$$FA$AAMP$AAVWDSegment@WDDatas@@P$AAV?$List@P$AAVWDSegment@WDDatas@@@Generic@Collections@System@@HH@Z
	ldnull		0		; i32 0x0
	call		?getName@WDSegment@WDDatas@@$$FQ$AAMP$AAVString@System@@P$AAV34@@Z
	stloc.2				; tmpPrStr$
$LN15@WordGrpDis@2:
; Line 1171
	ldloc.s		5		; oldSex$
	ldloc.1				; tmpWDWord$
	call		?getSex@WDWord@WDDatas@@$$FQ$AAMEXZ
	beq.s		$LN9@WordGrpDis@2
; Line 1173
	ldloc.1				; tmpWDWord$
	call		?getSex@WDWord@WDDatas@@$$FQ$AAMEXZ
	stloc.s		5		; oldSex$
; Line 1175
	ldloc.2				; tmpPrStr$
	ldnull		0		; i32 0x0
	call		??8String@System@@$$FSM_NP$AAV01@0@Z
	brtrue.s	$LN12@WordGrpDis@2
	ldloc.2				; tmpPrStr$
	call		?get@Length@String@System@@$$FQ$AAMHXZ
	brfalse.s	$LN12@WordGrpDis@2
; Line 1180
	ldarg.0				; this$
	dup		
	ldfld		?SegmentListB@Form1@WordDic@@3P$AAV?$List@P$AAVWDSegment@WDDatas@@@Generic@Collections@System@@$AA
	ldc.i.5		5		; i32 0x5
	ldloc.s		5		; oldSex$
	call		?getSegment@Form1@WordDic@@$$FA$AAMP$AAVWDSegment@WDDatas@@P$AAV?$List@P$AAVWDSegment@WDDatas@@@Generic@Collections@System@@HH@Z
	ldnull		0		; i32 0x0
	call		?getName@WDSegment@WDDatas@@$$FQ$AAMP$AAVString@System@@P$AAV34@@Z
	stloc.s		4		; tmpRdStr$
; Line 1181
	ldloc.s		4		; tmpRdStr$
	call		?get@Length@String@System@@$$FQ$AAMHXZ
	ldc.i.0		0		; i32 0x0
	ble.s		$LN9@WordGrpDis@2
; Line 1183
	ldloc.2				; tmpPrStr$
	stloc.s		29		; oldPrStr$
; Line 1184
	ldstr		$StringLiteralTok$??_C@_1BA@OGBOHOJD@?$AA?$HL?$AA0?$AA?$HN0?$PL?$AA?$HL?$AA1?$AA?$HN?$AA?$AA@
	ldloc.2				; tmpPrStr$
	ldloc.s		4		; tmpRdStr$
	call		?Format@String@System@@$$FSMP$AAV12@P$AAV12@P$AAVObject@2@1@Z
	stloc.2				; tmpPrStr$
	br.s		$LN9@WordGrpDis@2
$LN12@WordGrpDis@2:
; Line 1177
	ldloc.2				; tmpPrStr$
	ldnull		0		; i32 0x0
	call		??9String@System@@$$FSM_NP$AAV01@0@Z
	pop		
; Line 1178
	ldarg.0				; this$
	dup		
	ldfld		?SegmentListB@Form1@WordDic@@3P$AAV?$List@P$AAVWDSegment@WDDatas@@@Generic@Collections@System@@$AA
	ldc.i.5		5		; i32 0x5
	ldloc.s		5		; oldSex$
	call		?getSegment@Form1@WordDic@@$$FA$AAMP$AAVWDSegment@WDDatas@@P$AAV?$List@P$AAVWDSegment@WDDatas@@@Generic@Collections@System@@HH@Z
	ldnull		0		; i32 0x0
	call		?getName@WDSegment@WDDatas@@$$FQ$AAMP$AAVString@System@@P$AAV34@@Z
	stloc.2				; tmpPrStr$
$LN9@WordGrpDis@2:
; Line 1192
	ldloc.0				; XmlFStream$
	ldstr		$StringLiteralTok$??_C@_1BA@EFJGKBMD@?$AAP?$AAR?$AAT?$AAI?$AAT?$AAL?$AAE?$AA?$AA@
	call		?WriteStartElement@XmlWriter@Xml@System@@$$FQ$AAMXP$AAVString@3@@Z
; Line 1194
	ldloc.1				; tmpWDWord$
	call		?getType@WDWord@WDDatas@@$$FQ$AAMHXZ
	stloc.s		35		; $T36249
	ldloc.0				; XmlFStream$
	ldstr		$StringLiteralTok$??_C@_1BC@DIAOALNJ@?$AAP?$AAR?$AAT?$AAY?$AAP?$AAE?$AAI?$AAD?$AA?$AA@
	ldloca.s	35		; $T36249
	call		?ToString@Int32@System@@$$FU$CAMP$AAVString@2@XZ
	call		?WriteAttributeString@XmlWriter@Xml@System@@$$FQ$AAMXP$AAVString@3@0@Z
; Line 1196
	ldloc.1				; tmpWDWord$
	call		?getPractical@WDWord@WDDatas@@$$FQ$AAMEXZ
	stloc.s		34		; $T36250
	ldloc.0				; XmlFStream$
	ldstr		$StringLiteralTok$??_C@_1BE@DDPPOOBK@?$AAP?$AAR?$AAT?$AAI?$AAC?$AAA?$AAL?$AAI?$AAD?$AA?$AA@
	ldloca.s	34		; $T36250
	call		?ToString@Byte@System@@$$FU$CAMP$AAVString@2@XZ
	call		?WriteAttributeString@XmlWriter@Xml@System@@$$FQ$AAMXP$AAVString@3@0@Z
; Line 1197
	ldloc.0				; XmlFStream$
	ldloc.2				; tmpPrStr$
	callvirt	?WriteString@XmlTextWriter@Xml@System@@$$FU$AAMXP$AAVString@3@@Z
; Line 1198
	ldloc.0				; XmlFStream$
	callvirt	?WriteEndElement@XmlTextWriter@Xml@System@@$$FU$AAMXXZ
; Line 1200
	ldnull		0		; i32 0x0
	stloc.2				; tmpPrStr$
; Line 1202
	ldloc.0				; XmlFStream$
	ldstr		$StringLiteralTok$??_C@_1O@CHEKKCNA@?$AAP?$AAR?$AAW?$AAO?$AAR?$AAD?$AA?$AA@
	ldloc.1				; tmpWDWord$
	ldnull		0		; i32 0x0
	call		?getWord@WDWord@WDDatas@@$$FQ$AAMP$AAVString@System@@P$AAV34@@Z
	call		?WriteElementString@XmlWriter@Xml@System@@$$FQ$AAMXP$AAVString@3@0@Z
; Line 1203
	ldloc.0				; XmlFStream$
	ldstr		$StringLiteralTok$??_C@_1BA@IMMCGOEE@?$AAP?$AAR?$AAR?$AAE?$AAA?$AAD?$AA1?$AA?$AA@
	ldloc.1				; tmpWDWord$
	ldnull		0		; i32 0x0
	call		?getRead1@WDWord@WDDatas@@$$FQ$AAMP$AAVString@System@@P$AAV34@@Z
	call		?WriteElementString@XmlWriter@Xml@System@@$$FQ$AAMXP$AAVString@3@0@Z
; Line 1204
	ldloc.0				; XmlFStream$
	ldstr		$StringLiteralTok$??_C@_1BA@JOHHMBKK@?$AAP?$AAR?$AAR?$AAE?$AAA?$AAD?$AA2?$AA?$AA@
	ldloc.1				; tmpWDWord$
	ldnull		0		; i32 0x0
	call		?getRead2@WDWord@WDDatas@@$$FQ$AAMP$AAVString@System@@P$AAV34@@Z
	call		?WriteElementString@XmlWriter@Xml@System@@$$FQ$AAMXP$AAVString@3@0@Z
; Line 1207
	ldloc.0				; XmlFStream$
	callvirt	?WriteEndElement@XmlTextWriter@Xml@System@@$$FU$AAMXXZ
$LN31@WordGrpDis@2:
; Line 1088
